---
triple:          'arm64-apple-darwin'
binary-path:     output
relocations:
  - { offsetInCU: 0x39, offset: 0x39, size: 0x8, addend: 0x0, symName: __ZN8Profiler9gProfilerE, symObjAddr: 0x1B1488, symBinAddr: 0x100030000, symSize: 0x0 }
  - { offsetInCU: 0x6943, offset: 0x6943, size: 0x8, addend: 0x0, symName: __ZNSt3__119piecewise_constructE, symObjAddr: 0x21908, symBinAddr: 0x100028500, symSize: 0x0 }
  - { offsetInCU: 0x19FB1, offset: 0x19FB1, size: 0x8, addend: 0x0, symName: __ZNSt3__124__put_character_sequenceB8ue170006IcNS_11char_traitsIcEEEERNS_13basic_ostreamIT_T0_EES7_PKS4_m, symObjAddr: 0x8D28, symBinAddr: 0x10000BA34, symSize: 0x1EC }
  - { offsetInCU: 0x1B0F7, offset: 0x1B0F7, size: 0x8, addend: 0x0, symName: __ZNSt3__17advanceB8ue170006INS_11__wrap_iterIPNS_4pairIKNS_12basic_stringIcNS_11char_traitsIcEENS_9allocatorIcEEEEN8nlohmann16json_abi_v3_11_310basic_jsonINSB_11ordered_mapENS_6vectorES8_bxydS6_NSB_14adl_serializerENSE_IhNS6_IhEEEEvEEEEEEllvEEvRT_T0_, symObjAddr: 0x16428, symBinAddr: 0x100019134, symSize: 0x38 }
  - { offsetInCU: 0x1B61D, offset: 0x1B61D, size: 0x8, addend: 0x0, symName: __ZNSt3__17advanceB8ue170006INS_11__wrap_iterIPKNS_4pairIKNS_12basic_stringIcNS_11char_traitsIcEENS_9allocatorIcEEEEN8nlohmann16json_abi_v3_11_310basic_jsonINSB_11ordered_mapENS_6vectorES8_bxydS6_NSB_14adl_serializerENSE_IhNS6_IhEEEEvEEEEEEllvEEvRT_T0_, symObjAddr: 0x1BB5C, symBinAddr: 0x10001E868, symSize: 0x38 }
  - { offsetInCU: 0x1BACC, offset: 0x1BACC, size: 0x8, addend: 0x0, symName: __ZNSt3__17advanceB8ue170006INS_21__tree_const_iteratorINS_12__value_typeIPKcP13ProfilerStatsEEPNS_11__tree_nodeIS7_PvEElEEllvEEvRT_T0_, symObjAddr: 0x1FFE0, symBinAddr: 0x100022CEC, symSize: 0x38 }
  - { offsetInCU: 0x211CF, offset: 0x211CF, size: 0x8, addend: 0x0, symName: __ZNSt3__1eqB8ue170006ERKNS_14__map_iteratorINS_15__tree_iteratorINS_12__value_typeIPKcP13ProfilerStatsEEPNS_11__tree_nodeIS7_PvEElEEEESF_, symObjAddr: 0xEC4, symBinAddr: 0x100003BD0, symSize: 0x30 }
  - { offsetInCU: 0x2120C, offset: 0x2120C, size: 0x8, addend: 0x0, symName: __ZNSt3__1lsB8ue170006INS_11char_traitsIcEEEERNS_13basic_ostreamIcT_EES6_PKc, symObjAddr: 0x1444, symBinAddr: 0x100004150, symSize: 0x48 }
  - { offsetInCU: 0x21252, offset: 0x21252, size: 0x8, addend: 0x0, symName: __ZNSt3__1lsB8ue170006IcNS_11char_traitsIcEEEERNS_13basic_ostreamIT_T0_EES7_RKNS_8__iom_t6E, symObjAddr: 0x148C, symBinAddr: 0x100004198, symSize: 0x40 }
  - { offsetInCU: 0x212A1, offset: 0x212A1, size: 0x8, addend: 0x0, symName: __ZNSt3__14leftB8ue170006ERNS_8ios_baseE, symObjAddr: 0x150C, symBinAddr: 0x100004218, symSize: 0x30 }
  - { offsetInCU: 0x212CF, offset: 0x212CF, size: 0x8, addend: 0x0, symName: __ZNSt3__14setwB8ue170006Ei, symObjAddr: 0x153C, symBinAddr: 0x100004248, symSize: 0x2C }
  - { offsetInCU: 0x212FD, offset: 0x212FD, size: 0x8, addend: 0x0, symName: __ZNSt3__14endlB8ue170006IcNS_11char_traitsIcEEEERNS_13basic_ostreamIT_T0_EES7_, symObjAddr: 0x1594, symBinAddr: 0x1000042A0, symSize: 0x58 }
  - { offsetInCU: 0x2133D, offset: 0x2133D, size: 0x8, addend: 0x0, symName: __ZNSt3__1lsB8ue170006IcNS_11char_traitsIcEENS_9allocatorIcEEEERNS_13basic_ostreamIT_T0_EES9_RKNS_12basic_stringIS6_S7_T1_EE, symObjAddr: 0x15EC, symBinAddr: 0x1000042F8, symSize: 0x4C }
  - { offsetInCU: 0x21395, offset: 0x21395, size: 0x8, addend: 0x0, symName: __ZNSt3__1neB8ue170006ERKNS_14__map_iteratorINS_15__tree_iteratorINS_12__value_typeIPKcP13ProfilerStatsEEPNS_11__tree_nodeIS7_PvEElEEEESF_, symObjAddr: 0x16AC, symBinAddr: 0x1000043B8, symSize: 0x30 }
  - { offsetInCU: 0x21C77, offset: 0x21C77, size: 0x8, addend: 0x0, symName: __ZNSt3__17launderB8ue170006INS_4pairIKPKcP13ProfilerStatsEEEEPT_S9_, symObjAddr: 0x3490, symBinAddr: 0x10000619C, symSize: 0x24 }
  - { offsetInCU: 0x21CAE, offset: 0x21CAE, size: 0x8, addend: 0x0, symName: __ZNSt3__19__launderB8ue170006INS_4pairIKPKcP13ProfilerStatsEEEEPT_S9_, symObjAddr: 0x34B4, symBinAddr: 0x1000061C0, symSize: 0x14 }
  - { offsetInCU: 0x21CE5, offset: 0x21CE5, size: 0x8, addend: 0x0, symName: __ZNSt3__119__libcpp_deallocateB8ue170006EPvmm, symObjAddr: 0x350C, symBinAddr: 0x100006218, symSize: 0x60 }
  - { offsetInCU: 0x21D4A, offset: 0x21D4A, size: 0x8, addend: 0x0, symName: __ZNSt3__124__is_overaligned_for_newB8ue170006Em, symObjAddr: 0x356C, symBinAddr: 0x100006278, symSize: 0x20 }
  - { offsetInCU: 0x21D78, offset: 0x21D78, size: 0x8, addend: 0x0, symName: __ZNSt3__127__do_deallocate_handle_sizeB8ue170006IJSt11align_val_tEEEvPvmDpT_, symObjAddr: 0x358C, symBinAddr: 0x100006298, symSize: 0x30 }
  - { offsetInCU: 0x21DCB, offset: 0x21DCB, size: 0x8, addend: 0x0, symName: __ZNSt3__127__do_deallocate_handle_sizeB8ue170006IJEEEvPvmDpT_, symObjAddr: 0x35BC, symBinAddr: 0x1000062C8, symSize: 0x28 }
  - { offsetInCU: 0x21E09, offset: 0x21E09, size: 0x8, addend: 0x0, symName: __ZNSt3__124__libcpp_operator_deleteB8ue170006IJPvSt11align_val_tEEEvDpT_, symObjAddr: 0x35E4, symBinAddr: 0x1000062F0, symSize: 0x2C }
  - { offsetInCU: 0x21E52, offset: 0x21E52, size: 0x8, addend: 0x0, symName: __ZNSt3__124__libcpp_operator_deleteB8ue170006IJPvEEEvDpT_, symObjAddr: 0x3610, symBinAddr: 0x10000631C, symSize: 0x24 }
  - { offsetInCU: 0x21E87, offset: 0x21E87, size: 0x8, addend: 0x0, symName: __ZNSt3__112__to_addressB8ue170006I15TimeRecordStartEEPT_S3_, symObjAddr: 0x39F4, symBinAddr: 0x100006700, symSize: 0x14 }
  - { offsetInCU: 0x21EBC, offset: 0x21EBC, size: 0x8, addend: 0x0, symName: __ZNSt3__112__to_addressB8ue170006I14TimeRecordStopEEPT_S3_, symObjAddr: 0x3EC8, symBinAddr: 0x100006BD4, symSize: 0x14 }
  - { offsetInCU: 0x21EF2, offset: 0x21EF2, size: 0x8, addend: 0x0, symName: __ZNSt3__13minB8ue170006ImEERKT_S3_S3_, symObjAddr: 0x424C, symBinAddr: 0x100006F58, symSize: 0x2C }
  - { offsetInCU: 0x22120, offset: 0x22120, size: 0x8, addend: 0x0, symName: __ZNSt3__13minB8ue170006ImNS_6__lessIvvEEEERKT_S5_S5_T0_, symObjAddr: 0x42D8, symBinAddr: 0x100006FE4, symSize: 0x54 }
  - { offsetInCU: 0x221C0, offset: 0x221C0, size: 0x8, addend: 0x0, symName: __ZNSt3__120__throw_length_errorB8ue170006EPKc, symObjAddr: 0x43B4, symBinAddr: 0x1000070C0, symSize: 0x64 }
  - { offsetInCU: 0x221EB, offset: 0x221EB, size: 0x8, addend: 0x0, symName: __ZNSt3__119__allocate_at_leastB8ue170006INS_9allocatorI15TimeRecordStartEEEENS_19__allocation_resultINS_16allocator_traitsIT_E7pointerEEERS6_m, symObjAddr: 0x45A8, symBinAddr: 0x1000072B4, symSize: 0x40 }
  - { offsetInCU: 0x2222E, offset: 0x2222E, size: 0x8, addend: 0x0, symName: __ZNSt3__117__libcpp_allocateB8ue170006Emm, symObjAddr: 0x472C, symBinAddr: 0x100007438, symSize: 0x60 }
  - { offsetInCU: 0x22288, offset: 0x22288, size: 0x8, addend: 0x0, symName: __ZNSt3__121__libcpp_operator_newB8ue170006IJmSt11align_val_tEEEPvDpT_, symObjAddr: 0x478C, symBinAddr: 0x100007498, symSize: 0x2C }
  - { offsetInCU: 0x222D5, offset: 0x222D5, size: 0x8, addend: 0x0, symName: __ZNSt3__121__libcpp_operator_newB8ue170006IJmEEEPvDpT_, symObjAddr: 0x47B8, symBinAddr: 0x1000074C4, symSize: 0x24 }
  - { offsetInCU: 0x2230E, offset: 0x2230E, size: 0x8, addend: 0x0, symName: __ZNSt3__142__uninitialized_allocator_move_if_noexceptB8ue170006INS_9allocatorI15TimeRecordStartEENS_16reverse_iteratorIPS2_EES6_S6_EET2_RT_T0_T1_S7_, symObjAddr: 0x4854, symBinAddr: 0x100007560, symSize: 0x12C }
  - { offsetInCU: 0x223AE, offset: 0x223AE, size: 0x8, addend: 0x0, symName: __ZNSt3__14swapB8ue170006IP15TimeRecordStartEENS_9enable_ifIXaasr21is_move_constructibleIT_EE5valuesr18is_move_assignableIS4_EE5valueEvE4typeERS4_S7_, symObjAddr: 0x49CC, symBinAddr: 0x1000076D8, symSize: 0x3C }
  - { offsetInCU: 0x22400, offset: 0x22400, size: 0x8, addend: 0x0, symName: __ZNSt3__122__make_exception_guardB8ue170006INS_29_AllocatorDestroyRangeReverseINS_9allocatorI15TimeRecordStartEENS_16reverse_iteratorIPS3_EEEEEENS_28__exception_guard_exceptionsIT_EESA_, symObjAddr: 0x4ADC, symBinAddr: 0x1000077E8, symSize: 0x4C }
  - { offsetInCU: 0x22437, offset: 0x22437, size: 0x8, addend: 0x0, symName: __ZNSt3__1neB8ue170006IP15TimeRecordStartS2_EEbRKNS_16reverse_iteratorIT_EERKNS3_IT0_EE, symObjAddr: 0x4B6C, symBinAddr: 0x100007878, symSize: 0x48 }
  - { offsetInCU: 0x22484, offset: 0x22484, size: 0x8, addend: 0x0, symName: __ZNSt3__112__to_addressB8ue170006INS_16reverse_iteratorIP15TimeRecordStartEEvEEu7__decayIDTclsr19__to_address_helperIT_EE6__callclsr3stdE7declvalIRKS5_EEEEES7_, symObjAddr: 0x4BE8, symBinAddr: 0x1000078F4, symSize: 0x24 }
  - { offsetInCU: 0x224E4, offset: 0x224E4, size: 0x8, addend: 0x0, symName: __ZNSt3__119__allocator_destroyB8ue170006INS_9allocatorI15TimeRecordStartEENS_16reverse_iteratorINS4_IPS2_EEEES7_EEvRT_T0_T1_, symObjAddr: 0x4EC0, symBinAddr: 0x100007BCC, symSize: 0x70 }
  - { offsetInCU: 0x2254A, offset: 0x2254A, size: 0x8, addend: 0x0, symName: __ZNSt3__1neB8ue170006INS_16reverse_iteratorIP15TimeRecordStartEES4_EEbRKNS1_IT_EERKNS1_IT0_EE, symObjAddr: 0x4F6C, symBinAddr: 0x100007C78, symSize: 0x60 }
  - { offsetInCU: 0x22597, offset: 0x22597, size: 0x8, addend: 0x0, symName: __ZNSt3__112__to_addressB8ue170006INS_16reverse_iteratorINS1_IP15TimeRecordStartEEEEvEEu7__decayIDTclsr19__to_address_helperIT_EE6__callclsr3stdE7declvalIRKS6_EEEEES8_, symObjAddr: 0x4FCC, symBinAddr: 0x100007CD8, symSize: 0x24 }
  - { offsetInCU: 0x225F8, offset: 0x225F8, size: 0x8, addend: 0x0, symName: __ZNSt3__119__allocate_at_leastB8ue170006INS_9allocatorI14TimeRecordStopEEEENS_19__allocation_resultINS_16allocator_traitsIT_E7pointerEEERS6_m, symObjAddr: 0x570C, symBinAddr: 0x100008418, symSize: 0x40 }
  - { offsetInCU: 0x2263B, offset: 0x2263B, size: 0x8, addend: 0x0, symName: __ZNSt3__142__uninitialized_allocator_move_if_noexceptB8ue170006INS_9allocatorI14TimeRecordStopEENS_16reverse_iteratorIPS2_EES6_S6_EET2_RT_T0_T1_S7_, symObjAddr: 0x58D8, symBinAddr: 0x1000085E4, symSize: 0x12C }
  - { offsetInCU: 0x226DB, offset: 0x226DB, size: 0x8, addend: 0x0, symName: __ZNSt3__14swapB8ue170006IP14TimeRecordStopEENS_9enable_ifIXaasr21is_move_constructibleIT_EE5valuesr18is_move_assignableIS4_EE5valueEvE4typeERS4_S7_, symObjAddr: 0x5A50, symBinAddr: 0x10000875C, symSize: 0x3C }
  - { offsetInCU: 0x2272D, offset: 0x2272D, size: 0x8, addend: 0x0, symName: __ZNSt3__122__make_exception_guardB8ue170006INS_29_AllocatorDestroyRangeReverseINS_9allocatorI14TimeRecordStopEENS_16reverse_iteratorIPS3_EEEEEENS_28__exception_guard_exceptionsIT_EESA_, symObjAddr: 0x5B7C, symBinAddr: 0x100008888, symSize: 0x4C }
  - { offsetInCU: 0x22764, offset: 0x22764, size: 0x8, addend: 0x0, symName: __ZNSt3__1neB8ue170006IP14TimeRecordStopS2_EEbRKNS_16reverse_iteratorIT_EERKNS3_IT0_EE, symObjAddr: 0x5C0C, symBinAddr: 0x100008918, symSize: 0x48 }
  - { offsetInCU: 0x227B1, offset: 0x227B1, size: 0x8, addend: 0x0, symName: __ZNSt3__112__to_addressB8ue170006INS_16reverse_iteratorIP14TimeRecordStopEEvEEu7__decayIDTclsr19__to_address_helperIT_EE6__callclsr3stdE7declvalIRKS5_EEEEES7_, symObjAddr: 0x5C88, symBinAddr: 0x100008994, symSize: 0x24 }
  - { offsetInCU: 0x22811, offset: 0x22811, size: 0x8, addend: 0x0, symName: __ZNSt3__119__allocator_destroyB8ue170006INS_9allocatorI14TimeRecordStopEENS_16reverse_iteratorINS4_IPS2_EEEES7_EEvRT_T0_T1_, symObjAddr: 0x5F6C, symBinAddr: 0x100008C78, symSize: 0x70 }
  - { offsetInCU: 0x22877, offset: 0x22877, size: 0x8, addend: 0x0, symName: __ZNSt3__1neB8ue170006INS_16reverse_iteratorIP14TimeRecordStopEES4_EEbRKNS1_IT_EERKNS1_IT0_EE, symObjAddr: 0x6018, symBinAddr: 0x100008D24, symSize: 0x60 }
  - { offsetInCU: 0x228C4, offset: 0x228C4, size: 0x8, addend: 0x0, symName: __ZNSt3__112__to_addressB8ue170006INS_16reverse_iteratorINS1_IP14TimeRecordStopEEEEvEEu7__decayIDTclsr19__to_address_helperIT_EE6__callclsr3stdE7declvalIRKS6_EEEEES8_, symObjAddr: 0x6078, symBinAddr: 0x100008D84, symSize: 0x24 }
  - { offsetInCU: 0x22925, offset: 0x22925, size: 0x8, addend: 0x0, symName: __ZNSt3__13maxB8ue170006ImEERKT_S3_S3_, symObjAddr: 0x6A54, symBinAddr: 0x100009760, symSize: 0x2C }
  - { offsetInCU: 0x22969, offset: 0x22969, size: 0x8, addend: 0x0, symName: __ZNSt3__13maxB8ue170006ImNS_6__lessIvvEEEERKT_S5_S5_T0_, symObjAddr: 0x6A80, symBinAddr: 0x10000978C, symSize: 0x54 }
  - { offsetInCU: 0x229C4, offset: 0x229C4, size: 0x8, addend: 0x0, symName: __ZNSt3__120__throw_out_of_rangeB8ue170006EPKc, symObjAddr: 0x6AF0, symBinAddr: 0x1000097FC, symSize: 0x64 }
  - { offsetInCU: 0x229EF, offset: 0x229EF, size: 0x8, addend: 0x0, symName: __ZNSt3__1miB8ue170006IPK15TimeRecordStartS3_EEDTmicldtfp_4baseEcldtfp0_4baseEERKNS_11__wrap_iterIT_EERKNS5_IT0_EE, symObjAddr: 0x6C58, symBinAddr: 0x100009964, symSize: 0x48 }
  - { offsetInCU: 0x22A3C, offset: 0x22A3C, size: 0x8, addend: 0x0, symName: __ZNSt3__14moveB8ue170006IP15TimeRecordStartS2_EET0_T_S4_S3_, symObjAddr: 0x6D18, symBinAddr: 0x100009A24, symSize: 0x40 }
  - { offsetInCU: 0x22A97, offset: 0x22A97, size: 0x8, addend: 0x0, symName: __ZNSt3__16__moveB8ue170006INS_17_ClassicAlgPolicyEP15TimeRecordStartS3_S3_EENS_4pairIT0_T2_EES5_T1_S6_, symObjAddr: 0x6E24, symBinAddr: 0x100009B30, symSize: 0x44 }
  - { offsetInCU: 0x22B04, offset: 0x22B04, size: 0x8, addend: 0x0, symName: __ZNSt3__123__dispatch_copy_or_moveB8ue170006INS_17_ClassicAlgPolicyENS_11__move_loopIS1_EENS_14__move_trivialEP15TimeRecordStartS6_S6_EENS_4pairIT2_T4_EES8_T3_S9_, symObjAddr: 0x6E68, symBinAddr: 0x100009B74, symSize: 0x44 }
  - { offsetInCU: 0x22B83, offset: 0x22B83, size: 0x8, addend: 0x0, symName: __ZNSt3__121__unwrap_and_dispatchB8ue170006INS_10__overloadINS_11__move_loopINS_17_ClassicAlgPolicyEEENS_14__move_trivialEEEP15TimeRecordStartS8_S8_Li0EEENS_4pairIT0_T2_EESA_T1_SB_, symObjAddr: 0x6EAC, symBinAddr: 0x100009BB8, symSize: 0xB4 }
  - { offsetInCU: 0x22C12, offset: 0x22C12, size: 0x8, addend: 0x0, symName: __ZNSt3__114__unwrap_rangeB8ue170006IP15TimeRecordStartS2_EENS_4pairIT0_S4_EET_S6_, symObjAddr: 0x6F60, symBinAddr: 0x100009C6C, symSize: 0x60 }
  - { offsetInCU: 0x22DCD, offset: 0x22DCD, size: 0x8, addend: 0x0, symName: __ZNSt3__113__unwrap_iterB8ue170006IP15TimeRecordStartNS_18__unwrap_iter_implIS2_Lb1EEELi0EEEDTclsrT0_8__unwrapclsr3stdE7declvalIT_EEEES6_, symObjAddr: 0x7050, symBinAddr: 0x100009D5C, symSize: 0x24 }
  - { offsetInCU: 0x22E11, offset: 0x22E11, size: 0x8, addend: 0x0, symName: __ZNSt3__19make_pairB8ue170006IP15TimeRecordStartS2_EENS_4pairINS_18__unwrap_ref_decayIT_E4typeENS4_IT0_E4typeEEEOS5_OS8_, symObjAddr: 0x7074, symBinAddr: 0x100009D80, symSize: 0x38 }
  - { offsetInCU: 0x22E61, offset: 0x22E61, size: 0x8, addend: 0x0, symName: __ZNSt3__114__rewrap_rangeB8ue170006IP15TimeRecordStartS2_EET_S3_T0_, symObjAddr: 0x70AC, symBinAddr: 0x100009DB8, symSize: 0x2C }
  - { offsetInCU: 0x22EAE, offset: 0x22EAE, size: 0x8, addend: 0x0, symName: __ZNSt3__113__rewrap_iterB8ue170006IP15TimeRecordStartS2_NS_18__unwrap_iter_implIS2_Lb1EEEEET_S5_T0_, symObjAddr: 0x70D8, symBinAddr: 0x100009DE4, symSize: 0x3C }
  - { offsetInCU: 0x22FF3, offset: 0x22FF3, size: 0x8, addend: 0x0, symName: __ZNSt3__1neB8ue170006ERKNS_15__tree_iteratorINS_12__value_typeIPKcP13ProfilerStatsEEPNS_11__tree_nodeIS6_PvEElEESD_, symObjAddr: 0x774C, symBinAddr: 0x10000A458, symSize: 0x34 }
  - { offsetInCU: 0x23030, offset: 0x23030, size: 0x8, addend: 0x0, symName: __ZNSt3__17launderB8ue170006IKNS_4pairIKPKcP13ProfilerStatsEEEEPT_SA_, symObjAddr: 0x7928, symBinAddr: 0x10000A634, symSize: 0x24 }
  - { offsetInCU: 0x23067, offset: 0x23067, size: 0x8, addend: 0x0, symName: __ZNSt3__19__launderB8ue170006IKNS_4pairIKPKcP13ProfilerStatsEEEEPT_SA_, symObjAddr: 0x794C, symBinAddr: 0x10000A658, symSize: 0x14 }
  - { offsetInCU: 0x2309E, offset: 0x2309E, size: 0x8, addend: 0x0, symName: __ZNSt3__1eqB8ue170006ERKNS_15__tree_iteratorINS_12__value_typeIPKcP13ProfilerStatsEEPNS_11__tree_nodeIS6_PvEElEESD_, symObjAddr: 0x7980, symBinAddr: 0x10000A68C, symSize: 0x30 }
  - { offsetInCU: 0x23112, offset: 0x23112, size: 0x8, addend: 0x0, symName: __ZNSt3__116forward_as_tupleB8ue170006IJRKPKcEEENS_5tupleIJDpOT_EEES8_, symObjAddr: 0x7B20, symBinAddr: 0x10000A82C, symSize: 0x2C }
  - { offsetInCU: 0x2314B, offset: 0x2314B, size: 0x8, addend: 0x0, symName: __ZNSt3__116forward_as_tupleB8ue170006IJEEENS_5tupleIJDpOT_EEES4_, symObjAddr: 0x7B4C, symBinAddr: 0x10000A858, symSize: 0x4 }
  - { offsetInCU: 0x23199, offset: 0x23199, size: 0x8, addend: 0x0, symName: __ZNSt3__13getB8ue170006ILm0EJRKPKcEEERNS_13tuple_elementIXT_ENS_5tupleIJDpT0_EEEE4typeERS9_, symObjAddr: 0x8448, symBinAddr: 0x10000B154, symSize: 0x24 }
  - { offsetInCU: 0x231DC, offset: 0x231DC, size: 0x8, addend: 0x0, symName: __ZNSt3__127__tree_balance_after_insertB8ue170006IPNS_16__tree_node_baseIPvEEEEvT_S5_, symObjAddr: 0x84F8, symBinAddr: 0x10000B204, symSize: 0x32C }
  - { offsetInCU: 0x23258, offset: 0x23258, size: 0x8, addend: 0x0, symName: __ZNSt3__120__tree_is_left_childB8ue170006IPNS_16__tree_node_baseIPvEEEEbT_, symObjAddr: 0x883C, symBinAddr: 0x10000B548, symSize: 0x2C }
  - { offsetInCU: 0x2328D, offset: 0x2328D, size: 0x8, addend: 0x0, symName: __ZNSt3__118__tree_left_rotateB8ue170006IPNS_16__tree_node_baseIPvEEEEvT_, symObjAddr: 0x8868, symBinAddr: 0x10000B574, symSize: 0xD8 }
  - { offsetInCU: 0x232CF, offset: 0x232CF, size: 0x8, addend: 0x0, symName: __ZNSt3__119__tree_right_rotateB8ue170006IPNS_16__tree_node_baseIPvEEEEvT_, symObjAddr: 0x8940, symBinAddr: 0x10000B64C, symSize: 0xCC }
  - { offsetInCU: 0x23368, offset: 0x23368, size: 0x8, addend: 0x0, symName: __ZNSt3__116__pad_and_outputB8ue170006IcNS_11char_traitsIcEEEENS_19ostreambuf_iteratorIT_T0_EES6_PKS4_S8_S8_RNS_8ios_baseES4_, symObjAddr: 0x8F64, symBinAddr: 0x10000BC70, symSize: 0x240 }
  - { offsetInCU: 0x23437, offset: 0x23437, size: 0x8, addend: 0x0, symName: __ZNSt3__112__to_addressB8ue170006IcEEPT_S2_, symObjAddr: 0x9320, symBinAddr: 0x10000C02C, symSize: 0x14 }
  - { offsetInCU: 0x234A0, offset: 0x234A0, size: 0x8, addend: 0x0, symName: __ZNSt3__19use_facetB8ue170006INS_5ctypeIcEEEERKT_RKNS_6localeE, symObjAddr: 0x95D8, symBinAddr: 0x10000C2E4, symSize: 0x2C }
  - { offsetInCU: 0x2396E, offset: 0x2396E, size: 0x8, addend: 0x0, symName: __ZNSt3__118__constexpr_strlenB8ue170006EPKc, symObjAddr: 0x9670, symBinAddr: 0x10000C37C, symSize: 0x24 }
  - { offsetInCU: 0x2399A, offset: 0x2399A, size: 0x8, addend: 0x0, symName: __ZNSt3__112__to_addressB8ue170006IKcEEPT_S3_, symObjAddr: 0x9854, symBinAddr: 0x10000C560, symSize: 0x14 }
  - { offsetInCU: 0x23A03, offset: 0x23A03, size: 0x8, addend: 0x0, symName: __ZNSt3__116__tree_next_iterB8ue170006IPNS_15__tree_end_nodeIPNS_16__tree_node_baseIPvEEEES5_EET_T0_, symObjAddr: 0x99E8, symBinAddr: 0x10000C6F4, symSize: 0x80 }
  - { offsetInCU: 0x23A41, offset: 0x23A41, size: 0x8, addend: 0x0, symName: __ZNSt3__110__tree_minB8ue170006IPNS_16__tree_node_baseIPvEEEET_S5_, symObjAddr: 0x9A68, symBinAddr: 0x10000C774, symSize: 0x40 }
  - { offsetInCU: 0x24114, offset: 0x24114, size: 0x8, addend: 0x0, symName: __ZNSt3__1neB8ue170006IN8nlohmann16json_abi_v3_11_311ordered_mapINS_12basic_stringIcNS_11char_traitsIcEENS_9allocatorIcEEEENS2_10basic_jsonIS3_NS_6vectorES9_bxydS7_NS2_14adl_serializerENSB_IhNS7_IhEEEEvEENS_4lessIvEENS7_INS_4pairIKS9_SF_EEEEEEZNSF_6createISM_JEEEPT_DpOT0_EUlPSM_E_EEbRKNS_10unique_ptrISO_T0_EEDn, symObjAddr: 0xA71C, symBinAddr: 0x10000D428, symSize: 0x2C }
  - { offsetInCU: 0x247FE, offset: 0x247FE, size: 0x8, addend: 0x0, symName: __ZNSt3__1neB8ue170006INS_6vectorIN8nlohmann16json_abi_v3_11_310basic_jsonINS3_11ordered_mapES1_NS_12basic_stringIcNS_11char_traitsIcEENS_9allocatorIcEEEEbxydS9_NS3_14adl_serializerENS1_IhNS9_IhEEEEvEENS9_ISF_EEEEZNSF_6createISH_JEEEPT_DpOT0_EUlPSH_E_EEbRKNS_10unique_ptrISJ_T0_EEDn, symObjAddr: 0xAE8C, symBinAddr: 0x10000DB98, symSize: 0x2C }
  - { offsetInCU: 0x24B95, offset: 0x24B95, size: 0x8, addend: 0x0, symName: __ZNSt3__1neB8ue170006INS_12basic_stringIcNS_11char_traitsIcEENS_9allocatorIcEEEEZN8nlohmann16json_abi_v3_11_310basic_jsonINS8_11ordered_mapENS_6vectorES6_bxydS4_NS8_14adl_serializerENSB_IhNS4_IhEEEEvE6createIS6_JRA1_KcEEEPT_DpOT0_EUlPS6_E_EEbRKNS_10unique_ptrISK_T0_EEDn, symObjAddr: 0xB5E4, symBinAddr: 0x10000E2F0, symSize: 0x2C }
  - { offsetInCU: 0x2527F, offset: 0x2527F, size: 0x8, addend: 0x0, symName: __ZNSt3__1neB8ue170006IN8nlohmann16json_abi_v3_11_327byte_container_with_subtypeINS_6vectorIhNS_9allocatorIhEEEEEEZNS2_10basic_jsonINS2_11ordered_mapES4_NS_12basic_stringIcNS_11char_traitsIcEENS5_IcEEEEbxydS5_NS2_14adl_serializerES7_vE6createIS8_JEEEPT_DpOT0_EUlPS8_E_EEbRKNS_10unique_ptrISJ_T0_EEDn, symObjAddr: 0xBBC0, symBinAddr: 0x10000E8CC, symSize: 0x2C }
  - { offsetInCU: 0x252CC, offset: 0x252CC, size: 0x8, addend: 0x0, symName: __ZNSt3__14moveB8ue170006INS_11__wrap_iterIPN8nlohmann16json_abi_v3_11_310basic_jsonINS3_11ordered_mapENS_6vectorENS_12basic_stringIcNS_11char_traitsIcEENS_9allocatorIcEEEEbxydSA_NS3_14adl_serializerENS6_IhNSA_IhEEEEvEEEENS_20back_insert_iteratorINS6_ISG_NSA_ISG_EEEEEEEET0_T_SO_SN_, symObjAddr: 0xD410, symBinAddr: 0x10001011C, symSize: 0x60 }
  - { offsetInCU: 0x25327, offset: 0x25327, size: 0x8, addend: 0x0, symName: __ZNSt3__113back_inserterB8ue170006INS_6vectorIN8nlohmann16json_abi_v3_11_310basic_jsonINS3_11ordered_mapES1_NS_12basic_stringIcNS_11char_traitsIcEENS_9allocatorIcEEEEbxydS9_NS3_14adl_serializerENS1_IhNS9_IhEEEEvEENS9_ISF_EEEEEENS_20back_insert_iteratorIT_EERSJ_, symObjAddr: 0xD4D0, symBinAddr: 0x1000101DC, symSize: 0x2C }
  - { offsetInCU: 0x2535D, offset: 0x2535D, size: 0x8, addend: 0x0, symName: __ZNSt3__1neB8ue170006IPNS_4pairIKNS_12basic_stringIcNS_11char_traitsIcEENS_9allocatorIcEEEEN8nlohmann16json_abi_v3_11_310basic_jsonINSA_11ordered_mapENS_6vectorES7_bxydS5_NSA_14adl_serializerENSD_IhNS5_IhEEEEvEEEEEEbRKNS_11__wrap_iterIT_EESO_, symObjAddr: 0xD584, symBinAddr: 0x100010290, symSize: 0x34 }
  - { offsetInCU: 0x253A1, offset: 0x253A1, size: 0x8, addend: 0x0, symName: __ZNSt3__119__allocate_at_leastB8ue170006INS_9allocatorIN8nlohmann16json_abi_v3_11_310basic_jsonINS3_11ordered_mapENS_6vectorENS_12basic_stringIcNS_11char_traitsIcEENS1_IcEEEEbxydS1_NS3_14adl_serializerENS6_IhNS1_IhEEEEvEEEEEENS_19__allocation_resultINS_16allocator_traitsIT_E7pointerEEERSJ_m, symObjAddr: 0xDD50, symBinAddr: 0x100010A5C, symSize: 0x40 }
  - { offsetInCU: 0x253E4, offset: 0x253E4, size: 0x8, addend: 0x0, symName: __ZNSt3__142__uninitialized_allocator_move_if_noexceptB8ue170006INS_9allocatorIN8nlohmann16json_abi_v3_11_310basic_jsonINS3_11ordered_mapENS_6vectorENS_12basic_stringIcNS_11char_traitsIcEENS1_IcEEEEbxydS1_NS3_14adl_serializerENS6_IhNS1_IhEEEEvEEEENS_16reverse_iteratorIPSF_EESJ_SJ_EET2_RT_T0_T1_SK_, symObjAddr: 0xDFD0, symBinAddr: 0x100010CDC, symSize: 0x12C }
  - { offsetInCU: 0x25484, offset: 0x25484, size: 0x8, addend: 0x0, symName: __ZNSt3__14swapB8ue170006IPN8nlohmann16json_abi_v3_11_310basic_jsonINS2_11ordered_mapENS_6vectorENS_12basic_stringIcNS_11char_traitsIcEENS_9allocatorIcEEEEbxydS9_NS2_14adl_serializerENS5_IhNS9_IhEEEEvEEEENS_9enable_ifIXaasr21is_move_constructibleIT_EE5valuesr18is_move_assignableISI_EE5valueEvE4typeERSI_SL_, symObjAddr: 0xE148, symBinAddr: 0x100010E54, symSize: 0x3C }
  - { offsetInCU: 0x254D5, offset: 0x254D5, size: 0x8, addend: 0x0, symName: __ZNSt3__112__to_addressB8ue170006IN8nlohmann16json_abi_v3_11_310basic_jsonINS2_11ordered_mapENS_6vectorENS_12basic_stringIcNS_11char_traitsIcEENS_9allocatorIcEEEEbxydS9_NS2_14adl_serializerENS5_IhNS9_IhEEEEvEEEEPT_SH_, symObjAddr: 0xE2A0, symBinAddr: 0x100010FAC, symSize: 0x14 }
  - { offsetInCU: 0x2550B, offset: 0x2550B, size: 0x8, addend: 0x0, symName: __ZNSt3__122__make_exception_guardB8ue170006INS_29_AllocatorDestroyRangeReverseINS_9allocatorIN8nlohmann16json_abi_v3_11_310basic_jsonINS4_11ordered_mapENS_6vectorENS_12basic_stringIcNS_11char_traitsIcEENS2_IcEEEEbxydS2_NS4_14adl_serializerENS7_IhNS2_IhEEEEvEEEENS_16reverse_iteratorIPSG_EEEEEENS_28__exception_guard_exceptionsIT_EESN_, symObjAddr: 0xE2B4, symBinAddr: 0x100010FC0, symSize: 0x4C }
  - { offsetInCU: 0x25542, offset: 0x25542, size: 0x8, addend: 0x0, symName: __ZNSt3__1neB8ue170006IPN8nlohmann16json_abi_v3_11_310basic_jsonINS2_11ordered_mapENS_6vectorENS_12basic_stringIcNS_11char_traitsIcEENS_9allocatorIcEEEEbxydS9_NS2_14adl_serializerENS5_IhNS9_IhEEEEvEESG_EEbRKNS_16reverse_iteratorIT_EERKNSH_IT0_EE, symObjAddr: 0xE344, symBinAddr: 0x100011050, symSize: 0x48 }
  - { offsetInCU: 0x2558F, offset: 0x2558F, size: 0x8, addend: 0x0, symName: __ZNSt3__112__to_addressB8ue170006INS_16reverse_iteratorIPN8nlohmann16json_abi_v3_11_310basic_jsonINS3_11ordered_mapENS_6vectorENS_12basic_stringIcNS_11char_traitsIcEENS_9allocatorIcEEEEbxydSA_NS3_14adl_serializerENS6_IhNSA_IhEEEEvEEEEvEEu7__decayIDTclsr19__to_address_helperIT_EE6__callclsr3stdE7declvalIRKSJ_EEEEESL_, symObjAddr: 0xE3C0, symBinAddr: 0x1000110CC, symSize: 0x24 }
  - { offsetInCU: 0x255EF, offset: 0x255EF, size: 0x8, addend: 0x0, symName: __ZNSt3__119__allocator_destroyB8ue170006INS_9allocatorIN8nlohmann16json_abi_v3_11_310basic_jsonINS3_11ordered_mapENS_6vectorENS_12basic_stringIcNS_11char_traitsIcEENS1_IcEEEEbxydS1_NS3_14adl_serializerENS6_IhNS1_IhEEEEvEEEENS_16reverse_iteratorINSH_IPSF_EEEESK_EEvRT_T0_T1_, symObjAddr: 0xE6A0, symBinAddr: 0x1000113AC, symSize: 0x70 }
  - { offsetInCU: 0x25655, offset: 0x25655, size: 0x8, addend: 0x0, symName: __ZNSt3__1neB8ue170006INS_16reverse_iteratorIPN8nlohmann16json_abi_v3_11_310basic_jsonINS3_11ordered_mapENS_6vectorENS_12basic_stringIcNS_11char_traitsIcEENS_9allocatorIcEEEEbxydSA_NS3_14adl_serializerENS6_IhNSA_IhEEEEvEEEESI_EEbRKNS1_IT_EERKNS1_IT0_EE, symObjAddr: 0xE74C, symBinAddr: 0x100011458, symSize: 0x60 }
  - { offsetInCU: 0x256A2, offset: 0x256A2, size: 0x8, addend: 0x0, symName: __ZNSt3__112__to_addressB8ue170006INS_16reverse_iteratorINS1_IPN8nlohmann16json_abi_v3_11_310basic_jsonINS3_11ordered_mapENS_6vectorENS_12basic_stringIcNS_11char_traitsIcEENS_9allocatorIcEEEEbxydSA_NS3_14adl_serializerENS6_IhNSA_IhEEEEvEEEEEEvEEu7__decayIDTclsr19__to_address_helperIT_EE6__callclsr3stdE7declvalIRKSK_EEEEESM_, symObjAddr: 0xE7D8, symBinAddr: 0x1000114E4, symSize: 0x24 }
  - { offsetInCU: 0x25703, offset: 0x25703, size: 0x8, addend: 0x0, symName: __ZNSt3__16__moveB8ue170006INS_17_ClassicAlgPolicyENS_11__wrap_iterIPN8nlohmann16json_abi_v3_11_310basic_jsonINS4_11ordered_mapENS_6vectorENS_12basic_stringIcNS_11char_traitsIcEENS_9allocatorIcEEEEbxydSB_NS4_14adl_serializerENS7_IhNSB_IhEEEEvEEEESJ_NS_20back_insert_iteratorINS7_ISH_NSB_ISH_EEEEEEEENS_4pairIT0_T2_EESP_T1_SQ_, symObjAddr: 0xEC00, symBinAddr: 0x10001190C, symSize: 0x5C }
  - { offsetInCU: 0x25770, offset: 0x25770, size: 0x8, addend: 0x0, symName: __ZNSt3__123__dispatch_copy_or_moveB8ue170006INS_17_ClassicAlgPolicyENS_11__move_loopIS1_EENS_14__move_trivialENS_11__wrap_iterIPN8nlohmann16json_abi_v3_11_310basic_jsonINS7_11ordered_mapENS_6vectorENS_12basic_stringIcNS_11char_traitsIcEENS_9allocatorIcEEEEbxydSE_NS7_14adl_serializerENSA_IhNSE_IhEEEEvEEEESM_NS_20back_insert_iteratorINSA_ISK_NSE_ISK_EEEEEEEENS_4pairIT2_T4_EESS_T3_ST_, symObjAddr: 0xEC5C, symBinAddr: 0x100011968, symSize: 0x5C }
  - { offsetInCU: 0x257EF, offset: 0x257EF, size: 0x8, addend: 0x0, symName: __ZNSt3__121__unwrap_and_dispatchB8ue170006INS_10__overloadINS_11__move_loopINS_17_ClassicAlgPolicyEEENS_14__move_trivialEEENS_11__wrap_iterIPN8nlohmann16json_abi_v3_11_310basic_jsonINS9_11ordered_mapENS_6vectorENS_12basic_stringIcNS_11char_traitsIcEENS_9allocatorIcEEEEbxydSG_NS9_14adl_serializerENSC_IhNSG_IhEEEEvEEEESO_NS_20back_insert_iteratorINSC_ISM_NSG_ISM_EEEEEELi0EEENS_4pairIT0_T2_EESU_T1_SV_, symObjAddr: 0xECB8, symBinAddr: 0x1000119C4, symSize: 0xE8 }
  - { offsetInCU: 0x2587F, offset: 0x2587F, size: 0x8, addend: 0x0, symName: __ZNSt3__114__unwrap_rangeB8ue170006INS_11__wrap_iterIPN8nlohmann16json_abi_v3_11_310basic_jsonINS3_11ordered_mapENS_6vectorENS_12basic_stringIcNS_11char_traitsIcEENS_9allocatorIcEEEEbxydSA_NS3_14adl_serializerENS6_IhNSA_IhEEEEvEEEESH_EENS_4pairIT0_SK_EET_SM_, symObjAddr: 0xEDA0, symBinAddr: 0x100011AAC, symSize: 0x70 }
  - { offsetInCU: 0x259A0, offset: 0x259A0, size: 0x8, addend: 0x0, symName: __ZNSt3__113__unwrap_iterB8ue170006INS_20back_insert_iteratorINS_6vectorIN8nlohmann16json_abi_v3_11_310basic_jsonINS4_11ordered_mapES2_NS_12basic_stringIcNS_11char_traitsIcEENS_9allocatorIcEEEEbxydSA_NS4_14adl_serializerENS2_IhNSA_IhEEEEvEENSA_ISG_EEEEEENS_18__unwrap_iter_implISJ_Lb0EEELi0EEEDTclsrT0_8__unwrapclsr3stdE7declvalIT_EEEESN_, symObjAddr: 0xEEA8, symBinAddr: 0x100011BB4, symSize: 0x34 }
  - { offsetInCU: 0x259E4, offset: 0x259E4, size: 0x8, addend: 0x0, symName: __ZNSt3__19make_pairB8ue170006INS_11__wrap_iterIPN8nlohmann16json_abi_v3_11_310basic_jsonINS3_11ordered_mapENS_6vectorENS_12basic_stringIcNS_11char_traitsIcEENS_9allocatorIcEEEEbxydSA_NS3_14adl_serializerENS6_IhNSA_IhEEEEvEEEENS_20back_insert_iteratorINS6_ISG_NSA_ISG_EEEEEEEENS_4pairINS_18__unwrap_ref_decayIT_E4typeENSO_IT0_E4typeEEEOSP_OSS_, symObjAddr: 0xEEDC, symBinAddr: 0x100011BE8, symSize: 0x38 }
  - { offsetInCU: 0x25A34, offset: 0x25A34, size: 0x8, addend: 0x0, symName: __ZNSt3__114__rewrap_rangeB8ue170006INS_11__wrap_iterIPN8nlohmann16json_abi_v3_11_310basic_jsonINS3_11ordered_mapENS_6vectorENS_12basic_stringIcNS_11char_traitsIcEENS_9allocatorIcEEEEbxydSA_NS3_14adl_serializerENS6_IhNSA_IhEEEEvEEEESH_EET_SJ_T0_, symObjAddr: 0xEF14, symBinAddr: 0x100011C20, symSize: 0x3C }
  - { offsetInCU: 0x25A81, offset: 0x25A81, size: 0x8, addend: 0x0, symName: __ZNSt3__113__rewrap_iterB8ue170006INS_20back_insert_iteratorINS_6vectorIN8nlohmann16json_abi_v3_11_310basic_jsonINS4_11ordered_mapES2_NS_12basic_stringIcNS_11char_traitsIcEENS_9allocatorIcEEEEbxydSA_NS4_14adl_serializerENS2_IhNSA_IhEEEEvEENSA_ISG_EEEEEESJ_NS_18__unwrap_iter_implISJ_Lb0EEEEET_SM_T0_, symObjAddr: 0xEF50, symBinAddr: 0x100011C5C, symSize: 0x54 }
  - { offsetInCU: 0x25AD6, offset: 0x25AD6, size: 0x8, addend: 0x0, symName: __ZNSt3__19make_pairB8ue170006IPN8nlohmann16json_abi_v3_11_310basic_jsonINS2_11ordered_mapENS_6vectorENS_12basic_stringIcNS_11char_traitsIcEENS_9allocatorIcEEEEbxydS9_NS2_14adl_serializerENS5_IhNS9_IhEEEEvEESG_EENS_4pairINS_18__unwrap_ref_decayIT_E4typeENSI_IT0_E4typeEEEOSJ_OSM_, symObjAddr: 0xEFA4, symBinAddr: 0x100011CB0, symSize: 0x38 }
  - { offsetInCU: 0x25B26, offset: 0x25B26, size: 0x8, addend: 0x0, symName: __ZNSt3__113__unwrap_iterB8ue170006INS_11__wrap_iterIPN8nlohmann16json_abi_v3_11_310basic_jsonINS3_11ordered_mapENS_6vectorENS_12basic_stringIcNS_11char_traitsIcEENS_9allocatorIcEEEEbxydSA_NS3_14adl_serializerENS6_IhNSA_IhEEEEvEEEENS_18__unwrap_iter_implISI_Lb1EEELi0EEEDTclsrT0_8__unwrapclsr3stdE7declvalIT_EEEESM_, symObjAddr: 0xEFDC, symBinAddr: 0x100011CE8, symSize: 0x2C }
  - { offsetInCU: 0x25C92, offset: 0x25C92, size: 0x8, addend: 0x0, symName: __ZNSt3__112__to_addressB8ue170006INS_11__wrap_iterIPN8nlohmann16json_abi_v3_11_310basic_jsonINS3_11ordered_mapENS_6vectorENS_12basic_stringIcNS_11char_traitsIcEENS_9allocatorIcEEEEbxydSA_NS3_14adl_serializerENS6_IhNSA_IhEEEEvEEEEvEEu7__decayIDTclsr19__to_address_helperIT_EE6__callclsr3stdE7declvalIRKSJ_EEEEESL_, symObjAddr: 0xF0A0, symBinAddr: 0x100011DAC, symSize: 0x24 }
  - { offsetInCU: 0x25D92, offset: 0x25D92, size: 0x8, addend: 0x0, symName: __ZNSt3__19make_pairB8ue170006IPN8nlohmann16json_abi_v3_11_310basic_jsonINS2_11ordered_mapENS_6vectorENS_12basic_stringIcNS_11char_traitsIcEENS_9allocatorIcEEEEbxydS9_NS2_14adl_serializerENS5_IhNS9_IhEEEEvEENS_20back_insert_iteratorINS5_ISF_NS9_ISF_EEEEEEEENS_4pairINS_18__unwrap_ref_decayIT_E4typeENSM_IT0_E4typeEEEOSN_OSQ_, symObjAddr: 0xF1C0, symBinAddr: 0x100011ECC, symSize: 0x38 }
  - { offsetInCU: 0x25EFE, offset: 0x25EFE, size: 0x8, addend: 0x0, symName: __ZNSt3__113__rewrap_iterB8ue170006INS_11__wrap_iterIPN8nlohmann16json_abi_v3_11_310basic_jsonINS3_11ordered_mapENS_6vectorENS_12basic_stringIcNS_11char_traitsIcEENS_9allocatorIcEEEEbxydSA_NS3_14adl_serializerENS6_IhNSA_IhEEEEvEEEESH_NS_18__unwrap_iter_implISI_Lb1EEEEET_SL_T0_, symObjAddr: 0xF2F8, symBinAddr: 0x100012004, symSize: 0x4C }
  - { offsetInCU: 0x25F54, offset: 0x25F54, size: 0x8, addend: 0x0, symName: __ZNSt3__1eqB8ue170006IPNS_4pairIKNS_12basic_stringIcNS_11char_traitsIcEENS_9allocatorIcEEEEN8nlohmann16json_abi_v3_11_310basic_jsonINSA_11ordered_mapENS_6vectorES7_bxydS5_NSA_14adl_serializerENSD_IhNS5_IhEEEEvEEEEEEbRKNS_11__wrap_iterIT_EESO_, symObjAddr: 0xF580, symBinAddr: 0x10001228C, symSize: 0x48 }
  - { offsetInCU: 0x25F97, offset: 0x25F97, size: 0x8, addend: 0x0, symName: __ZNSt3__112__to_addressB8ue170006INS_4pairIKNS_12basic_stringIcNS_11char_traitsIcEENS_9allocatorIcEEEEN8nlohmann16json_abi_v3_11_310basic_jsonINSA_11ordered_mapENS_6vectorES7_bxydS5_NSA_14adl_serializerENSD_IhNS5_IhEEEEvEEEEEEPT_SK_, symObjAddr: 0xFCE4, symBinAddr: 0x1000129F0, symSize: 0x14 }
  - { offsetInCU: 0x25FCC, offset: 0x25FCC, size: 0x8, addend: 0x0, symName: __ZNSt3__112__to_addressB8ue170006IhEEPT_S2_, symObjAddr: 0x106E4, symBinAddr: 0x1000133F0, symSize: 0x14 }
  - { offsetInCU: 0x26002, offset: 0x26002, size: 0x8, addend: 0x0, symName: __ZNSt3__14prevB8ue170006INS_11__wrap_iterIPNS_4pairIKNS_12basic_stringIcNS_11char_traitsIcEENS_9allocatorIcEEEEN8nlohmann16json_abi_v3_11_310basic_jsonINSB_11ordered_mapENS_6vectorES8_bxydS6_NSB_14adl_serializerENSE_IhNS6_IhEEEEvEEEEEEEENS_9enable_ifIXsr29__has_input_iterator_categoryIT_EE5valueESN_E4typeESN_NS_15iterator_traitsISN_E15difference_typeE, symObjAddr: 0x10FA0, symBinAddr: 0x100013CAC, symSize: 0x44 }
  - { offsetInCU: 0x26045, offset: 0x26045, size: 0x8, addend: 0x0, symName: __ZNSt3__1eqB8ue170006INS_9allocatorIcEEEEbRKNS_12basic_stringIcNS_11char_traitsIcEET_EES9_, symObjAddr: 0x11020, symBinAddr: 0x100013D2C, symSize: 0x148 }
  - { offsetInCU: 0x260B9, offset: 0x260B9, size: 0x8, addend: 0x0, symName: __ZNSt3__119__allocate_at_leastB8ue170006INS_9allocatorINS_4pairIKNS_12basic_stringIcNS_11char_traitsIcEENS1_IcEEEEN8nlohmann16json_abi_v3_11_310basic_jsonINSA_11ordered_mapENS_6vectorES7_bxydS1_NSA_14adl_serializerENSD_IhNS1_IhEEEEvEEEEEEEENS_19__allocation_resultINS_16allocator_traitsIT_E7pointerEEERSM_m, symObjAddr: 0x119FC, symBinAddr: 0x100014708, symSize: 0x40 }
  - { offsetInCU: 0x260FC, offset: 0x260FC, size: 0x8, addend: 0x0, symName: __ZNSt3__142__uninitialized_allocator_move_if_noexceptB8ue170006INS_9allocatorINS_4pairIKNS_12basic_stringIcNS_11char_traitsIcEENS1_IcEEEEN8nlohmann16json_abi_v3_11_310basic_jsonINSA_11ordered_mapENS_6vectorES7_bxydS1_NSA_14adl_serializerENSD_IhNS1_IhEEEEvEEEEEENS_16reverse_iteratorIPSI_EESM_SM_EET2_RT_T0_T1_SN_, symObjAddr: 0x11BB4, symBinAddr: 0x1000148C0, symSize: 0x12C }
  - { offsetInCU: 0x2619C, offset: 0x2619C, size: 0x8, addend: 0x0, symName: __ZNSt3__14swapB8ue170006IPNS_4pairIKNS_12basic_stringIcNS_11char_traitsIcEENS_9allocatorIcEEEEN8nlohmann16json_abi_v3_11_310basic_jsonINSA_11ordered_mapENS_6vectorES7_bxydS5_NSA_14adl_serializerENSD_IhNS5_IhEEEEvEEEEEENS_9enable_ifIXaasr21is_move_constructibleIT_EE5valuesr18is_move_assignableISL_EE5valueEvE4typeERSL_SO_, symObjAddr: 0x11D2C, symBinAddr: 0x100014A38, symSize: 0x3C }
  - { offsetInCU: 0x261EE, offset: 0x261EE, size: 0x8, addend: 0x0, symName: __ZNSt3__122__make_exception_guardB8ue170006INS_29_AllocatorDestroyRangeReverseINS_9allocatorINS_4pairIKNS_12basic_stringIcNS_11char_traitsIcEENS2_IcEEEEN8nlohmann16json_abi_v3_11_310basic_jsonINSB_11ordered_mapENS_6vectorES8_bxydS2_NSB_14adl_serializerENSE_IhNS2_IhEEEEvEEEEEENS_16reverse_iteratorIPSJ_EEEEEENS_28__exception_guard_exceptionsIT_EESQ_, symObjAddr: 0x11E30, symBinAddr: 0x100014B3C, symSize: 0x4C }
  - { offsetInCU: 0x26225, offset: 0x26225, size: 0x8, addend: 0x0, symName: __ZNSt3__1neB8ue170006IPNS_4pairIKNS_12basic_stringIcNS_11char_traitsIcEENS_9allocatorIcEEEEN8nlohmann16json_abi_v3_11_310basic_jsonINSA_11ordered_mapENS_6vectorES7_bxydS5_NSA_14adl_serializerENSD_IhNS5_IhEEEEvEEEESJ_EEbRKNS_16reverse_iteratorIT_EERKNSK_IT0_EE, symObjAddr: 0x11EC0, symBinAddr: 0x100014BCC, symSize: 0x48 }
  - { offsetInCU: 0x26272, offset: 0x26272, size: 0x8, addend: 0x0, symName: __ZNSt3__112__to_addressB8ue170006INS_16reverse_iteratorIPNS_4pairIKNS_12basic_stringIcNS_11char_traitsIcEENS_9allocatorIcEEEEN8nlohmann16json_abi_v3_11_310basic_jsonINSB_11ordered_mapENS_6vectorES8_bxydS6_NSB_14adl_serializerENSE_IhNS6_IhEEEEvEEEEEEvEEu7__decayIDTclsr19__to_address_helperIT_EE6__callclsr3stdE7declvalIRKSM_EEEEESO_, symObjAddr: 0x11F3C, symBinAddr: 0x100014C48, symSize: 0x24 }
  - { offsetInCU: 0x265E8, offset: 0x265E8, size: 0x8, addend: 0x0, symName: __ZNSt3__1neB8ue170006IN8nlohmann16json_abi_v3_11_311ordered_mapINS_12basic_stringIcNS_11char_traitsIcEENS_9allocatorIcEEEENS2_10basic_jsonIS3_NS_6vectorES9_bxydS7_NS2_14adl_serializerENSB_IhNS7_IhEEEEvEENS_4lessIvEENS7_INS_4pairIKS9_SF_EEEEEEZNSF_6createISM_JRKSM_EEEPT_DpOT0_EUlPSM_E_EEbRKNS_10unique_ptrISQ_T0_EEDn, symObjAddr: 0x12770, symBinAddr: 0x10001547C, symSize: 0x2C }
  - { offsetInCU: 0x26635, offset: 0x26635, size: 0x8, addend: 0x0, symName: __ZNSt3__122__make_exception_guardB8ue170006INS_6vectorINS_4pairIKNS_12basic_stringIcNS_11char_traitsIcEENS_9allocatorIcEEEEN8nlohmann16json_abi_v3_11_310basic_jsonINSB_11ordered_mapES1_S8_bxydS6_NSB_14adl_serializerENS1_IhNS6_IhEEEEvEEEENS6_ISI_EEE16__destroy_vectorEEENS_28__exception_guard_exceptionsIT_EESN_, symObjAddr: 0x12B88, symBinAddr: 0x100015894, symSize: 0x40 }
  - { offsetInCU: 0x2666A, offset: 0x2666A, size: 0x8, addend: 0x0, symName: __ZNSt3__130__uninitialized_allocator_copyB8ue170006INS_9allocatorINS_4pairIKNS_12basic_stringIcNS_11char_traitsIcEENS1_IcEEEEN8nlohmann16json_abi_v3_11_310basic_jsonINSA_11ordered_mapENS_6vectorES7_bxydS1_NSA_14adl_serializerENSD_IhNS1_IhEEEEvEEEEEEPSI_SK_SK_EET2_RT_T0_T1_SL_, symObjAddr: 0x12DA8, symBinAddr: 0x100015AB4, symSize: 0x80 }
  - { offsetInCU: 0x26708, offset: 0x26708, size: 0x8, addend: 0x0, symName: __ZNSt3__114__unwrap_rangeB8ue170006IPNS_4pairIKNS_12basic_stringIcNS_11char_traitsIcEENS_9allocatorIcEEEEN8nlohmann16json_abi_v3_11_310basic_jsonINSA_11ordered_mapENS_6vectorES7_bxydS5_NSA_14adl_serializerENSD_IhNS5_IhEEEEvEEEESJ_EENS1_IT0_SK_EET_SM_, symObjAddr: 0x12E28, symBinAddr: 0x100015B34, symSize: 0x60 }
  - { offsetInCU: 0x26754, offset: 0x26754, size: 0x8, addend: 0x0, symName: __ZNSt3__135__uninitialized_allocator_copy_implB8ue170006INS_9allocatorINS_4pairIKNS_12basic_stringIcNS_11char_traitsIcEENS1_IcEEEEN8nlohmann16json_abi_v3_11_310basic_jsonINSA_11ordered_mapENS_6vectorES7_bxydS1_NSA_14adl_serializerENSD_IhNS1_IhEEEEvEEEEEEPSI_SK_SK_EET2_RT_T0_T1_SL_, symObjAddr: 0x12E88, symBinAddr: 0x100015B94, symSize: 0xF4 }
  - { offsetInCU: 0x267F3, offset: 0x267F3, size: 0x8, addend: 0x0, symName: __ZNSt3__113__unwrap_iterB8ue170006IPNS_4pairIKNS_12basic_stringIcNS_11char_traitsIcEENS_9allocatorIcEEEEN8nlohmann16json_abi_v3_11_310basic_jsonINSA_11ordered_mapENS_6vectorES7_bxydS5_NSA_14adl_serializerENSD_IhNS5_IhEEEEvEEEENS_18__unwrap_iter_implISJ_Lb1EEELi0EEEDTclsrT0_8__unwrapclsr3stdE7declvalIT_EEEESN_, symObjAddr: 0x12F7C, symBinAddr: 0x100015C88, symSize: 0x24 }
  - { offsetInCU: 0x26838, offset: 0x26838, size: 0x8, addend: 0x0, symName: __ZNSt3__113__rewrap_iterB8ue170006IPNS_4pairIKNS_12basic_stringIcNS_11char_traitsIcEENS_9allocatorIcEEEEN8nlohmann16json_abi_v3_11_310basic_jsonINSA_11ordered_mapENS_6vectorES7_bxydS5_NSA_14adl_serializerENSD_IhNS5_IhEEEEvEEEESJ_NS_18__unwrap_iter_implISJ_Lb1EEEEET_SM_T0_, symObjAddr: 0x12FA0, symBinAddr: 0x100015CAC, symSize: 0x3C }
  - { offsetInCU: 0x2688D, offset: 0x2688D, size: 0x8, addend: 0x0, symName: __ZNSt3__19make_pairB8ue170006IPNS_4pairIKNS_12basic_stringIcNS_11char_traitsIcEENS_9allocatorIcEEEEN8nlohmann16json_abi_v3_11_310basic_jsonINSA_11ordered_mapENS_6vectorES7_bxydS5_NSA_14adl_serializerENSD_IhNS5_IhEEEEvEEEESJ_EENS1_INS_18__unwrap_ref_decayIT_E4typeENSK_IT0_E4typeEEEOSL_OSO_, symObjAddr: 0x12FDC, symBinAddr: 0x100015CE8, symSize: 0x38 }
  - { offsetInCU: 0x269B1, offset: 0x269B1, size: 0x8, addend: 0x0, symName: __ZNSt3__122__make_exception_guardB8ue170006INS_29_AllocatorDestroyRangeReverseINS_9allocatorINS_4pairIKNS_12basic_stringIcNS_11char_traitsIcEENS2_IcEEEEN8nlohmann16json_abi_v3_11_310basic_jsonINSB_11ordered_mapENS_6vectorES8_bxydS2_NSB_14adl_serializerENSE_IhNS2_IhEEEEvEEEEEEPSJ_EEEENS_28__exception_guard_exceptionsIT_EESO_, symObjAddr: 0x13084, symBinAddr: 0x100015D90, symSize: 0x4C }
  - { offsetInCU: 0x269E7, offset: 0x269E7, size: 0x8, addend: 0x0, symName: __ZNSt3__119__allocator_destroyB8ue170006INS_9allocatorINS_4pairIKNS_12basic_stringIcNS_11char_traitsIcEENS1_IcEEEEN8nlohmann16json_abi_v3_11_310basic_jsonINSA_11ordered_mapENS_6vectorES7_bxydS1_NSA_14adl_serializerENSD_IhNS1_IhEEEEvEEEEEENS_16reverse_iteratorIPSI_EESM_EEvRT_T0_T1_, symObjAddr: 0x13314, symBinAddr: 0x100016020, symSize: 0x70 }
  - { offsetInCU: 0x26DDD, offset: 0x26DDD, size: 0x8, addend: 0x0, symName: __ZNSt3__1neB8ue170006INS_6vectorIN8nlohmann16json_abi_v3_11_310basic_jsonINS3_11ordered_mapES1_NS_12basic_stringIcNS_11char_traitsIcEENS_9allocatorIcEEEEbxydS9_NS3_14adl_serializerENS1_IhNS9_IhEEEEvEENS9_ISF_EEEEZNSF_6createISH_JRKSH_EEEPT_DpOT0_EUlPSH_E_EEbRKNS_10unique_ptrISL_T0_EEDn, symObjAddr: 0x137AC, symBinAddr: 0x1000164B8, symSize: 0x2C }
  - { offsetInCU: 0x26E2A, offset: 0x26E2A, size: 0x8, addend: 0x0, symName: __ZNSt3__122__make_exception_guardB8ue170006INS_6vectorIN8nlohmann16json_abi_v3_11_310basic_jsonINS3_11ordered_mapES1_NS_12basic_stringIcNS_11char_traitsIcEENS_9allocatorIcEEEEbxydS9_NS3_14adl_serializerENS1_IhNS9_IhEEEEvEENS9_ISF_EEE16__destroy_vectorEEENS_28__exception_guard_exceptionsIT_EESK_, symObjAddr: 0x13B90, symBinAddr: 0x10001689C, symSize: 0x40 }
  - { offsetInCU: 0x26E5F, offset: 0x26E5F, size: 0x8, addend: 0x0, symName: __ZNSt3__130__uninitialized_allocator_copyB8ue170006INS_9allocatorIN8nlohmann16json_abi_v3_11_310basic_jsonINS3_11ordered_mapENS_6vectorENS_12basic_stringIcNS_11char_traitsIcEENS1_IcEEEEbxydS1_NS3_14adl_serializerENS6_IhNS1_IhEEEEvEEEEPSF_SH_SH_EET2_RT_T0_T1_SI_, symObjAddr: 0x13DA8, symBinAddr: 0x100016AB4, symSize: 0x80 }
  - { offsetInCU: 0x26EFD, offset: 0x26EFD, size: 0x8, addend: 0x0, symName: __ZNSt3__114__unwrap_rangeB8ue170006IPN8nlohmann16json_abi_v3_11_310basic_jsonINS2_11ordered_mapENS_6vectorENS_12basic_stringIcNS_11char_traitsIcEENS_9allocatorIcEEEEbxydS9_NS2_14adl_serializerENS5_IhNS9_IhEEEEvEESG_EENS_4pairIT0_SI_EET_SK_, symObjAddr: 0x13E28, symBinAddr: 0x100016B34, symSize: 0x60 }
  - { offsetInCU: 0x26F49, offset: 0x26F49, size: 0x8, addend: 0x0, symName: __ZNSt3__135__uninitialized_allocator_copy_implB8ue170006INS_9allocatorIN8nlohmann16json_abi_v3_11_310basic_jsonINS3_11ordered_mapENS_6vectorENS_12basic_stringIcNS_11char_traitsIcEENS1_IcEEEEbxydS1_NS3_14adl_serializerENS6_IhNS1_IhEEEEvEEEEPSF_SH_SH_EET2_RT_T0_T1_SI_, symObjAddr: 0x13E88, symBinAddr: 0x100016B94, symSize: 0xF4 }
  - { offsetInCU: 0x26FE8, offset: 0x26FE8, size: 0x8, addend: 0x0, symName: __ZNSt3__113__unwrap_iterB8ue170006IPN8nlohmann16json_abi_v3_11_310basic_jsonINS2_11ordered_mapENS_6vectorENS_12basic_stringIcNS_11char_traitsIcEENS_9allocatorIcEEEEbxydS9_NS2_14adl_serializerENS5_IhNS9_IhEEEEvEENS_18__unwrap_iter_implISG_Lb1EEELi0EEEDTclsrT0_8__unwrapclsr3stdE7declvalIT_EEEESK_, symObjAddr: 0x13F7C, symBinAddr: 0x100016C88, symSize: 0x24 }
  - { offsetInCU: 0x2702D, offset: 0x2702D, size: 0x8, addend: 0x0, symName: __ZNSt3__113__rewrap_iterB8ue170006IPN8nlohmann16json_abi_v3_11_310basic_jsonINS2_11ordered_mapENS_6vectorENS_12basic_stringIcNS_11char_traitsIcEENS_9allocatorIcEEEEbxydS9_NS2_14adl_serializerENS5_IhNS9_IhEEEEvEESG_NS_18__unwrap_iter_implISG_Lb1EEEEET_SJ_T0_, symObjAddr: 0x13FA0, symBinAddr: 0x100016CAC, symSize: 0x3C }
  - { offsetInCU: 0x27083, offset: 0x27083, size: 0x8, addend: 0x0, symName: __ZNSt3__122__make_exception_guardB8ue170006INS_29_AllocatorDestroyRangeReverseINS_9allocatorIN8nlohmann16json_abi_v3_11_310basic_jsonINS4_11ordered_mapENS_6vectorENS_12basic_stringIcNS_11char_traitsIcEENS2_IcEEEEbxydS2_NS4_14adl_serializerENS7_IhNS2_IhEEEEvEEEEPSG_EEEENS_28__exception_guard_exceptionsIT_EESL_, symObjAddr: 0x13FDC, symBinAddr: 0x100016CE8, symSize: 0x4C }
  - { offsetInCU: 0x270B9, offset: 0x270B9, size: 0x8, addend: 0x0, symName: __ZNSt3__119__allocator_destroyB8ue170006INS_9allocatorIN8nlohmann16json_abi_v3_11_310basic_jsonINS3_11ordered_mapENS_6vectorENS_12basic_stringIcNS_11char_traitsIcEENS1_IcEEEEbxydS1_NS3_14adl_serializerENS6_IhNS1_IhEEEEvEEEENS_16reverse_iteratorIPSF_EESJ_EEvRT_T0_T1_, symObjAddr: 0x1426C, symBinAddr: 0x100016F78, symSize: 0x70 }
  - { offsetInCU: 0x274AF, offset: 0x274AF, size: 0x8, addend: 0x0, symName: __ZNSt3__1neB8ue170006INS_12basic_stringIcNS_11char_traitsIcEENS_9allocatorIcEEEEZN8nlohmann16json_abi_v3_11_310basic_jsonINS8_11ordered_mapENS_6vectorES6_bxydS4_NS8_14adl_serializerENSB_IhNS4_IhEEEEvE6createIS6_JRKS6_EEEPT_DpOT0_EUlPS6_E_EEbRKNS_10unique_ptrISJ_T0_EEDn, symObjAddr: 0x146FC, symBinAddr: 0x100017408, symSize: 0x2C }
  - { offsetInCU: 0x2783B, offset: 0x2783B, size: 0x8, addend: 0x0, symName: __ZNSt3__1neB8ue170006IN8nlohmann16json_abi_v3_11_327byte_container_with_subtypeINS_6vectorIhNS_9allocatorIhEEEEEEZNS2_10basic_jsonINS2_11ordered_mapES4_NS_12basic_stringIcNS_11char_traitsIcEENS5_IcEEEEbxydS5_NS2_14adl_serializerES7_vE6createIS8_JRKS8_EEEPT_DpOT0_EUlPS8_E_EEbRKNS_10unique_ptrISL_T0_EEDn, symObjAddr: 0x14CA8, symBinAddr: 0x1000179B4, symSize: 0x2C }
  - { offsetInCU: 0x27888, offset: 0x27888, size: 0x8, addend: 0x0, symName: __ZNSt3__122__make_exception_guardB8ue170006INS_6vectorIhNS_9allocatorIhEEE16__destroy_vectorEEENS_28__exception_guard_exceptionsIT_EES7_, symObjAddr: 0x15134, symBinAddr: 0x100017E40, symSize: 0x40 }
  - { offsetInCU: 0x278BE, offset: 0x278BE, size: 0x8, addend: 0x0, symName: __ZNSt3__119__allocate_at_leastB8ue170006INS_9allocatorIhEEEENS_19__allocation_resultINS_16allocator_traitsIT_E7pointerEEERS5_m, symObjAddr: 0x153C8, symBinAddr: 0x1000180D4, symSize: 0x40 }
  - { offsetInCU: 0x27901, offset: 0x27901, size: 0x8, addend: 0x0, symName: __ZNSt3__130__uninitialized_allocator_copyB8ue170006INS_9allocatorIhEEPhS3_S3_EET2_RT_T0_T1_S4_, symObjAddr: 0x155E0, symBinAddr: 0x1000182EC, symSize: 0x80 }
  - { offsetInCU: 0x2799F, offset: 0x2799F, size: 0x8, addend: 0x0, symName: __ZNSt3__114__unwrap_rangeB8ue170006IPhS1_EENS_4pairIT0_S3_EET_S5_, symObjAddr: 0x156D0, symBinAddr: 0x1000183DC, symSize: 0x60 }
  - { offsetInCU: 0x279EB, offset: 0x279EB, size: 0x8, addend: 0x0, symName: __ZNSt3__135__uninitialized_allocator_copy_implB8ue170006INS_9allocatorIhEEhhhLPv0EEEPT2_RT_PT0_S9_S5_, symObjAddr: 0x15730, symBinAddr: 0x10001843C, symSize: 0x38 }
  - { offsetInCU: 0x27A6E, offset: 0x27A6E, size: 0x8, addend: 0x0, symName: __ZNSt3__113__unwrap_iterB8ue170006IPhNS_18__unwrap_iter_implIS1_Lb1EEELi0EEEDTclsrT0_8__unwrapclsr3stdE7declvalIT_EEEES5_, symObjAddr: 0x15768, symBinAddr: 0x100018474, symSize: 0x24 }
  - { offsetInCU: 0x27AB3, offset: 0x27AB3, size: 0x8, addend: 0x0, symName: __ZNSt3__113__rewrap_iterB8ue170006IPhS1_NS_18__unwrap_iter_implIS1_Lb1EEEEET_S4_T0_, symObjAddr: 0x1578C, symBinAddr: 0x100018498, symSize: 0x3C }
  - { offsetInCU: 0x27B08, offset: 0x27B08, size: 0x8, addend: 0x0, symName: __ZNSt3__19make_pairB8ue170006IPhS1_EENS_4pairINS_18__unwrap_ref_decayIT_E4typeENS3_IT0_E4typeEEEOS4_OS7_, symObjAddr: 0x157C8, symBinAddr: 0x1000184D4, symSize: 0x38 }
  - { offsetInCU: 0x27C5B, offset: 0x27C5B, size: 0x8, addend: 0x0, symName: __ZNSt3__14copyB8ue170006IPhS1_EET0_T_S3_S2_, symObjAddr: 0x15870, symBinAddr: 0x10001857C, symSize: 0x40 }
  - { offsetInCU: 0x27CB6, offset: 0x27CB6, size: 0x8, addend: 0x0, symName: __ZNSt3__16__copyB8ue170006INS_17_ClassicAlgPolicyEPhS2_S2_EENS_4pairIT0_T2_EES4_T1_S5_, symObjAddr: 0x158B0, symBinAddr: 0x1000185BC, symSize: 0x44 }
  - { offsetInCU: 0x27D23, offset: 0x27D23, size: 0x8, addend: 0x0, symName: __ZNSt3__123__dispatch_copy_or_moveB8ue170006INS_17_ClassicAlgPolicyENS_11__copy_loopIS1_EENS_14__copy_trivialEPhS5_S5_EENS_4pairIT2_T4_EES7_T3_S8_, symObjAddr: 0x158F4, symBinAddr: 0x100018600, symSize: 0x44 }
  - { offsetInCU: 0x27DA2, offset: 0x27DA2, size: 0x8, addend: 0x0, symName: __ZNSt3__121__unwrap_and_dispatchB8ue170006INS_10__overloadINS_11__copy_loopINS_17_ClassicAlgPolicyEEENS_14__copy_trivialEEEPhS7_S7_Li0EEENS_4pairIT0_T2_EES9_T1_SA_, symObjAddr: 0x15938, symBinAddr: 0x100018644, symSize: 0xB4 }
  - { offsetInCU: 0x27E77, offset: 0x27E77, size: 0x8, addend: 0x0, symName: __ZNSt3__114__rewrap_rangeB8ue170006IPhS1_EET_S2_T0_, symObjAddr: 0x15A34, symBinAddr: 0x100018740, symSize: 0x2C }
  - { offsetInCU: 0x27EC4, offset: 0x27EC4, size: 0x8, addend: 0x0, symName: __ZNSt3__119__copy_trivial_implB8ue170006IhhEENS_4pairIPT_PT0_EES3_S3_S5_, symObjAddr: 0x15A60, symBinAddr: 0x10001876C, symSize: 0x78 }
  - { offsetInCU: 0x27F2D, offset: 0x27F2D, size: 0x8, addend: 0x0, symName: __ZNSt3__119__constexpr_memmoveB8ue170006IhhLi0EEEPT_S2_PT0_NS_15__element_countE, symObjAddr: 0x15AD8, symBinAddr: 0x1000187E4, symSize: 0x64 }
  - { offsetInCU: 0x27F9B, offset: 0x27F9B, size: 0x8, addend: 0x0, symName: __ZNSt3__19make_pairB8ue170006IRPhS1_EENS_4pairINS_18__unwrap_ref_decayIT_E4typeENS4_IT0_E4typeEEEOS5_OS8_, symObjAddr: 0x15B3C, symBinAddr: 0x100018848, symSize: 0x38 }
  - { offsetInCU: 0x28067, offset: 0x28067, size: 0x8, addend: 0x0, symName: __ZNSt3__119__allocator_destroyB8ue170006INS_9allocatorINS_4pairIKNS_12basic_stringIcNS_11char_traitsIcEENS1_IcEEEEN8nlohmann16json_abi_v3_11_310basic_jsonINSA_11ordered_mapENS_6vectorES7_bxydS1_NSA_14adl_serializerENSD_IhNS1_IhEEEEvEEEEEENS_16reverse_iteratorINSK_IPSI_EEEESN_EEvRT_T0_T1_, symObjAddr: 0x15FB4, symBinAddr: 0x100018CC0, symSize: 0x70 }
  - { offsetInCU: 0x280CD, offset: 0x280CD, size: 0x8, addend: 0x0, symName: __ZNSt3__1neB8ue170006INS_16reverse_iteratorIPNS_4pairIKNS_12basic_stringIcNS_11char_traitsIcEENS_9allocatorIcEEEEN8nlohmann16json_abi_v3_11_310basic_jsonINSB_11ordered_mapENS_6vectorES8_bxydS6_NSB_14adl_serializerENSE_IhNS6_IhEEEEvEEEEEESL_EEbRKNS1_IT_EERKNS1_IT0_EE, symObjAddr: 0x16060, symBinAddr: 0x100018D6C, symSize: 0x60 }
  - { offsetInCU: 0x2811A, offset: 0x2811A, size: 0x8, addend: 0x0, symName: __ZNSt3__112__to_addressB8ue170006INS_16reverse_iteratorINS1_IPNS_4pairIKNS_12basic_stringIcNS_11char_traitsIcEENS_9allocatorIcEEEEN8nlohmann16json_abi_v3_11_310basic_jsonINSB_11ordered_mapENS_6vectorES8_bxydS6_NSB_14adl_serializerENSE_IhNS6_IhEEEEvEEEEEEEEvEEu7__decayIDTclsr19__to_address_helperIT_EE6__callclsr3stdE7declvalIRKSN_EEEEESP_, symObjAddr: 0x160C0, symBinAddr: 0x100018DCC, symSize: 0x24 }
  - { offsetInCU: 0x2817A, offset: 0x2817A, size: 0x8, addend: 0x0, symName: __ZNSt3__121__convert_to_integralB8ue170006El, symObjAddr: 0x16460, symBinAddr: 0x10001916C, symSize: 0x14 }
  - { offsetInCU: 0x281A6, offset: 0x281A6, size: 0x8, addend: 0x0, symName: __ZNSt3__19__advanceB8ue170006INS_11__wrap_iterIPNS_4pairIKNS_12basic_stringIcNS_11char_traitsIcEENS_9allocatorIcEEEEN8nlohmann16json_abi_v3_11_310basic_jsonINSB_11ordered_mapENS_6vectorES8_bxydS6_NSB_14adl_serializerENSE_IhNS6_IhEEEEvEEEEEEEEvRT_NS_15iterator_traitsISM_E15difference_typeENS_26random_access_iterator_tagE, symObjAddr: 0x16474, symBinAddr: 0x100019180, symSize: 0x2C }
  - { offsetInCU: 0x28530, offset: 0x28530, size: 0x8, addend: 0x0, symName: __ZNSt3__1neB8ue170006INS_12basic_stringIcNS_11char_traitsIcEENS_9allocatorIcEEEEZN8nlohmann16json_abi_v3_11_310basic_jsonINS8_11ordered_mapENS_6vectorES6_bxydS4_NS8_14adl_serializerENSB_IhNS4_IhEEEEvE6createIS6_JRKPKcEEEPT_DpOT0_EUlPS6_E_EEbRKNS_10unique_ptrISL_T0_EEDn, symObjAddr: 0x169E8, symBinAddr: 0x1000196F4, symSize: 0x2C }
  - { offsetInCU: 0x2857C, offset: 0x2857C, size: 0x8, addend: 0x0, symName: __ZNSt3__14swapB8ue170006IN8nlohmann16json_abi_v3_11_36detail7value_tEEENS_9enable_ifIXaasr21is_move_constructibleIT_EE5valuesr18is_move_assignableIS6_EE5valueEvE4typeERS6_S9_, symObjAddr: 0x16D44, symBinAddr: 0x100019A50, symSize: 0x3C }
  - { offsetInCU: 0x285CD, offset: 0x285CD, size: 0x8, addend: 0x0, symName: __ZNSt3__14swapB8ue170006IN8nlohmann16json_abi_v3_11_310basic_jsonINS2_11ordered_mapENS_6vectorENS_12basic_stringIcNS_11char_traitsIcEENS_9allocatorIcEEEEbxydS9_NS2_14adl_serializerENS5_IhNS9_IhEEEEvE10json_valueEEENS_9enable_ifIXaasr21is_move_constructibleIT_EE5valuesr18is_move_assignableISI_EE5valueEvE4typeERSI_SL_, symObjAddr: 0x16D80, symBinAddr: 0x100019A8C, symSize: 0x3C }
  - { offsetInCU: 0x2861E, offset: 0x2861E, size: 0x8, addend: 0x0, symName: __ZNSt3__111make_sharedB8ue170006IN8nlohmann16json_abi_v3_11_36detail21output_string_adapterIcNS_12basic_stringIcNS_11char_traitsIcEENS_9allocatorIcEEEEEEJRSA_EvEENS_10shared_ptrIT_EEDpOT0_, symObjAddr: 0x18774, symBinAddr: 0x10001B480, symSize: 0x40 }
  - { offsetInCU: 0x2887D, offset: 0x2887D, size: 0x8, addend: 0x0, symName: __ZNSt3__115allocate_sharedB8ue170006IN8nlohmann16json_abi_v3_11_36detail21output_string_adapterIcNS_12basic_stringIcNS_11char_traitsIcEENS_9allocatorIcEEEEEENS8_ISB_EEJRSA_EvEENS_10shared_ptrIT_EERKT0_DpOT1_, symObjAddr: 0x18814, symBinAddr: 0x10001B520, symSize: 0x98 }
  - { offsetInCU: 0x28C28, offset: 0x28C28, size: 0x8, addend: 0x0, symName: __ZNSt3__134__libcpp_atomic_refcount_decrementB8ue170006IlEET_RS1_, symObjAddr: 0x19480, symBinAddr: 0x10001C18C, symSize: 0x30 }
  - { offsetInCU: 0x28C5D, offset: 0x28C5D, size: 0x8, addend: 0x0, symName: __ZNSt3__134__libcpp_atomic_refcount_incrementB8ue170006IlEET_RS1_, symObjAddr: 0x195A0, symBinAddr: 0x10001C2AC, symSize: 0x30 }
  - { offsetInCU: 0x28C93, offset: 0x28C93, size: 0x8, addend: 0x0, symName: __ZNSt3__1neB8ue170006IPKNS_4pairIKNS_12basic_stringIcNS_11char_traitsIcEENS_9allocatorIcEEEEN8nlohmann16json_abi_v3_11_310basic_jsonINSA_11ordered_mapENS_6vectorES7_bxydS5_NSA_14adl_serializerENSD_IhNS5_IhEEEEvEEEEEEbRKNS_11__wrap_iterIT_EESP_, symObjAddr: 0x1A560, symBinAddr: 0x10001D26C, symSize: 0x34 }
  - { offsetInCU: 0x28CD7, offset: 0x28CD7, size: 0x8, addend: 0x0, symName: __ZNSt3__1eqB8ue170006IPKNS_4pairIKNS_12basic_stringIcNS_11char_traitsIcEENS_9allocatorIcEEEEN8nlohmann16json_abi_v3_11_310basic_jsonINSA_11ordered_mapENS_6vectorES7_bxydS5_NSA_14adl_serializerENSD_IhNS5_IhEEEEvEEEEEEbRKNS_11__wrap_iterIT_EESP_, symObjAddr: 0x1A5C0, symBinAddr: 0x10001D2CC, symSize: 0x48 }
  - { offsetInCU: 0x28D1B, offset: 0x28D1B, size: 0x8, addend: 0x0, symName: __ZNSt3__14nextB8ue170006INS_11__wrap_iterIPKNS_4pairIKNS_12basic_stringIcNS_11char_traitsIcEENS_9allocatorIcEEEEN8nlohmann16json_abi_v3_11_310basic_jsonINSB_11ordered_mapENS_6vectorES8_bxydS6_NSB_14adl_serializerENSE_IhNS6_IhEEEEvEEEEEEEENS_9enable_ifIXsr29__has_input_iterator_categoryIT_EE5valueESO_E4typeESO_NS_15iterator_traitsISO_E15difference_typeE, symObjAddr: 0x1A608, symBinAddr: 0x10001D314, symSize: 0x3C }
  - { offsetInCU: 0x28D5F, offset: 0x28D5F, size: 0x8, addend: 0x0, symName: __ZNSt3__1neB8ue170006IPKN8nlohmann16json_abi_v3_11_310basic_jsonINS2_11ordered_mapENS_6vectorENS_12basic_stringIcNS_11char_traitsIcEENS_9allocatorIcEEEEbxydS9_NS2_14adl_serializerENS5_IhNS9_IhEEEEvEEEEbRKNS_11__wrap_iterIT_EESM_, symObjAddr: 0x1A670, symBinAddr: 0x10001D37C, symSize: 0x34 }
  - { offsetInCU: 0x28DA3, offset: 0x28DA3, size: 0x8, addend: 0x0, symName: __ZNSt3__1neB8ue170006IPKhEEbRKNS_11__wrap_iterIT_EES7_, symObjAddr: 0x1A798, symBinAddr: 0x10001D4A4, symSize: 0x34 }
  - { offsetInCU: 0x28DE6, offset: 0x28DE6, size: 0x8, addend: 0x0, symName: __ZNSt3__112__to_addressB8ue170006IKNS_4pairIKNS_12basic_stringIcNS_11char_traitsIcEENS_9allocatorIcEEEEN8nlohmann16json_abi_v3_11_310basic_jsonINSA_11ordered_mapENS_6vectorES7_bxydS5_NSA_14adl_serializerENSD_IhNS5_IhEEEEvEEEEEEPT_SL_, symObjAddr: 0x1BB00, symBinAddr: 0x10001E80C, symSize: 0x14 }
  - { offsetInCU: 0x28E1B, offset: 0x28E1B, size: 0x8, addend: 0x0, symName: __ZNSt3__19__advanceB8ue170006INS_11__wrap_iterIPKNS_4pairIKNS_12basic_stringIcNS_11char_traitsIcEENS_9allocatorIcEEEEN8nlohmann16json_abi_v3_11_310basic_jsonINSB_11ordered_mapENS_6vectorES8_bxydS6_NSB_14adl_serializerENSE_IhNS6_IhEEEEvEEEEEEEEvRT_NS_15iterator_traitsISN_E15difference_typeENS_26random_access_iterator_tagE, symObjAddr: 0x1BB94, symBinAddr: 0x10001E8A0, symSize: 0x2C }
  - { offsetInCU: 0x28E66, offset: 0x28E66, size: 0x8, addend: 0x0, symName: __ZNSt3__1eqB8ue170006IPKN8nlohmann16json_abi_v3_11_310basic_jsonINS2_11ordered_mapENS_6vectorENS_12basic_stringIcNS_11char_traitsIcEENS_9allocatorIcEEEEbxydS9_NS2_14adl_serializerENS5_IhNS9_IhEEEEvEEEEbRKNS_11__wrap_iterIT_EESM_, symObjAddr: 0x1BCA4, symBinAddr: 0x10001E9B0, symSize: 0x48 }
  - { offsetInCU: 0x28EAA, offset: 0x28EAA, size: 0x8, addend: 0x0, symName: __ZNSt3__1eqB8ue170006IPKhEEbRKNS_11__wrap_iterIT_EES7_, symObjAddr: 0x1BE4C, symBinAddr: 0x10001EB58, symSize: 0x48 }
  - { offsetInCU: 0x292C9, offset: 0x292C9, size: 0x8, addend: 0x0, symName: __ZNSt3__122__make_exception_guardB8ue170006INS_6vectorI15TimeRecordStartNS_9allocatorIS2_EEE16__destroy_vectorEEENS_28__exception_guard_exceptionsIT_EES8_, symObjAddr: 0x1E180, symBinAddr: 0x100020E8C, symSize: 0x40 }
  - { offsetInCU: 0x292FE, offset: 0x292FE, size: 0x8, addend: 0x0, symName: __ZNSt3__130__uninitialized_allocator_copyB8ue170006INS_9allocatorI15TimeRecordStartEEPS2_S4_S4_EET2_RT_T0_T1_S5_, symObjAddr: 0x1E398, symBinAddr: 0x1000210A4, symSize: 0x80 }
  - { offsetInCU: 0x2939B, offset: 0x2939B, size: 0x8, addend: 0x0, symName: __ZNSt3__135__uninitialized_allocator_copy_implB8ue170006INS_9allocatorI15TimeRecordStartEEPS2_S4_S4_EET2_RT_T0_T1_S5_, symObjAddr: 0x1E418, symBinAddr: 0x100021124, symSize: 0xF4 }
  - { offsetInCU: 0x2943A, offset: 0x2943A, size: 0x8, addend: 0x0, symName: __ZNSt3__122__make_exception_guardB8ue170006INS_29_AllocatorDestroyRangeReverseINS_9allocatorI15TimeRecordStartEEPS3_EEEENS_28__exception_guard_exceptionsIT_EES8_, symObjAddr: 0x1E50C, symBinAddr: 0x100021218, symSize: 0x4C }
  - { offsetInCU: 0x29470, offset: 0x29470, size: 0x8, addend: 0x0, symName: __ZNSt3__119__allocator_destroyB8ue170006INS_9allocatorI15TimeRecordStartEENS_16reverse_iteratorIPS2_EES6_EEvRT_T0_T1_, symObjAddr: 0x1E794, symBinAddr: 0x1000214A0, symSize: 0x70 }
  - { offsetInCU: 0x294D4, offset: 0x294D4, size: 0x8, addend: 0x0, symName: __ZNSt3__122__make_exception_guardB8ue170006INS_6vectorI14TimeRecordStopNS_9allocatorIS2_EEE16__destroy_vectorEEENS_28__exception_guard_exceptionsIT_EES8_, symObjAddr: 0x1EA40, symBinAddr: 0x10002174C, symSize: 0x40 }
  - { offsetInCU: 0x29509, offset: 0x29509, size: 0x8, addend: 0x0, symName: __ZNSt3__130__uninitialized_allocator_copyB8ue170006INS_9allocatorI14TimeRecordStopEEPS2_S4_S4_EET2_RT_T0_T1_S5_, symObjAddr: 0x1EC60, symBinAddr: 0x10002196C, symSize: 0x80 }
  - { offsetInCU: 0x295A7, offset: 0x295A7, size: 0x8, addend: 0x0, symName: __ZNSt3__114__unwrap_rangeB8ue170006IP14TimeRecordStopS2_EENS_4pairIT0_S4_EET_S6_, symObjAddr: 0x1ECE0, symBinAddr: 0x1000219EC, symSize: 0x60 }
  - { offsetInCU: 0x295F3, offset: 0x295F3, size: 0x8, addend: 0x0, symName: __ZNSt3__135__uninitialized_allocator_copy_implB8ue170006INS_9allocatorI14TimeRecordStopEEPS2_S4_S4_EET2_RT_T0_T1_S5_, symObjAddr: 0x1ED40, symBinAddr: 0x100021A4C, symSize: 0xF4 }
  - { offsetInCU: 0x29692, offset: 0x29692, size: 0x8, addend: 0x0, symName: __ZNSt3__113__unwrap_iterB8ue170006IP14TimeRecordStopNS_18__unwrap_iter_implIS2_Lb1EEELi0EEEDTclsrT0_8__unwrapclsr3stdE7declvalIT_EEEES6_, symObjAddr: 0x1EE34, symBinAddr: 0x100021B40, symSize: 0x24 }
  - { offsetInCU: 0x296D7, offset: 0x296D7, size: 0x8, addend: 0x0, symName: __ZNSt3__113__rewrap_iterB8ue170006IP14TimeRecordStopS2_NS_18__unwrap_iter_implIS2_Lb1EEEEET_S5_T0_, symObjAddr: 0x1EE58, symBinAddr: 0x100021B64, symSize: 0x3C }
  - { offsetInCU: 0x2972C, offset: 0x2972C, size: 0x8, addend: 0x0, symName: __ZNSt3__19make_pairB8ue170006IP14TimeRecordStopS2_EENS_4pairINS_18__unwrap_ref_decayIT_E4typeENS4_IT0_E4typeEEEOS5_OS8_, symObjAddr: 0x1EE94, symBinAddr: 0x100021BA0, symSize: 0x38 }
  - { offsetInCU: 0x29850, offset: 0x29850, size: 0x8, addend: 0x0, symName: __ZNSt3__122__make_exception_guardB8ue170006INS_29_AllocatorDestroyRangeReverseINS_9allocatorI14TimeRecordStopEEPS3_EEEENS_28__exception_guard_exceptionsIT_EES8_, symObjAddr: 0x1EF3C, symBinAddr: 0x100021C48, symSize: 0x4C }
  - { offsetInCU: 0x29886, offset: 0x29886, size: 0x8, addend: 0x0, symName: __ZNSt3__119__allocator_destroyB8ue170006INS_9allocatorI14TimeRecordStopEENS_16reverse_iteratorIPS2_EES6_EEvRT_T0_T1_, symObjAddr: 0x1F1D0, symBinAddr: 0x100021EDC, symSize: 0x70 }
  - { offsetInCU: 0x2993C, offset: 0x2993C, size: 0x8, addend: 0x0, symName: __ZNSt3__1neB8ue170006ERKNS_20__map_const_iteratorINS_21__tree_const_iteratorINS_12__value_typeIPKcP13ProfilerStatsEEPNS_11__tree_nodeIS7_PvEElEEEESF_, symObjAddr: 0x1F714, symBinAddr: 0x100022420, symSize: 0x30 }
  - { offsetInCU: 0x29979, offset: 0x29979, size: 0x8, addend: 0x0, symName: __ZNSt3__1neB8ue170006ERKNS_21__tree_const_iteratorINS_12__value_typeIPKcP13ProfilerStatsEEPNS_11__tree_nodeIS6_PvEElEESD_, symObjAddr: 0x1F81C, symBinAddr: 0x100022528, symSize: 0x34 }
  - { offsetInCU: 0x299B6, offset: 0x299B6, size: 0x8, addend: 0x0, symName: __ZNSt3__1eqB8ue170006ERKNS_21__tree_const_iteratorINS_12__value_typeIPKcP13ProfilerStatsEEPNS_11__tree_nodeIS6_PvEElEESD_, symObjAddr: 0x1F850, symBinAddr: 0x10002255C, symSize: 0x30 }
  - { offsetInCU: 0x29A18, offset: 0x29A18, size: 0x8, addend: 0x0, symName: __ZNSt3__14nextB8ue170006INS_21__tree_const_iteratorINS_12__value_typeIPKcP13ProfilerStatsEEPNS_11__tree_nodeIS7_PvEElEEEENS_9enable_ifIXsr29__has_input_iterator_categoryIT_EE5valueESE_E4typeESE_NS_15iterator_traitsISE_E15difference_typeE, symObjAddr: 0x1FEA4, symBinAddr: 0x100022BB0, symSize: 0x3C }
  - { offsetInCU: 0x29A5C, offset: 0x29A5C, size: 0x8, addend: 0x0, symName: __ZNSt3__116__tree_prev_iterB8ue170006IPNS_16__tree_node_baseIPvEEPNS_15__tree_end_nodeIS4_EEEET_T0_, symObjAddr: 0x1FF18, symBinAddr: 0x100022C24, symSize: 0x88 }
  - { offsetInCU: 0x29AA8, offset: 0x29AA8, size: 0x8, addend: 0x0, symName: __ZNSt3__110__tree_maxB8ue170006IPNS_16__tree_node_baseIPvEEEET_S5_, symObjAddr: 0x1FFA0, symBinAddr: 0x100022CAC, symSize: 0x40 }
  - { offsetInCU: 0x29ADD, offset: 0x29ADD, size: 0x8, addend: 0x0, symName: __ZNSt3__19__advanceB8ue170006INS_21__tree_const_iteratorINS_12__value_typeIPKcP13ProfilerStatsEEPNS_11__tree_nodeIS7_PvEElEEEEvRT_NS_15iterator_traitsISD_E15difference_typeENS_26bidirectional_iterator_tagE, symObjAddr: 0x20018, symBinAddr: 0x100022D24, symSize: 0xA4 }
  - { offsetInCU: 0x2A97E, offset: 0x2A97E, size: 0x8, addend: 0x0, symName: __ZSt28__throw_bad_array_new_lengthB8ue170006v, symObjAddr: 0x46F8, symBinAddr: 0x100007404, symSize: 0x34 }
  - { offsetInCU: 0x2B5A8, offset: 0x2B5A8, size: 0x8, addend: 0x0, symName: __ZN8nlohmann16json_abi_v3_11_36detail12static_constINS1_10to_json_fnEE5valueE, symObjAddr: 0x2199B, symBinAddr: 0x100028593, symSize: 0x0 }
  - { offsetInCU: 0x2C3C8, offset: 0x2C3C8, size: 0x8, addend: 0x0, symName: __ZN8nlohmann16json_abi_v3_11_36detail9dtoa_impl36get_cached_power_for_binary_exponentEi, symObjAddr: 0x1CFA8, symBinAddr: 0x10001FCB4, symSize: 0x22C }
  - { offsetInCU: 0x2C3F4, offset: 0x2C3F4, size: 0x8, addend: 0x0, symName: __ZZN8nlohmann16json_abi_v3_11_36detail9dtoa_impl36get_cached_power_for_binary_exponentEiE13kCachedPowers, symObjAddr: 0x21EE8, symBinAddr: 0x100028AE0, symSize: 0x0 }
  - { offsetInCU: 0x2C4C7, offset: 0x2C4C7, size: 0x8, addend: 0x0, symName: __ZN8nlohmann16json_abi_v3_11_36detail9dtoa_impl6grisu2IdEEvPcRiS5_T_, symObjAddr: 0x1C51C, symBinAddr: 0x10001F228, symSize: 0xEC }
  - { offsetInCU: 0x2C537, offset: 0x2C537, size: 0x8, addend: 0x0, symName: __ZN8nlohmann16json_abi_v3_11_36detail9dtoa_impl13format_bufferEPciiii, symObjAddr: 0x1C608, symBinAddr: 0x10001F314, symSize: 0x36C }
  - { offsetInCU: 0x2C5BF, offset: 0x2C5BF, size: 0x8, addend: 0x0, symName: __ZN8nlohmann16json_abi_v3_11_36detail9dtoa_impl18compute_boundariesIdEENS2_10boundariesET_, symObjAddr: 0x1C974, symBinAddr: 0x10001F680, symSize: 0x24C }
  - { offsetInCU: 0x2C6CD, offset: 0x2C6CD, size: 0x8, addend: 0x0, symName: __ZN8nlohmann16json_abi_v3_11_36detail9dtoa_impl6grisu2EPcRiS4_NS2_5diyfpES5_S5_, symObjAddr: 0x1CBC0, symBinAddr: 0x10001F8CC, symSize: 0x1C0 }
  - { offsetInCU: 0x2C7B5, offset: 0x2C7B5, size: 0x8, addend: 0x0, symName: __ZN8nlohmann16json_abi_v3_11_36detail9dtoa_impl16reinterpret_bitsIydEET_T0_, symObjAddr: 0x1CD80, symBinAddr: 0x10001FA8C, symSize: 0x1C }
  - { offsetInCU: 0x2C8B7, offset: 0x2C8B7, size: 0x8, addend: 0x0, symName: __ZN8nlohmann16json_abi_v3_11_36detail9dtoa_impl16grisu2_digit_genEPcRiS4_NS2_5diyfpES5_S5_, symObjAddr: 0x1D314, symBinAddr: 0x100020020, symSize: 0x4A4 }
  - { offsetInCU: 0x2CA55, offset: 0x2CA55, size: 0x8, addend: 0x0, symName: __ZN8nlohmann16json_abi_v3_11_36detail9dtoa_impl18find_largest_pow10EjRj, symObjAddr: 0x1D8D4, symBinAddr: 0x1000205E0, symSize: 0x1F8 }
  - { offsetInCU: 0x2CA92, offset: 0x2CA92, size: 0x8, addend: 0x0, symName: __ZN8nlohmann16json_abi_v3_11_36detail9dtoa_impl12grisu2_roundEPciyyyy, symObjAddr: 0x1DACC, symBinAddr: 0x1000207D8, symSize: 0x24C }
  - { offsetInCU: 0x2CB07, offset: 0x2CB07, size: 0x8, addend: 0x0, symName: __ZN8nlohmann16json_abi_v3_11_36detail9dtoa_impl15append_exponentEPci, symObjAddr: 0x1DD34, symBinAddr: 0x100020A40, symSize: 0x220 }
  - { offsetInCU: 0x2D58D, offset: 0x2D58D, size: 0x8, addend: 0x0, symName: __ZN8nlohmann16json_abi_v3_11_36detail6concatINSt3__112basic_stringIcNS3_11char_traitsIcEENS3_9allocatorIcEEEEJS9_S9_RKS9_EEET_DpOT0_, symObjAddr: 0xC25C, symBinAddr: 0x10000EF68, symSize: 0xD8 }
  - { offsetInCU: 0x2D607, offset: 0x2D607, size: 0x8, addend: 0x0, symName: __ZN8nlohmann16json_abi_v3_11_36detail13concat_lengthINSt3__112basic_stringIcNS3_11char_traitsIcEENS3_9allocatorIcEEEEJS9_S9_EEEmRKT_DpRKT0_, symObjAddr: 0xC49C, symBinAddr: 0x10000F1A8, symSize: 0x48 }
  - { offsetInCU: 0x2D66C, offset: 0x2D66C, size: 0x8, addend: 0x0, symName: __ZN8nlohmann16json_abi_v3_11_36detail11concat_intoINSt3__112basic_stringIcNS3_11char_traitsIcEENS3_9allocatorIcEEEES9_JS9_RKS9_ELi0EEEvRT_OT0_DpOT1_, symObjAddr: 0xC4E4, symBinAddr: 0x10000F1F0, symSize: 0x44 }
  - { offsetInCU: 0x2D6EB, offset: 0x2D6EB, size: 0x8, addend: 0x0, symName: __ZN8nlohmann16json_abi_v3_11_36detail13concat_lengthINSt3__112basic_stringIcNS3_11char_traitsIcEENS3_9allocatorIcEEEEJS9_EEEmRKT_DpRKT0_, symObjAddr: 0xC5B0, symBinAddr: 0x10000F2BC, symSize: 0x40 }
  - { offsetInCU: 0x2D73C, offset: 0x2D73C, size: 0x8, addend: 0x0, symName: __ZN8nlohmann16json_abi_v3_11_36detail13concat_lengthINSt3__112basic_stringIcNS3_11char_traitsIcEENS3_9allocatorIcEEEEJEEEmRKT_DpRKT0_, symObjAddr: 0xC5F0, symBinAddr: 0x10000F2FC, symSize: 0x38 }
  - { offsetInCU: 0x2D779, offset: 0x2D779, size: 0x8, addend: 0x0, symName: __ZN8nlohmann16json_abi_v3_11_36detail13concat_lengthEv, symObjAddr: 0xC628, symBinAddr: 0x10000F334, symSize: 0x8 }
  - { offsetInCU: 0x2D797, offset: 0x2D797, size: 0x8, addend: 0x0, symName: __ZN8nlohmann16json_abi_v3_11_36detail11concat_intoINSt3__112basic_stringIcNS3_11char_traitsIcEENS3_9allocatorIcEEEES9_JRKS9_ELi0EEEvRT_OT0_DpOT1_, symObjAddr: 0xC67C, symBinAddr: 0x10000F388, symSize: 0x3C }
  - { offsetInCU: 0x2D802, offset: 0x2D802, size: 0x8, addend: 0x0, symName: __ZN8nlohmann16json_abi_v3_11_36detail11concat_intoINSt3__112basic_stringIcNS3_11char_traitsIcEENS3_9allocatorIcEEEERKS9_JELi0EEEvRT_OT0_DpOT1_, symObjAddr: 0xC6B8, symBinAddr: 0x10000F3C4, symSize: 0x34 }
  - { offsetInCU: 0x2D859, offset: 0x2D859, size: 0x8, addend: 0x0, symName: __ZN8nlohmann16json_abi_v3_11_36detail11concat_intoINSt3__112basic_stringIcNS3_11char_traitsIcEENS3_9allocatorIcEEEEEEvRT_, symObjAddr: 0xC6EC, symBinAddr: 0x10000F3F8, symSize: 0x10 }
  - { offsetInCU: 0x2D889, offset: 0x2D889, size: 0x8, addend: 0x0, symName: __ZN8nlohmann16json_abi_v3_11_36detail6concatINSt3__112basic_stringIcNS3_11char_traitsIcEENS3_9allocatorIcEEEEJRA17_KcRKS9_cS9_RA3_SA_EEET_DpOT0_, symObjAddr: 0xC6FC, symBinAddr: 0x10000F408, symSize: 0xF0 }
  - { offsetInCU: 0x2D92B, offset: 0x2D92B, size: 0x8, addend: 0x0, symName: __ZN8nlohmann16json_abi_v3_11_36detail13concat_lengthIJNSt3__112basic_stringIcNS3_11char_traitsIcEENS3_9allocatorIcEEEEcS9_A3_cEEEmPKcDpRKT_, symObjAddr: 0xC7EC, symBinAddr: 0x10000F4F8, symSize: 0x58 }
  - { offsetInCU: 0x2D9AF, offset: 0x2D9AF, size: 0x8, addend: 0x0, symName: __ZN8nlohmann16json_abi_v3_11_36detail11concat_intoINSt3__112basic_stringIcNS3_11char_traitsIcEENS3_9allocatorIcEEEERA17_KcJRKS9_cS9_RA3_SA_ELi0EEEvRT_OT0_DpOT1_, symObjAddr: 0xC844, symBinAddr: 0x10000F550, symSize: 0x54 }
  - { offsetInCU: 0x2DA56, offset: 0x2DA56, size: 0x8, addend: 0x0, symName: __ZN8nlohmann16json_abi_v3_11_36detail13concat_lengthINSt3__112basic_stringIcNS3_11char_traitsIcEENS3_9allocatorIcEEEEJcS9_A3_cEEEmRKT_DpRKT0_, symObjAddr: 0xC898, symBinAddr: 0x10000F5A4, symSize: 0x54 }
  - { offsetInCU: 0x2DACF, offset: 0x2DACF, size: 0x8, addend: 0x0, symName: __ZN8nlohmann16json_abi_v3_11_36detail13concat_lengthIJNSt3__112basic_stringIcNS3_11char_traitsIcEENS3_9allocatorIcEEEEA3_cEEEmcDpRKT_, symObjAddr: 0xC8EC, symBinAddr: 0x10000F5F8, symSize: 0x34 }
  - { offsetInCU: 0x2DB28, offset: 0x2DB28, size: 0x8, addend: 0x0, symName: __ZN8nlohmann16json_abi_v3_11_36detail13concat_lengthINSt3__112basic_stringIcNS3_11char_traitsIcEENS3_9allocatorIcEEEEJA3_cEEEmRKT_DpRKT0_, symObjAddr: 0xC920, symBinAddr: 0x10000F62C, symSize: 0x40 }
  - { offsetInCU: 0x2DB79, offset: 0x2DB79, size: 0x8, addend: 0x0, symName: __ZN8nlohmann16json_abi_v3_11_36detail13concat_lengthIJEEEmPKcDpRKT_, symObjAddr: 0xC960, symBinAddr: 0x10000F66C, symSize: 0x38 }
  - { offsetInCU: 0x2DBAC, offset: 0x2DBAC, size: 0x8, addend: 0x0, symName: __ZN8nlohmann16json_abi_v3_11_36detail11concat_intoINSt3__112basic_stringIcNS3_11char_traitsIcEENS3_9allocatorIcEEEERKS9_JcS9_RA3_KcELi0EEEvRT_OT0_DpOT1_, symObjAddr: 0xC998, symBinAddr: 0x10000F6A4, symSize: 0x4C }
  - { offsetInCU: 0x2DC3F, offset: 0x2DC3F, size: 0x8, addend: 0x0, symName: __ZN8nlohmann16json_abi_v3_11_36detail11concat_intoINSt3__112basic_stringIcNS3_11char_traitsIcEENS3_9allocatorIcEEEEcJS9_RA3_KcELi0EEEvRT_OT0_DpOT1_, symObjAddr: 0xC9E4, symBinAddr: 0x10000F6F0, symSize: 0x48 }
  - { offsetInCU: 0x2DCBE, offset: 0x2DCBE, size: 0x8, addend: 0x0, symName: __ZN8nlohmann16json_abi_v3_11_36detail11concat_intoINSt3__112basic_stringIcNS3_11char_traitsIcEENS3_9allocatorIcEEEES9_JRA3_KcELi0EEEvRT_OT0_DpOT1_, symObjAddr: 0xCA60, symBinAddr: 0x10000F76C, symSize: 0x3C }
  - { offsetInCU: 0x2DD29, offset: 0x2DD29, size: 0x8, addend: 0x0, symName: __ZN8nlohmann16json_abi_v3_11_36detail11concat_intoINSt3__112basic_stringIcNS3_11char_traitsIcEENS3_9allocatorIcEEEERA3_KcJELi0EEEvRT_OT0_DpOT1_, symObjAddr: 0xCA9C, symBinAddr: 0x10000F7A8, symSize: 0x34 }
  - { offsetInCU: 0x2DE21, offset: 0x2DE21, size: 0x8, addend: 0x0, symName: __ZN8nlohmann16json_abi_v3_11_36detail6concatINSt3__112basic_stringIcNS3_11char_traitsIcEENS3_9allocatorIcEEEEJRA51_KcPSA_EEET_DpOT0_, symObjAddr: 0x10CB8, symBinAddr: 0x1000139C4, symSize: 0xCC }
  - { offsetInCU: 0x2DE87, offset: 0x2DE87, size: 0x8, addend: 0x0, symName: __ZN8nlohmann16json_abi_v3_11_36detail13concat_lengthIJPKcEEEmS4_DpRKT_, symObjAddr: 0x16604, symBinAddr: 0x100019310, symSize: 0x44 }
  - { offsetInCU: 0x2DECF, offset: 0x2DECF, size: 0x8, addend: 0x0, symName: __ZN8nlohmann16json_abi_v3_11_36detail11concat_intoINSt3__112basic_stringIcNS3_11char_traitsIcEENS3_9allocatorIcEEEERA51_KcJPSA_ELi0EEEvRT_OT0_DpOT1_, symObjAddr: 0x16648, symBinAddr: 0x100019354, symSize: 0x3C }
  - { offsetInCU: 0x2DF3A, offset: 0x2DF3A, size: 0x8, addend: 0x0, symName: __ZN8nlohmann16json_abi_v3_11_36detail11concat_intoINSt3__112basic_stringIcNS3_11char_traitsIcEENS3_9allocatorIcEEEEPKcJELi0EEEvRT_OT0_DpOT1_, symObjAddr: 0x16684, symBinAddr: 0x100019390, symSize: 0x38 }
  - { offsetInCU: 0x2DF90, offset: 0x2DF90, size: 0x8, addend: 0x0, symName: __ZN8nlohmann16json_abi_v3_11_36detail7to_jsonINS0_10basic_jsonINS0_11ordered_mapENSt3__16vectorENS5_12basic_stringIcNS5_11char_traitsIcEENS5_9allocatorIcEEEEbxydSA_NS0_14adl_serializerENS6_IhNSA_IhEEEEvEEPKcLi0EEEvRT_RKT0_, symObjAddr: 0x167D0, symBinAddr: 0x1000194DC, symSize: 0x2C }
  - { offsetInCU: 0x2E021, offset: 0x2E021, size: 0x8, addend: 0x0, symName: __ZN8nlohmann16json_abi_v3_11_36detail7to_jsonINS0_10basic_jsonINS0_11ordered_mapENSt3__16vectorENS5_12basic_stringIcNS5_11char_traitsIcEENS5_9allocatorIcEEEEbxydSA_NS0_14adl_serializerENS6_IhNSA_IhEEEEvEEiLi0EEEvRT_T0_, symObjAddr: 0x16E80, symBinAddr: 0x100019B8C, symSize: 0x2C }
  - { offsetInCU: 0x2E0A3, offset: 0x2E0A3, size: 0x8, addend: 0x0, symName: __ZN8nlohmann16json_abi_v3_11_36detail7to_jsonINS0_10basic_jsonINS0_11ordered_mapENSt3__16vectorENS5_12basic_stringIcNS5_11char_traitsIcEENS5_9allocatorIcEEEEbxydSA_NS0_14adl_serializerENS6_IhNSA_IhEEEEvEEdLi0EEEvRT_T0_, symObjAddr: 0x16FE0, symBinAddr: 0x100019CEC, symSize: 0x2C }
  - { offsetInCU: 0x2E125, offset: 0x2E125, size: 0x8, addend: 0x0, symName: __ZN8nlohmann16json_abi_v3_11_36detail6concatINSt3__112basic_stringIcNS3_11char_traitsIcEENS3_9allocatorIcEEEEJRA29_KcPSA_EEET_DpOT0_, symObjAddr: 0x17228, symBinAddr: 0x100019F34, symSize: 0xC4 }
  - { offsetInCU: 0x2E18B, offset: 0x2E18B, size: 0x8, addend: 0x0, symName: __ZN8nlohmann16json_abi_v3_11_36detail11concat_intoINSt3__112basic_stringIcNS3_11char_traitsIcEENS3_9allocatorIcEEEERA29_KcJPSA_ELi0EEEvRT_OT0_DpOT1_, symObjAddr: 0x17358, symBinAddr: 0x10001A064, symSize: 0x3C }
  - { offsetInCU: 0x2E1F6, offset: 0x2E1F6, size: 0x8, addend: 0x0, symName: __ZN8nlohmann16json_abi_v3_11_36detail6concatINSt3__112basic_stringIcNS3_11char_traitsIcEENS3_9allocatorIcEEEEJRA29_KcS9_RA5_SA_S9_EEET_DpOT0_, symObjAddr: 0x1B580, symBinAddr: 0x10001E28C, symSize: 0xE4 }
  - { offsetInCU: 0x2E67B, offset: 0x2E67B, size: 0x8, addend: 0x0, symName: __ZN8nlohmann16json_abi_v3_11_36detail6concatINSt3__112basic_stringIcNS3_11char_traitsIcEENS3_9allocatorIcEEEEJRA39_KcS9_EEET_DpOT0_, symObjAddr: 0x1B774, symBinAddr: 0x10001E480, symSize: 0xCC }
  - { offsetInCU: 0x2E6E1, offset: 0x2E6E1, size: 0x8, addend: 0x0, symName: __ZN8nlohmann16json_abi_v3_11_36detail13concat_lengthIJNSt3__112basic_stringIcNS3_11char_traitsIcEENS3_9allocatorIcEEEEA5_cS9_EEEmPKcDpRKT_, symObjAddr: 0x1B8BC, symBinAddr: 0x10001E5C8, symSize: 0x50 }
  - { offsetInCU: 0x2E751, offset: 0x2E751, size: 0x8, addend: 0x0, symName: __ZN8nlohmann16json_abi_v3_11_36detail11concat_intoINSt3__112basic_stringIcNS3_11char_traitsIcEENS3_9allocatorIcEEEERA29_KcJS9_RA5_SA_S9_ELi0EEEvRT_OT0_DpOT1_, symObjAddr: 0x1B90C, symBinAddr: 0x10001E618, symSize: 0x4C }
  - { offsetInCU: 0x2E7E4, offset: 0x2E7E4, size: 0x8, addend: 0x0, symName: __ZN8nlohmann16json_abi_v3_11_36detail13concat_lengthINSt3__112basic_stringIcNS3_11char_traitsIcEENS3_9allocatorIcEEEEJA5_cS9_EEEmRKT_DpRKT0_, symObjAddr: 0x1B958, symBinAddr: 0x10001E664, symSize: 0x48 }
  - { offsetInCU: 0x2E849, offset: 0x2E849, size: 0x8, addend: 0x0, symName: __ZN8nlohmann16json_abi_v3_11_36detail13concat_lengthIJNSt3__112basic_stringIcNS3_11char_traitsIcEENS3_9allocatorIcEEEEEEEmPKcDpRKT_, symObjAddr: 0x1B9A0, symBinAddr: 0x10001E6AC, symSize: 0x40 }
  - { offsetInCU: 0x2E891, offset: 0x2E891, size: 0x8, addend: 0x0, symName: __ZN8nlohmann16json_abi_v3_11_36detail11concat_intoINSt3__112basic_stringIcNS3_11char_traitsIcEENS3_9allocatorIcEEEES9_JRA5_KcS9_ELi0EEEvRT_OT0_DpOT1_, symObjAddr: 0x1B9E0, symBinAddr: 0x10001E6EC, symSize: 0x44 }
  - { offsetInCU: 0x2E910, offset: 0x2E910, size: 0x8, addend: 0x0, symName: __ZN8nlohmann16json_abi_v3_11_36detail11concat_intoINSt3__112basic_stringIcNS3_11char_traitsIcEENS3_9allocatorIcEEEERA5_KcJS9_ELi0EEEvRT_OT0_DpOT1_, symObjAddr: 0x1BA24, symBinAddr: 0x10001E730, symSize: 0x3C }
  - { offsetInCU: 0x2E97B, offset: 0x2E97B, size: 0x8, addend: 0x0, symName: __ZN8nlohmann16json_abi_v3_11_36detail11concat_intoINSt3__112basic_stringIcNS3_11char_traitsIcEENS3_9allocatorIcEEEES9_JELi0EEEvRT_OT0_DpOT1_, symObjAddr: 0x1BA60, symBinAddr: 0x10001E76C, symSize: 0x34 }
  - { offsetInCU: 0x2E9D1, offset: 0x2E9D1, size: 0x8, addend: 0x0, symName: __ZN8nlohmann16json_abi_v3_11_36detail11concat_intoINSt3__112basic_stringIcNS3_11char_traitsIcEENS3_9allocatorIcEEEERA39_KcJS9_ELi0EEEvRT_OT0_DpOT1_, symObjAddr: 0x1BAC4, symBinAddr: 0x10001E7D0, symSize: 0x3C }
  - { offsetInCU: 0x2EA3C, offset: 0x2EA3C, size: 0x8, addend: 0x0, symName: __ZN8nlohmann16json_abi_v3_11_36detail8to_charsIdEEPcS3_PKcT_, symObjAddr: 0x1C28C, symBinAddr: 0x10001EF98, symSize: 0x26C }
  - { offsetInCU: 0x32B92, offset: 0x32B92, size: 0x8, addend: 0x0, symName: __ZN8nlohmann16json_abi_v3_11_36detail10serializerINS0_10basic_jsonINS0_11ordered_mapENSt3__16vectorENS5_12basic_stringIcNS5_11char_traitsIcEENS5_9allocatorIcEEEEbxydSA_NS0_14adl_serializerENS6_IhNSA_IhEEEEvEEE6decodeERhRjh, symObjAddr: 0x1B288, symBinAddr: 0x10001DF94, symSize: 0x180 }
  - { offsetInCU: 0x32BB3, offset: 0x32BB3, size: 0x8, addend: 0x0, symName: __ZZN8nlohmann16json_abi_v3_11_36detail10serializerINS0_10basic_jsonINS0_11ordered_mapENSt3__16vectorENS5_12basic_stringIcNS5_11char_traitsIcEENS5_9allocatorIcEEEEbxydSA_NS0_14adl_serializerENS6_IhNSA_IhEEEEvEEE6decodeERhRjhE5utf8d, symObjAddr: 0x21AFF, symBinAddr: 0x1000286F7, symSize: 0x0 }
  - { offsetInCU: 0x32C4A, offset: 0x32C4A, size: 0x8, addend: 0x0, symName: __ZN8nlohmann16json_abi_v3_11_36detail10serializerINS0_10basic_jsonINS0_11ordered_mapENSt3__16vectorENS5_12basic_stringIcNS5_11char_traitsIcEENS5_9allocatorIcEEEEbxydSA_NS0_14adl_serializerENS6_IhNSA_IhEEEEvEEE12dump_integerIhLi0EEEvT_, symObjAddr: 0x1A834, symBinAddr: 0x10001D540, symSize: 0x2C8 }
  - { offsetInCU: 0x32C6F, offset: 0x32C6F, size: 0x8, addend: 0x0, symName: __ZZN8nlohmann16json_abi_v3_11_36detail10serializerINS0_10basic_jsonINS0_11ordered_mapENSt3__16vectorENS5_12basic_stringIcNS5_11char_traitsIcEENS5_9allocatorIcEEEEbxydSA_NS0_14adl_serializerENS6_IhNSA_IhEEEEvEEE12dump_integerIhLi0EEEvT_E12digits_to_99, symObjAddr: 0x21C8F, symBinAddr: 0x100028887, symSize: 0x0 }
  - { offsetInCU: 0x32D8C, offset: 0x32D8C, size: 0x8, addend: 0x0, symName: __ZN8nlohmann16json_abi_v3_11_36detail10serializerINS0_10basic_jsonINS0_11ordered_mapENSt3__16vectorENS5_12basic_stringIcNS5_11char_traitsIcEENS5_9allocatorIcEEEEbxydSA_NS0_14adl_serializerENS6_IhNSA_IhEEEEvEEE12dump_integerIyLi0EEEvT_, symObjAddr: 0x1AB6C, symBinAddr: 0x10001D878, symSize: 0x2C4 }
  - { offsetInCU: 0x32DB1, offset: 0x32DB1, size: 0x8, addend: 0x0, symName: __ZZN8nlohmann16json_abi_v3_11_36detail10serializerINS0_10basic_jsonINS0_11ordered_mapENSt3__16vectorENS5_12basic_stringIcNS5_11char_traitsIcEENS5_9allocatorIcEEEEbxydSA_NS0_14adl_serializerENS6_IhNSA_IhEEEEvEEE12dump_integerIyLi0EEEvT_E12digits_to_99, symObjAddr: 0x21D57, symBinAddr: 0x10002894F, symSize: 0x0 }
  - { offsetInCU: 0x32E4E, offset: 0x32E4E, size: 0x8, addend: 0x0, symName: __ZN8nlohmann16json_abi_v3_11_36detail10serializerINS0_10basic_jsonINS0_11ordered_mapENSt3__16vectorENS5_12basic_stringIcNS5_11char_traitsIcEENS5_9allocatorIcEEEEbxydSA_NS0_14adl_serializerENS6_IhNSA_IhEEEEvEEE12dump_integerIxLi0EEEvT_, symObjAddr: 0x1AE74, symBinAddr: 0x10001DB80, symSize: 0x2C4 }
  - { offsetInCU: 0x32E73, offset: 0x32E73, size: 0x8, addend: 0x0, symName: __ZZN8nlohmann16json_abi_v3_11_36detail10serializerINS0_10basic_jsonINS0_11ordered_mapENSt3__16vectorENS5_12basic_stringIcNS5_11char_traitsIcEENS5_9allocatorIcEEEEbxydSA_NS0_14adl_serializerENS6_IhNSA_IhEEEEvEEE12dump_integerIxLi0EEEvT_E12digits_to_99, symObjAddr: 0x21E1F, symBinAddr: 0x100028A17, symSize: 0x0 }
  - { offsetInCU: 0x32F10, offset: 0x32F10, size: 0x8, addend: 0x0, symName: __ZN8nlohmann16json_abi_v3_11_36detail10serializerINS0_10basic_jsonINS0_11ordered_mapENSt3__16vectorENS5_12basic_stringIcNS5_11char_traitsIcEENS5_9allocatorIcEEEEbxydSA_NS0_14adl_serializerENS6_IhNSA_IhEEEEvEEE10dump_floatEd, symObjAddr: 0x1B138, symBinAddr: 0x10001DE44, symSize: 0x6C }
  - { offsetInCU: 0x32F35, offset: 0x32F35, size: 0x8, addend: 0x0, symName: __ZZN8nlohmann16json_abi_v3_11_36detail10serializerINS0_10basic_jsonINS0_11ordered_mapENSt3__16vectorENS5_12basic_stringIcNS5_11char_traitsIcEENS5_9allocatorIcEEEEbxydSA_NS0_14adl_serializerENS6_IhNSA_IhEEEEvEEE10dump_floatEdE24is_ieee_single_or_double, symObjAddr: 0x21EE7, symBinAddr: 0x100028ADF, symSize: 0x0 }
  - { offsetInCU: 0x33503, offset: 0x33503, size: 0x8, addend: 0x0, symName: __ZNSt3__16vectorI15TimeRecordStartNS_9allocatorIS1_EEE26__swap_out_circular_bufferERNS_14__split_bufferIS1_RS3_EE, symObjAddr: 0x4110, symBinAddr: 0x100006E1C, symSize: 0x110 }
  - { offsetInCU: 0x3359F, offset: 0x3359F, size: 0x8, addend: 0x0, symName: __ZNSt3__16vectorI14TimeRecordStopNS_9allocatorIS1_EEE26__swap_out_circular_bufferERNS_14__split_bufferIS1_RS3_EE, symObjAddr: 0x5418, symBinAddr: 0x100008124, symSize: 0x110 }
  - { offsetInCU: 0x336DD, offset: 0x336DD, size: 0x8, addend: 0x0, symName: __ZNSt3__16vectorIN8nlohmann16json_abi_v3_11_310basic_jsonINS2_11ordered_mapES0_NS_12basic_stringIcNS_11char_traitsIcEENS_9allocatorIcEEEEbxydS8_NS2_14adl_serializerENS0_IhNS8_IhEEEEvEENS8_ISE_EEE26__swap_out_circular_bufferERNS_14__split_bufferISE_RSF_EE, symObjAddr: 0xD9D4, symBinAddr: 0x1000106E0, symSize: 0x110 }
  - { offsetInCU: 0x3379E, offset: 0x3379E, size: 0x8, addend: 0x0, symName: __ZNSt3__16vectorINS_4pairIKNS_12basic_stringIcNS_11char_traitsIcEENS_9allocatorIcEEEEN8nlohmann16json_abi_v3_11_310basic_jsonINSA_11ordered_mapES0_S7_bxydS5_NSA_14adl_serializerENS0_IhNS5_IhEEEEvEEEENS5_ISH_EEE26__swap_out_circular_bufferERNS_14__split_bufferISH_RSI_EE, symObjAddr: 0x1168C, symBinAddr: 0x100014398, symSize: 0x110 }
  - { offsetInCU: 0x364FE, offset: 0x364FE, size: 0x8, addend: 0x0, symName: __ZN15TimeRecordStartD2Ev, symObjAddr: 0x0, symBinAddr: 0x100002D0C, symSize: 0x14 }
  - { offsetInCU: 0x3652A, offset: 0x3652A, size: 0x8, addend: 0x0, symName: __ZN15TimeRecordStartD1Ev, symObjAddr: 0x14, symBinAddr: 0x100002D20, symSize: 0x2C }
  - { offsetInCU: 0x36556, offset: 0x36556, size: 0x8, addend: 0x0, symName: __ZN14TimeRecordStopC2EPKcd, symObjAddr: 0x40, symBinAddr: 0x100002D4C, symSize: 0x2C }
  - { offsetInCU: 0x3659E, offset: 0x3659E, size: 0x8, addend: 0x0, symName: __ZN14TimeRecordStopC1EPKcd, symObjAddr: 0x6C, symBinAddr: 0x100002D78, symSize: 0x3C }
  - { offsetInCU: 0x365E6, offset: 0x365E6, size: 0x8, addend: 0x0, symName: __ZN14TimeRecordStopC2EPKcdiS1_S1_, symObjAddr: 0xA8, symBinAddr: 0x100002DB4, symSize: 0x50 }
  - { offsetInCU: 0x36658, offset: 0x36658, size: 0x8, addend: 0x0, symName: __ZN14TimeRecordStopC1EPKcdiS1_S1_, symObjAddr: 0xF8, symBinAddr: 0x100002E04, symSize: 0x54 }
  - { offsetInCU: 0x366CA, offset: 0x366CA, size: 0x8, addend: 0x0, symName: __ZN14TimeRecordStopD2Ev, symObjAddr: 0x14C, symBinAddr: 0x100002E58, symSize: 0x14 }
  - { offsetInCU: 0x366F6, offset: 0x366F6, size: 0x8, addend: 0x0, symName: __ZN14TimeRecordStopD1Ev, symObjAddr: 0x160, symBinAddr: 0x100002E6C, symSize: 0x2C }
  - { offsetInCU: 0x36722, offset: 0x36722, size: 0x8, addend: 0x0, symName: __ZN13ProfilerStatsC2EPKcS1_S1_i, symObjAddr: 0x18C, symBinAddr: 0x100002E98, symSize: 0x68 }
  - { offsetInCU: 0x36786, offset: 0x36786, size: 0x8, addend: 0x0, symName: __ZN13ProfilerStatsC1EPKcS1_S1_i, symObjAddr: 0x1F4, symBinAddr: 0x100002F00, symSize: 0x4C }
  - { offsetInCU: 0x367EA, offset: 0x367EA, size: 0x8, addend: 0x0, symName: __ZN8ProfilerC2Ev, symObjAddr: 0x240, symBinAddr: 0x100002F4C, symSize: 0xB4 }
  - { offsetInCU: 0x36816, offset: 0x36816, size: 0x8, addend: 0x0, symName: __ZNSt3__13mapIPKcP13ProfilerStatsNS_4lessIS2_EENS_9allocatorINS_4pairIKS2_S4_EEEEEC1B8ue170006Ev, symObjAddr: 0x2F4, symBinAddr: 0x100003000, symSize: 0x2C }
  - { offsetInCU: 0x36840, offset: 0x36840, size: 0x8, addend: 0x0, symName: __ZNSt3__16vectorI15TimeRecordStartNS_9allocatorIS1_EEEC1B8ue170006Ev, symObjAddr: 0x320, symBinAddr: 0x10000302C, symSize: 0x2C }
  - { offsetInCU: 0x3686A, offset: 0x3686A, size: 0x8, addend: 0x0, symName: __ZNSt3__16vectorI14TimeRecordStopNS_9allocatorIS1_EEEC1B8ue170006Ev, symObjAddr: 0x34C, symBinAddr: 0x100003058, symSize: 0x2C }
  - { offsetInCU: 0x36894, offset: 0x36894, size: 0x8, addend: 0x0, symName: __ZNSt3__16vectorI15TimeRecordStartNS_9allocatorIS1_EEE7reserveEm, symObjAddr: 0x378, symBinAddr: 0x100003084, symSize: 0xE8 }
  - { offsetInCU: 0x368F0, offset: 0x368F0, size: 0x8, addend: 0x0, symName: __ZNSt3__16vectorI14TimeRecordStopNS_9allocatorIS1_EEE7reserveEm, symObjAddr: 0x460, symBinAddr: 0x10000316C, symSize: 0xE8 }
  - { offsetInCU: 0x3694C, offset: 0x3694C, size: 0x8, addend: 0x0, symName: __ZNSt3__16vectorI14TimeRecordStopNS_9allocatorIS1_EEED1B8ue170006Ev, symObjAddr: 0x548, symBinAddr: 0x100003254, symSize: 0x2C }
  - { offsetInCU: 0x36976, offset: 0x36976, size: 0x8, addend: 0x0, symName: __ZNSt3__16vectorI15TimeRecordStartNS_9allocatorIS1_EEED1B8ue170006Ev, symObjAddr: 0x574, symBinAddr: 0x100003280, symSize: 0x2C }
  - { offsetInCU: 0x369A0, offset: 0x369A0, size: 0x8, addend: 0x0, symName: __ZNSt3__13mapIPKcP13ProfilerStatsNS_4lessIS2_EENS_9allocatorINS_4pairIKS2_S4_EEEEED1B8ue170006Ev, symObjAddr: 0x5A0, symBinAddr: 0x1000032AC, symSize: 0x2C }
  - { offsetInCU: 0x369CA, offset: 0x369CA, size: 0x8, addend: 0x0, symName: __ZN8ProfilerC1Ev, symObjAddr: 0x5CC, symBinAddr: 0x1000032D8, symSize: 0x2C }
  - { offsetInCU: 0x369F6, offset: 0x369F6, size: 0x8, addend: 0x0, symName: __ZN8ProfilerD2Ev, symObjAddr: 0x5F8, symBinAddr: 0x100003304, symSize: 0x64 }
  - { offsetInCU: 0x36A22, offset: 0x36A22, size: 0x8, addend: 0x0, symName: __ZNSt3__16vectorI15TimeRecordStartNS_9allocatorIS1_EEE5clearB8ue170006Ev, symObjAddr: 0x65C, symBinAddr: 0x100003368, symSize: 0x44 }
  - { offsetInCU: 0x36A57, offset: 0x36A57, size: 0x8, addend: 0x0, symName: __ZNSt3__16vectorI14TimeRecordStopNS_9allocatorIS1_EEE5clearB8ue170006Ev, symObjAddr: 0x6A0, symBinAddr: 0x1000033AC, symSize: 0x44 }
  - { offsetInCU: 0x36A8C, offset: 0x36A8C, size: 0x8, addend: 0x0, symName: __ZNSt3__13mapIPKcP13ProfilerStatsNS_4lessIS2_EENS_9allocatorINS_4pairIKS2_S4_EEEEE5clearB8ue170006Ev, symObjAddr: 0x6E4, symBinAddr: 0x1000033F0, symSize: 0x24 }
  - { offsetInCU: 0x36AB2, offset: 0x36AB2, size: 0x8, addend: 0x0, symName: __ZN8ProfilerD1Ev, symObjAddr: 0x708, symBinAddr: 0x100003414, symSize: 0x2C }
  - { offsetInCU: 0x36ADE, offset: 0x36ADE, size: 0x8, addend: 0x0, symName: __ZN8Profiler12EnterSectionEPKc, symObjAddr: 0x734, symBinAddr: 0x100003440, symSize: 0x4C }
  - { offsetInCU: 0x36B2E, offset: 0x36B2E, size: 0x8, addend: 0x0, symName: __ZNSt3__16vectorI15TimeRecordStartNS_9allocatorIS1_EEE12emplace_backIJRPKcRdEEERS1_DpOT_, symObjAddr: 0x780, symBinAddr: 0x10000348C, symSize: 0x80 }
  - { offsetInCU: 0x36B84, offset: 0x36B84, size: 0x8, addend: 0x0, symName: __ZN8Profiler11ExitSectionEPKcS1_S1_i, symObjAddr: 0x800, symBinAddr: 0x10000350C, symSize: 0x494 }
  - { offsetInCU: 0x36C3A, offset: 0x36C3A, size: 0x8, addend: 0x0, symName: __ZNKSt3__16vectorI15TimeRecordStartNS_9allocatorIS1_EEE4sizeB8ue170006Ev, symObjAddr: 0xC94, symBinAddr: 0x1000039A0, symSize: 0x28 }
  - { offsetInCU: 0x36C60, offset: 0x36C60, size: 0x8, addend: 0x0, symName: __ZNSt3__16vectorI15TimeRecordStartNS_9allocatorIS1_EEE2atEm, symObjAddr: 0xCBC, symBinAddr: 0x1000039C8, symSize: 0x60 }
  - { offsetInCU: 0x36C97, offset: 0x36C97, size: 0x8, addend: 0x0, symName: __ZNSt3__16vectorI15TimeRecordStartNS_9allocatorIS1_EEE5eraseB8ue170006ENS_11__wrap_iterIPKS1_EE, symObjAddr: 0xD1C, symBinAddr: 0x100003A28, symSize: 0x94 }
  - { offsetInCU: 0x36CEC, offset: 0x36CEC, size: 0x8, addend: 0x0, symName: __ZNSt3__16vectorI15TimeRecordStartNS_9allocatorIS1_EEE5beginB8ue170006Ev, symObjAddr: 0xDB0, symBinAddr: 0x100003ABC, symSize: 0x30 }
  - { offsetInCU: 0x36D14, offset: 0x36D14, size: 0x8, addend: 0x0, symName: __ZNKSt3__111__wrap_iterIP15TimeRecordStartEplB8ue170006El, symObjAddr: 0xDE0, symBinAddr: 0x100003AEC, symSize: 0x3C }
  - { offsetInCU: 0x36D61, offset: 0x36D61, size: 0x8, addend: 0x0, symName: __ZNSt3__111__wrap_iterIPK15TimeRecordStartEC1B8ue170006IPS1_EERKNS0_IT_EEPNS_9enable_ifIXsr14is_convertibleIS7_S3_EE5valueEvE4typeE, symObjAddr: 0xE1C, symBinAddr: 0x100003B28, symSize: 0x3C }
  - { offsetInCU: 0x36DAD, offset: 0x36DAD, size: 0x8, addend: 0x0, symName: __ZNSt3__16vectorI14TimeRecordStopNS_9allocatorIS1_EEE9push_backB8ue170006ERKS1_, symObjAddr: 0xE58, symBinAddr: 0x100003B64, symSize: 0x6C }
  - { offsetInCU: 0x36DE4, offset: 0x36DE4, size: 0x8, addend: 0x0, symName: __ZNSt3__13mapIPKcP13ProfilerStatsNS_4lessIS2_EENS_9allocatorINS_4pairIKS2_S4_EEEEE4findB8ue170006ERS9_, symObjAddr: 0xEF4, symBinAddr: 0x100003C00, symSize: 0x40 }
  - { offsetInCU: 0x36E19, offset: 0x36E19, size: 0x8, addend: 0x0, symName: __ZNSt3__13mapIPKcP13ProfilerStatsNS_4lessIS2_EENS_9allocatorINS_4pairIKS2_S4_EEEEE3endB8ue170006Ev, symObjAddr: 0xF34, symBinAddr: 0x100003C40, symSize: 0x38 }
  - { offsetInCU: 0x36E3F, offset: 0x36E3F, size: 0x8, addend: 0x0, symName: __ZNSt3__13mapIPKcP13ProfilerStatsNS_4lessIS2_EENS_9allocatorINS_4pairIKS2_S4_EEEEEixERS9_, symObjAddr: 0xF6C, symBinAddr: 0x100003C78, symSize: 0x80 }
  - { offsetInCU: 0x36E76, offset: 0x36E76, size: 0x8, addend: 0x0, symName: __ZN8Profiler10printStatsEv, symObjAddr: 0xFEC, symBinAddr: 0x100003CF8, symSize: 0x458 }
  - { offsetInCU: 0x36F10, offset: 0x36F10, size: 0x8, addend: 0x0, symName: __ZNSt3__113basic_ostreamIcNS_11char_traitsIcEEElsB8ue170006EPFRNS_8ios_baseES5_E, symObjAddr: 0x14CC, symBinAddr: 0x1000041D8, symSize: 0x40 }
  - { offsetInCU: 0x36F44, offset: 0x36F44, size: 0x8, addend: 0x0, symName: __ZNSt3__113basic_ostreamIcNS_11char_traitsIcEEElsB8ue170006EPFRS3_S4_E, symObjAddr: 0x1568, symBinAddr: 0x100004274, symSize: 0x2C }
  - { offsetInCU: 0x36F78, offset: 0x36F78, size: 0x8, addend: 0x0, symName: __ZNSt3__112basic_stringIcNS_11char_traitsIcEENS_9allocatorIcEEEC1B8ue170006Emc, symObjAddr: 0x1638, symBinAddr: 0x100004344, symSize: 0x3C }
  - { offsetInCU: 0x36FC0, offset: 0x36FC0, size: 0x8, addend: 0x0, symName: __ZNSt3__13mapIPKcP13ProfilerStatsNS_4lessIS2_EENS_9allocatorINS_4pairIKS2_S4_EEEEE5beginB8ue170006Ev, symObjAddr: 0x1674, symBinAddr: 0x100004380, symSize: 0x38 }
  - { offsetInCU: 0x36FE6, offset: 0x36FE6, size: 0x8, addend: 0x0, symName: __ZNKSt3__114__map_iteratorINS_15__tree_iteratorINS_12__value_typeIPKcP13ProfilerStatsEEPNS_11__tree_nodeIS7_PvEElEEEdeB8ue170006Ev, symObjAddr: 0x16DC, symBinAddr: 0x1000043E8, symSize: 0x28 }
  - { offsetInCU: 0x3700C, offset: 0x3700C, size: 0x8, addend: 0x0, symName: __ZNSt3__114__map_iteratorINS_15__tree_iteratorINS_12__value_typeIPKcP13ProfilerStatsEEPNS_11__tree_nodeIS7_PvEElEEEppB8ue170006Ev, symObjAddr: 0x1704, symBinAddr: 0x100004410, symSize: 0x2C }
  - { offsetInCU: 0x37032, offset: 0x37032, size: 0x8, addend: 0x0, symName: __ZN8Profiler15printStatsToCSVEPKc, symObjAddr: 0x1730, symBinAddr: 0x10000443C, symSize: 0x38C }
  - { offsetInCU: 0x37176, offset: 0x37176, size: 0x8, addend: 0x0, symName: __ZNSt3__114basic_ofstreamIcNS_11char_traitsIcEEEC1EPKcj, symObjAddr: 0x1ABC, symBinAddr: 0x1000047C8, symSize: 0x16C }
  - { offsetInCU: 0x371C0, offset: 0x371C0, size: 0x8, addend: 0x0, symName: __ZNKSt3__114basic_ofstreamIcNS_11char_traitsIcEEE7is_openEv, symObjAddr: 0x1C28, symBinAddr: 0x100004934, symSize: 0x2C }
  - { offsetInCU: 0x371E8, offset: 0x371E8, size: 0x8, addend: 0x0, symName: __ZNSt3__114basic_ofstreamIcNS_11char_traitsIcEEE5closeEv, symObjAddr: 0x1C54, symBinAddr: 0x100004960, symSize: 0x58 }
  - { offsetInCU: 0x37215, offset: 0x37215, size: 0x8, addend: 0x0, symName: __ZNSt3__114basic_ofstreamIcNS_11char_traitsIcEEED1Ev, symObjAddr: 0x1CAC, symBinAddr: 0x1000049B8, symSize: 0x40 }
  - { offsetInCU: 0x37242, offset: 0x37242, size: 0x8, addend: 0x0, symName: __ZN8Profiler16printStatsToJSONEPKc, symObjAddr: 0x1CEC, symBinAddr: 0x1000049F8, symSize: 0x5A8 }
  - { offsetInCU: 0x372FA, offset: 0x372FA, size: 0x8, addend: 0x0, symName: __ZN8nlohmann16json_abi_v3_11_310basic_jsonINS0_11ordered_mapENSt3__16vectorENS3_12basic_stringIcNS3_11char_traitsIcEENS3_9allocatorIcEEEEbxydS8_NS0_14adl_serializerENS4_IhNS8_IhEEEEvEC1EDn, symObjAddr: 0x2294, symBinAddr: 0x100004FA0, symSize: 0x4C }
  - { offsetInCU: 0x37330, offset: 0x37330, size: 0x8, addend: 0x0, symName: __ZN8nlohmann16json_abi_v3_11_310basic_jsonINS0_11ordered_mapENSt3__16vectorENS3_12basic_stringIcNS3_11char_traitsIcEENS3_9allocatorIcEEEEbxydS8_NS0_14adl_serializerENS4_IhNS8_IhEEEEvEC1IRKPKcSH_Li0EEEOT_, symObjAddr: 0x22E0, symBinAddr: 0x100004FEC, symSize: 0x34 }
  - { offsetInCU: 0x37381, offset: 0x37381, size: 0x8, addend: 0x0, symName: __ZN8nlohmann16json_abi_v3_11_310basic_jsonINS0_11ordered_mapENSt3__16vectorENS3_12basic_stringIcNS3_11char_traitsIcEENS3_9allocatorIcEEEEbxydS8_NS0_14adl_serializerENS4_IhNS8_IhEEEEvEixIKcEERSE_PT_, symObjAddr: 0x2314, symBinAddr: 0x100005020, symSize: 0x78 }
  - { offsetInCU: 0x373BF, offset: 0x373BF, size: 0x8, addend: 0x0, symName: __ZN8nlohmann16json_abi_v3_11_310basic_jsonINS0_11ordered_mapENSt3__16vectorENS3_12basic_stringIcNS3_11char_traitsIcEENS3_9allocatorIcEEEEbxydS8_NS0_14adl_serializerENS4_IhNS8_IhEEEEvEaSESE_, symObjAddr: 0x238C, symBinAddr: 0x100005098, symSize: 0x80 }
  - { offsetInCU: 0x373F5, offset: 0x373F5, size: 0x8, addend: 0x0, symName: __ZN8nlohmann16json_abi_v3_11_310basic_jsonINS0_11ordered_mapENSt3__16vectorENS3_12basic_stringIcNS3_11char_traitsIcEENS3_9allocatorIcEEEEbxydS8_NS0_14adl_serializerENS4_IhNS8_IhEEEEvED1Ev, symObjAddr: 0x240C, symBinAddr: 0x100005118, symSize: 0x2C }
  - { offsetInCU: 0x37425, offset: 0x37425, size: 0x8, addend: 0x0, symName: __ZN8nlohmann16json_abi_v3_11_310basic_jsonINS0_11ordered_mapENSt3__16vectorENS3_12basic_stringIcNS3_11char_traitsIcEENS3_9allocatorIcEEEEbxydS8_NS0_14adl_serializerENS4_IhNS8_IhEEEEvEC1IRiiLi0EEEOT_, symObjAddr: 0x2438, symBinAddr: 0x100005144, symSize: 0x34 }
  - { offsetInCU: 0x37476, offset: 0x37476, size: 0x8, addend: 0x0, symName: __ZN8nlohmann16json_abi_v3_11_310basic_jsonINS0_11ordered_mapENSt3__16vectorENS3_12basic_stringIcNS3_11char_traitsIcEENS3_9allocatorIcEEEEbxydS8_NS0_14adl_serializerENS4_IhNS8_IhEEEEvEC1IRddLi0EEEOT_, symObjAddr: 0x246C, symBinAddr: 0x100005178, symSize: 0x34 }
  - { offsetInCU: 0x374CD, offset: 0x374CD, size: 0x8, addend: 0x0, symName: __ZN8nlohmann16json_abi_v3_11_310basic_jsonINS0_11ordered_mapENSt3__16vectorENS3_12basic_stringIcNS3_11char_traitsIcEENS3_9allocatorIcEEEEbxydS8_NS0_14adl_serializerENS4_IhNS8_IhEEEEvEC1IddLi0EEEOT_, symObjAddr: 0x24A0, symBinAddr: 0x1000051AC, symSize: 0x34 }
  - { offsetInCU: 0x3751E, offset: 0x3751E, size: 0x8, addend: 0x0, symName: __ZN8nlohmann16json_abi_v3_11_310basic_jsonINS0_11ordered_mapENSt3__16vectorENS3_12basic_stringIcNS3_11char_traitsIcEENS3_9allocatorIcEEEEbxydS8_NS0_14adl_serializerENS4_IhNS8_IhEEEEvEC1IRPKcSH_Li0EEEOT_, symObjAddr: 0x24D4, symBinAddr: 0x1000051E0, symSize: 0x34 }
  - { offsetInCU: 0x3756F, offset: 0x3756F, size: 0x8, addend: 0x0, symName: __ZN8nlohmann16json_abi_v3_11_310basic_jsonINS0_11ordered_mapENSt3__16vectorENS3_12basic_stringIcNS3_11char_traitsIcEENS3_9allocatorIcEEEEbxydS8_NS0_14adl_serializerENS4_IhNS8_IhEEEEvE9push_backERKSE_, symObjAddr: 0x2508, symBinAddr: 0x100005214, symSize: 0x1B0 }
  - { offsetInCU: 0x375B3, offset: 0x375B3, size: 0x8, addend: 0x0, symName: __ZNK8nlohmann16json_abi_v3_11_310basic_jsonINS0_11ordered_mapENSt3__16vectorENS3_12basic_stringIcNS3_11char_traitsIcEENS3_9allocatorIcEEEEbxydS8_NS0_14adl_serializerENS4_IhNS8_IhEEEEvE4dumpEicbNS0_6detail15error_handler_tE, symObjAddr: 0x26B8, symBinAddr: 0x1000053C4, symSize: 0x1F4 }
  - { offsetInCU: 0x3763B, offset: 0x3763B, size: 0x8, addend: 0x0, symName: __ZN8Profiler13getStartTimesEv, symObjAddr: 0x28AC, symBinAddr: 0x1000055B8, symSize: 0x3C }
  - { offsetInCU: 0x37663, offset: 0x37663, size: 0x8, addend: 0x0, symName: __ZNSt3__16vectorI15TimeRecordStartNS_9allocatorIS1_EEEC1ERKS4_, symObjAddr: 0x28E8, symBinAddr: 0x1000055F4, symSize: 0x34 }
  - { offsetInCU: 0x3769E, offset: 0x3769E, size: 0x8, addend: 0x0, symName: __ZN8Profiler15getElapsedTimesEv, symObjAddr: 0x291C, symBinAddr: 0x100005628, symSize: 0x3C }
  - { offsetInCU: 0x376C6, offset: 0x376C6, size: 0x8, addend: 0x0, symName: __ZNSt3__16vectorI14TimeRecordStopNS_9allocatorIS1_EEEC1ERKS4_, symObjAddr: 0x2958, symBinAddr: 0x100005664, symSize: 0x34 }
  - { offsetInCU: 0x37701, offset: 0x37701, size: 0x8, addend: 0x0, symName: __ZN8Profiler8getStatsEv, symObjAddr: 0x298C, symBinAddr: 0x100005698, symSize: 0x38 }
  - { offsetInCU: 0x37729, offset: 0x37729, size: 0x8, addend: 0x0, symName: __ZNSt3__13mapIPKcP13ProfilerStatsNS_4lessIS2_EENS_9allocatorINS_4pairIKS2_S4_EEEEEC1B8ue170006ERKSC_, symObjAddr: 0x29C4, symBinAddr: 0x1000056D0, symSize: 0x34 }
  - { offsetInCU: 0x37762, offset: 0x37762, size: 0x8, addend: 0x0, symName: __ZNSt3__111__wrap_iterIP15TimeRecordStartEpLB8ue170006El, symObjAddr: 0x29F8, symBinAddr: 0x100005704, symSize: 0x28 }
  - { offsetInCU: 0x37796, offset: 0x37796, size: 0x8, addend: 0x0, symName: __ZNSt3__111__wrap_iterIPK15TimeRecordStartEC2B8ue170006IPS1_EERKNS0_IT_EEPNS_9enable_ifIXsr14is_convertibleIS7_S3_EE5valueEvE4typeE, symObjAddr: 0x2A20, symBinAddr: 0x10000572C, symSize: 0x40 }
  - { offsetInCU: 0x377E2, offset: 0x377E2, size: 0x8, addend: 0x0, symName: __ZNKSt3__111__wrap_iterIP15TimeRecordStartE4baseB8ue170006Ev, symObjAddr: 0x2A60, symBinAddr: 0x10000576C, symSize: 0x18 }
  - { offsetInCU: 0x37808, offset: 0x37808, size: 0x8, addend: 0x0, symName: __ZNSt3__18ios_base4setfB8ue170006Ejj, symObjAddr: 0x2A78, symBinAddr: 0x100005784, symSize: 0x5C }
  - { offsetInCU: 0x3785D, offset: 0x3785D, size: 0x8, addend: 0x0, symName: __ZNSt3__18ios_base6unsetfB8ue170006Ej, symObjAddr: 0x2AD4, symBinAddr: 0x1000057E0, symSize: 0x28 }
  - { offsetInCU: 0x37894, offset: 0x37894, size: 0x8, addend: 0x0, symName: __ZNSt3__18__iom_t6C1B8ue170006Ei, symObjAddr: 0x2AFC, symBinAddr: 0x100005808, symSize: 0x34 }
  - { offsetInCU: 0x378CC, offset: 0x378CC, size: 0x8, addend: 0x0, symName: __ZNSt3__18__iom_t6C2B8ue170006Ei, symObjAddr: 0x2B30, symBinAddr: 0x10000583C, symSize: 0x20 }
  - { offsetInCU: 0x37904, offset: 0x37904, size: 0x8, addend: 0x0, symName: __ZNSt3__114basic_ofstreamIcNS_11char_traitsIcEEED2Ev, symObjAddr: 0x2B50, symBinAddr: 0x10000585C, symSize: 0x64 }
  - { offsetInCU: 0x3793E, offset: 0x3793E, size: 0x8, addend: 0x0, symName: __ZTv0_n24_NSt3__114basic_ofstreamIcNS_11char_traitsIcEEED1Ev, symObjAddr: 0x2BB4, symBinAddr: 0x1000058C0, symSize: 0x28 }
  - { offsetInCU: 0x37955, offset: 0x37955, size: 0x8, addend: 0x0, symName: __ZNSt3__13mapIPKcP13ProfilerStatsNS_4lessIS2_EENS_9allocatorINS_4pairIKS2_S4_EEEEEC2B8ue170006Ev, symObjAddr: 0x2BDC, symBinAddr: 0x1000058E8, symSize: 0x40 }
  - { offsetInCU: 0x3797F, offset: 0x3797F, size: 0x8, addend: 0x0, symName: __ZNSt3__119__map_value_compareIPKcNS_12__value_typeIS2_P13ProfilerStatsEENS_4lessIS2_EELb1EEC1B8ue170006ES8_, symObjAddr: 0x2C1C, symBinAddr: 0x100005928, symSize: 0x2C }
  - { offsetInCU: 0x379B8, offset: 0x379B8, size: 0x8, addend: 0x0, symName: __ZNSt3__16__treeINS_12__value_typeIPKcP13ProfilerStatsEENS_19__map_value_compareIS3_S6_NS_4lessIS3_EELb1EEENS_9allocatorIS6_EEEC1ERKSA_, symObjAddr: 0x2C48, symBinAddr: 0x100005954, symSize: 0x34 }
  - { offsetInCU: 0x379F3, offset: 0x379F3, size: 0x8, addend: 0x0, symName: __ZNSt3__119__map_value_compareIPKcNS_12__value_typeIS2_P13ProfilerStatsEENS_4lessIS2_EELb1EEC2B8ue170006ES8_, symObjAddr: 0x2C7C, symBinAddr: 0x100005988, symSize: 0x14 }
  - { offsetInCU: 0x37A2C, offset: 0x37A2C, size: 0x8, addend: 0x0, symName: __ZNSt3__16__treeINS_12__value_typeIPKcP13ProfilerStatsEENS_19__map_value_compareIS3_S6_NS_4lessIS3_EELb1EEENS_9allocatorIS6_EEEC2ERKSA_, symObjAddr: 0x2C90, symBinAddr: 0x10000599C, symSize: 0x7C }
  - { offsetInCU: 0x37A67, offset: 0x37A67, size: 0x8, addend: 0x0, symName: __ZNSt3__117__compressed_pairINS_15__tree_end_nodeIPNS_16__tree_node_baseIPvEEEENS_9allocatorINS_11__tree_nodeINS_12__value_typeIPKcP13ProfilerStatsEES3_EEEEEC1B8ue170006ILb1EvEEv, symObjAddr: 0x2D0C, symBinAddr: 0x100005A18, symSize: 0x2C }
  - { offsetInCU: 0x37A9C, offset: 0x37A9C, size: 0x8, addend: 0x0, symName: __ZNSt3__117__compressed_pairImNS_19__map_value_compareIPKcNS_12__value_typeIS3_P13ProfilerStatsEENS_4lessIS3_EELb1EEEEC1B8ue170006IiRKSA_EEOT_OT0_, symObjAddr: 0x2D44, symBinAddr: 0x100005A50, symSize: 0x3C }
  - { offsetInCU: 0x37AF4, offset: 0x37AF4, size: 0x8, addend: 0x0, symName: __ZNSt3__16__treeINS_12__value_typeIPKcP13ProfilerStatsEENS_19__map_value_compareIS3_S6_NS_4lessIS3_EELb1EEENS_9allocatorIS6_EEE10__end_nodeB8ue170006Ev, symObjAddr: 0x2D80, symBinAddr: 0x100005A8C, symSize: 0x2C }
  - { offsetInCU: 0x37B1A, offset: 0x37B1A, size: 0x8, addend: 0x0, symName: __ZNSt3__16__treeINS_12__value_typeIPKcP13ProfilerStatsEENS_19__map_value_compareIS3_S6_NS_4lessIS3_EELb1EEENS_9allocatorIS6_EEE12__begin_nodeB8ue170006Ev, symObjAddr: 0x2DAC, symBinAddr: 0x100005AB8, symSize: 0x14 }
  - { offsetInCU: 0x37B40, offset: 0x37B40, size: 0x8, addend: 0x0, symName: __ZNSt3__117__compressed_pairINS_15__tree_end_nodeIPNS_16__tree_node_baseIPvEEEENS_9allocatorINS_11__tree_nodeINS_12__value_typeIPKcP13ProfilerStatsEES3_EEEEEC2B8ue170006ILb1EvEEv, symObjAddr: 0x2DC0, symBinAddr: 0x100005ACC, symSize: 0x34 }
  - { offsetInCU: 0x37B75, offset: 0x37B75, size: 0x8, addend: 0x0, symName: __ZNSt3__122__compressed_pair_elemINS_15__tree_end_nodeIPNS_16__tree_node_baseIPvEEEELi0ELb0EEC2B8ue170006ENS_16__value_init_tagE, symObjAddr: 0x2DF4, symBinAddr: 0x100005B00, symSize: 0x2C }
  - { offsetInCU: 0x37BAA, offset: 0x37BAA, size: 0x8, addend: 0x0, symName: __ZNSt3__122__compressed_pair_elemINS_9allocatorINS_11__tree_nodeINS_12__value_typeIPKcP13ProfilerStatsEEPvEEEELi1ELb1EEC2B8ue170006ENS_16__value_init_tagE, symObjAddr: 0x2E20, symBinAddr: 0x100005B2C, symSize: 0x2C }
  - { offsetInCU: 0x37BDF, offset: 0x37BDF, size: 0x8, addend: 0x0, symName: __ZNSt3__115__tree_end_nodeIPNS_16__tree_node_baseIPvEEEC1B8ue170006Ev, symObjAddr: 0x2E4C, symBinAddr: 0x100005B58, symSize: 0x2C }
  - { offsetInCU: 0x37C09, offset: 0x37C09, size: 0x8, addend: 0x0, symName: __ZNSt3__115__tree_end_nodeIPNS_16__tree_node_baseIPvEEEC2B8ue170006Ev, symObjAddr: 0x2E78, symBinAddr: 0x100005B84, symSize: 0x18 }
  - { offsetInCU: 0x37C33, offset: 0x37C33, size: 0x8, addend: 0x0, symName: __ZNSt3__19allocatorINS_11__tree_nodeINS_12__value_typeIPKcP13ProfilerStatsEEPvEEEC2B8ue170006Ev, symObjAddr: 0x2E90, symBinAddr: 0x100005B9C, symSize: 0x2C }
  - { offsetInCU: 0x37C5D, offset: 0x37C5D, size: 0x8, addend: 0x0, symName: __ZNSt3__116__non_trivial_ifILb1ENS_9allocatorINS_11__tree_nodeINS_12__value_typeIPKcP13ProfilerStatsEEPvEEEEEC2B8ue170006Ev, symObjAddr: 0x2EBC, symBinAddr: 0x100005BC8, symSize: 0x14 }
  - { offsetInCU: 0x37C87, offset: 0x37C87, size: 0x8, addend: 0x0, symName: __ZNSt3__117__compressed_pairImNS_19__map_value_compareIPKcNS_12__value_typeIS3_P13ProfilerStatsEENS_4lessIS3_EELb1EEEEC2B8ue170006IiRKSA_EEOT_OT0_, symObjAddr: 0x2ED0, symBinAddr: 0x100005BDC, symSize: 0x44 }
  - { offsetInCU: 0x37CDF, offset: 0x37CDF, size: 0x8, addend: 0x0, symName: __ZNSt3__122__compressed_pair_elemImLi0ELb0EEC2B8ue170006IivEEOT_, symObjAddr: 0x2F14, symBinAddr: 0x100005C20, symSize: 0x24 }
  - { offsetInCU: 0x37D21, offset: 0x37D21, size: 0x8, addend: 0x0, symName: __ZNSt3__122__compressed_pair_elemINS_19__map_value_compareIPKcNS_12__value_typeIS3_P13ProfilerStatsEENS_4lessIS3_EELb1EEELi1ELb1EEC2B8ue170006IRKSA_vEEOT_, symObjAddr: 0x2F38, symBinAddr: 0x100005C44, symSize: 0x18 }
  - { offsetInCU: 0x37D63, offset: 0x37D63, size: 0x8, addend: 0x0, symName: __ZNSt3__114pointer_traitsIPNS_15__tree_end_nodeIPNS_16__tree_node_baseIPvEEEEE10pointer_toB8ue170006ERS6_, symObjAddr: 0x2F50, symBinAddr: 0x100005C5C, symSize: 0x14 }
  - { offsetInCU: 0x37D86, offset: 0x37D86, size: 0x8, addend: 0x0, symName: __ZNSt3__117__compressed_pairINS_15__tree_end_nodeIPNS_16__tree_node_baseIPvEEEENS_9allocatorINS_11__tree_nodeINS_12__value_typeIPKcP13ProfilerStatsEES3_EEEEE5firstB8ue170006Ev, symObjAddr: 0x2F64, symBinAddr: 0x100005C70, symSize: 0x24 }
  - { offsetInCU: 0x37DAC, offset: 0x37DAC, size: 0x8, addend: 0x0, symName: __ZNSt3__122__compressed_pair_elemINS_15__tree_end_nodeIPNS_16__tree_node_baseIPvEEEELi0ELb0EE5__getB8ue170006Ev, symObjAddr: 0x2F88, symBinAddr: 0x100005C94, symSize: 0x14 }
  - { offsetInCU: 0x37DD2, offset: 0x37DD2, size: 0x8, addend: 0x0, symName: __ZNSt3__16vectorI15TimeRecordStartNS_9allocatorIS1_EEEC2B8ue170006Ev, symObjAddr: 0x2F9C, symBinAddr: 0x100005CA8, symSize: 0x4C }
  - { offsetInCU: 0x37E08, offset: 0x37E08, size: 0x8, addend: 0x0, symName: __ZNSt3__117__compressed_pairIP15TimeRecordStartNS_9allocatorIS1_EEEC1B8ue170006IDnNS_18__default_init_tagEEEOT_OT0_, symObjAddr: 0x2FE8, symBinAddr: 0x100005CF4, symSize: 0x3C }
  - { offsetInCU: 0x37E60, offset: 0x37E60, size: 0x8, addend: 0x0, symName: __ZNSt3__117__compressed_pairIP15TimeRecordStartNS_9allocatorIS1_EEEC2B8ue170006IDnNS_18__default_init_tagEEEOT_OT0_, symObjAddr: 0x3024, symBinAddr: 0x100005D30, symSize: 0x40 }
  - { offsetInCU: 0x37EB8, offset: 0x37EB8, size: 0x8, addend: 0x0, symName: __ZNSt3__122__compressed_pair_elemIP15TimeRecordStartLi0ELb0EEC2B8ue170006IDnvEEOT_, symObjAddr: 0x3064, symBinAddr: 0x100005D70, symSize: 0x1C }
  - { offsetInCU: 0x37EFA, offset: 0x37EFA, size: 0x8, addend: 0x0, symName: __ZNSt3__122__compressed_pair_elemINS_9allocatorI15TimeRecordStartEELi1ELb1EEC2B8ue170006ENS_18__default_init_tagE, symObjAddr: 0x3080, symBinAddr: 0x100005D8C, symSize: 0x2C }
  - { offsetInCU: 0x37F2F, offset: 0x37F2F, size: 0x8, addend: 0x0, symName: __ZNSt3__19allocatorI15TimeRecordStartEC2B8ue170006Ev, symObjAddr: 0x30AC, symBinAddr: 0x100005DB8, symSize: 0x2C }
  - { offsetInCU: 0x37F59, offset: 0x37F59, size: 0x8, addend: 0x0, symName: __ZNSt3__116__non_trivial_ifILb1ENS_9allocatorI15TimeRecordStartEEEC2B8ue170006Ev, symObjAddr: 0x30D8, symBinAddr: 0x100005DE4, symSize: 0x14 }
  - { offsetInCU: 0x37F83, offset: 0x37F83, size: 0x8, addend: 0x0, symName: __ZNSt3__16vectorI14TimeRecordStopNS_9allocatorIS1_EEEC2B8ue170006Ev, symObjAddr: 0x30EC, symBinAddr: 0x100005DF8, symSize: 0x4C }
  - { offsetInCU: 0x37FAD, offset: 0x37FAD, size: 0x8, addend: 0x0, symName: __ZNSt3__117__compressed_pairIP14TimeRecordStopNS_9allocatorIS1_EEEC1B8ue170006IDnNS_18__default_init_tagEEEOT_OT0_, symObjAddr: 0x3138, symBinAddr: 0x100005E44, symSize: 0x3C }
  - { offsetInCU: 0x38005, offset: 0x38005, size: 0x8, addend: 0x0, symName: __ZNSt3__117__compressed_pairIP14TimeRecordStopNS_9allocatorIS1_EEEC2B8ue170006IDnNS_18__default_init_tagEEEOT_OT0_, symObjAddr: 0x3174, symBinAddr: 0x100005E80, symSize: 0x40 }
  - { offsetInCU: 0x3805D, offset: 0x3805D, size: 0x8, addend: 0x0, symName: __ZNSt3__122__compressed_pair_elemIP14TimeRecordStopLi0ELb0EEC2B8ue170006IDnvEEOT_, symObjAddr: 0x31B4, symBinAddr: 0x100005EC0, symSize: 0x1C }
  - { offsetInCU: 0x3809F, offset: 0x3809F, size: 0x8, addend: 0x0, symName: __ZNSt3__122__compressed_pair_elemINS_9allocatorI14TimeRecordStopEELi1ELb1EEC2B8ue170006ENS_18__default_init_tagE, symObjAddr: 0x31D0, symBinAddr: 0x100005EDC, symSize: 0x2C }
  - { offsetInCU: 0x380D4, offset: 0x380D4, size: 0x8, addend: 0x0, symName: __ZNSt3__19allocatorI14TimeRecordStopEC2B8ue170006Ev, symObjAddr: 0x31FC, symBinAddr: 0x100005F08, symSize: 0x2C }
  - { offsetInCU: 0x380FE, offset: 0x380FE, size: 0x8, addend: 0x0, symName: __ZNSt3__116__non_trivial_ifILb1ENS_9allocatorI14TimeRecordStopEEEC2B8ue170006Ev, symObjAddr: 0x3228, symBinAddr: 0x100005F34, symSize: 0x14 }
  - { offsetInCU: 0x38128, offset: 0x38128, size: 0x8, addend: 0x0, symName: __ZNSt3__13mapIPKcP13ProfilerStatsNS_4lessIS2_EENS_9allocatorINS_4pairIKS2_S4_EEEEED2B8ue170006Ev, symObjAddr: 0x323C, symBinAddr: 0x100005F48, symSize: 0x2C }
  - { offsetInCU: 0x38152, offset: 0x38152, size: 0x8, addend: 0x0, symName: __ZNSt3__16__treeINS_12__value_typeIPKcP13ProfilerStatsEENS_19__map_value_compareIS3_S6_NS_4lessIS3_EELb1EEENS_9allocatorIS6_EEED1Ev, symObjAddr: 0x3268, symBinAddr: 0x100005F74, symSize: 0x2C }
  - { offsetInCU: 0x3817E, offset: 0x3817E, size: 0x8, addend: 0x0, symName: __ZNSt3__16__treeINS_12__value_typeIPKcP13ProfilerStatsEENS_19__map_value_compareIS3_S6_NS_4lessIS3_EELb1EEENS_9allocatorIS6_EEED2Ev, symObjAddr: 0x3294, symBinAddr: 0x100005FA0, symSize: 0x38 }
  - { offsetInCU: 0x381AA, offset: 0x381AA, size: 0x8, addend: 0x0, symName: __ZNSt3__16__treeINS_12__value_typeIPKcP13ProfilerStatsEENS_19__map_value_compareIS3_S6_NS_4lessIS3_EELb1EEENS_9allocatorIS6_EEE7destroyEPNS_11__tree_nodeIS6_PvEE, symObjAddr: 0x32CC, symBinAddr: 0x100005FD8, symSize: 0xAC }
  - { offsetInCU: 0x381F6, offset: 0x381F6, size: 0x8, addend: 0x0, symName: __ZNKSt3__16__treeINS_12__value_typeIPKcP13ProfilerStatsEENS_19__map_value_compareIS3_S6_NS_4lessIS3_EELb1EEENS_9allocatorIS6_EEE6__rootB8ue170006Ev, symObjAddr: 0x3378, symBinAddr: 0x100006084, symSize: 0x28 }
  - { offsetInCU: 0x3821C, offset: 0x3821C, size: 0x8, addend: 0x0, symName: __ZNSt3__16__treeINS_12__value_typeIPKcP13ProfilerStatsEENS_19__map_value_compareIS3_S6_NS_4lessIS3_EELb1EEENS_9allocatorIS6_EEE12__node_allocB8ue170006Ev, symObjAddr: 0x33A0, symBinAddr: 0x1000060AC, symSize: 0x28 }
  - { offsetInCU: 0x38242, offset: 0x38242, size: 0x8, addend: 0x0, symName: __ZNSt3__116allocator_traitsINS_9allocatorINS_11__tree_nodeINS_12__value_typeIPKcP13ProfilerStatsEEPvEEEEE7destroyB8ue170006INS_4pairIKS5_S7_EEvvEEvRSB_PT_, symObjAddr: 0x33C8, symBinAddr: 0x1000060D4, symSize: 0x14 }
  - { offsetInCU: 0x3827D, offset: 0x3827D, size: 0x8, addend: 0x0, symName: __ZNSt3__122__tree_key_value_typesINS_12__value_typeIPKcP13ProfilerStatsEEE9__get_ptrB8ue170006ERS6_, symObjAddr: 0x33DC, symBinAddr: 0x1000060E8, symSize: 0x24 }
  - { offsetInCU: 0x382A1, offset: 0x382A1, size: 0x8, addend: 0x0, symName: __ZNSt3__116allocator_traitsINS_9allocatorINS_11__tree_nodeINS_12__value_typeIPKcP13ProfilerStatsEEPvEEEEE10deallocateB8ue170006ERSB_PSA_m, symObjAddr: 0x3400, symBinAddr: 0x10000610C, symSize: 0x34 }
  - { offsetInCU: 0x382E3, offset: 0x382E3, size: 0x8, addend: 0x0, symName: __ZNSt3__117__compressed_pairINS_15__tree_end_nodeIPNS_16__tree_node_baseIPvEEEENS_9allocatorINS_11__tree_nodeINS_12__value_typeIPKcP13ProfilerStatsEES3_EEEEE6secondB8ue170006Ev, symObjAddr: 0x3434, symBinAddr: 0x100006140, symSize: 0x24 }
  - { offsetInCU: 0x38309, offset: 0x38309, size: 0x8, addend: 0x0, symName: __ZNSt3__122__compressed_pair_elemINS_9allocatorINS_11__tree_nodeINS_12__value_typeIPKcP13ProfilerStatsEEPvEEEELi1ELb1EE5__getB8ue170006Ev, symObjAddr: 0x3458, symBinAddr: 0x100006164, symSize: 0x14 }
  - { offsetInCU: 0x3832F, offset: 0x3832F, size: 0x8, addend: 0x0, symName: __ZNSt3__112__value_typeIPKcP13ProfilerStatsE11__get_valueB8ue170006Ev, symObjAddr: 0x346C, symBinAddr: 0x100006178, symSize: 0x24 }
  - { offsetInCU: 0x38355, offset: 0x38355, size: 0x8, addend: 0x0, symName: __ZNSt3__19allocatorINS_11__tree_nodeINS_12__value_typeIPKcP13ProfilerStatsEEPvEEE10deallocateB8ue170006EPS9_m, symObjAddr: 0x34C8, symBinAddr: 0x1000061D4, symSize: 0x44 }
  - { offsetInCU: 0x38397, offset: 0x38397, size: 0x8, addend: 0x0, symName: __ZNKSt3__16__treeINS_12__value_typeIPKcP13ProfilerStatsEENS_19__map_value_compareIS3_S6_NS_4lessIS3_EELb1EEENS_9allocatorIS6_EEE10__end_nodeB8ue170006Ev, symObjAddr: 0x3634, symBinAddr: 0x100006340, symSize: 0x2C }
  - { offsetInCU: 0x383BD, offset: 0x383BD, size: 0x8, addend: 0x0, symName: __ZNKSt3__117__compressed_pairINS_15__tree_end_nodeIPNS_16__tree_node_baseIPvEEEENS_9allocatorINS_11__tree_nodeINS_12__value_typeIPKcP13ProfilerStatsEES3_EEEEE5firstB8ue170006Ev, symObjAddr: 0x3660, symBinAddr: 0x10000636C, symSize: 0x24 }
  - { offsetInCU: 0x383E3, offset: 0x383E3, size: 0x8, addend: 0x0, symName: __ZNKSt3__122__compressed_pair_elemINS_15__tree_end_nodeIPNS_16__tree_node_baseIPvEEEELi0ELb0EE5__getB8ue170006Ev, symObjAddr: 0x3684, symBinAddr: 0x100006390, symSize: 0x14 }
  - { offsetInCU: 0x38409, offset: 0x38409, size: 0x8, addend: 0x0, symName: __ZNSt3__16vectorI15TimeRecordStartNS_9allocatorIS1_EEED2B8ue170006Ev, symObjAddr: 0x3698, symBinAddr: 0x1000063A4, symSize: 0x44 }
  - { offsetInCU: 0x38433, offset: 0x38433, size: 0x8, addend: 0x0, symName: __ZNSt3__16vectorI15TimeRecordStartNS_9allocatorIS1_EEE16__destroy_vectorC1B8ue170006ERS4_, symObjAddr: 0x36DC, symBinAddr: 0x1000063E8, symSize: 0x34 }
  - { offsetInCU: 0x3846C, offset: 0x3846C, size: 0x8, addend: 0x0, symName: __ZNSt3__16vectorI15TimeRecordStartNS_9allocatorIS1_EEE16__destroy_vectorclB8ue170006Ev, symObjAddr: 0x3710, symBinAddr: 0x10000641C, symSize: 0x90 }
  - { offsetInCU: 0x38492, offset: 0x38492, size: 0x8, addend: 0x0, symName: __ZNSt3__16vectorI15TimeRecordStartNS_9allocatorIS1_EEE16__destroy_vectorC2B8ue170006ERS4_, symObjAddr: 0x37A0, symBinAddr: 0x1000064AC, symSize: 0x20 }
  - { offsetInCU: 0x384CB, offset: 0x384CB, size: 0x8, addend: 0x0, symName: __ZNSt3__16vectorI15TimeRecordStartNS_9allocatorIS1_EEE7__clearB8ue170006Ev, symObjAddr: 0x37C0, symBinAddr: 0x1000064CC, symSize: 0x28 }
  - { offsetInCU: 0x384F1, offset: 0x384F1, size: 0x8, addend: 0x0, symName: __ZNKSt3__16vectorI15TimeRecordStartNS_9allocatorIS1_EEE17__annotate_deleteB8ue170006Ev, symObjAddr: 0x37E8, symBinAddr: 0x1000064F4, symSize: 0xB8 }
  - { offsetInCU: 0x38517, offset: 0x38517, size: 0x8, addend: 0x0, symName: __ZNSt3__116allocator_traitsINS_9allocatorI15TimeRecordStartEEE10deallocateB8ue170006ERS3_PS2_m, symObjAddr: 0x38A0, symBinAddr: 0x1000065AC, symSize: 0x34 }
  - { offsetInCU: 0x38559, offset: 0x38559, size: 0x8, addend: 0x0, symName: __ZNSt3__16vectorI15TimeRecordStartNS_9allocatorIS1_EEE7__allocB8ue170006Ev, symObjAddr: 0x38D4, symBinAddr: 0x1000065E0, symSize: 0x28 }
  - { offsetInCU: 0x3857F, offset: 0x3857F, size: 0x8, addend: 0x0, symName: __ZNKSt3__16vectorI15TimeRecordStartNS_9allocatorIS1_EEE8capacityB8ue170006Ev, symObjAddr: 0x38FC, symBinAddr: 0x100006608, symSize: 0x40 }
  - { offsetInCU: 0x385A5, offset: 0x385A5, size: 0x8, addend: 0x0, symName: __ZNSt3__16vectorI15TimeRecordStartNS_9allocatorIS1_EEE22__base_destruct_at_endB8ue170006EPS1_, symObjAddr: 0x393C, symBinAddr: 0x100006648, symSize: 0x8C }
  - { offsetInCU: 0x385E9, offset: 0x385E9, size: 0x8, addend: 0x0, symName: __ZNSt3__116allocator_traitsINS_9allocatorI15TimeRecordStartEEE7destroyB8ue170006IS2_vEEvRS3_PT_, symObjAddr: 0x39C8, symBinAddr: 0x1000066D4, symSize: 0x2C }
  - { offsetInCU: 0x38626, offset: 0x38626, size: 0x8, addend: 0x0, symName: __ZNSt3__19allocatorI15TimeRecordStartE7destroyB8ue170006EPS1_, symObjAddr: 0x3A08, symBinAddr: 0x100006714, symSize: 0x28 }
  - { offsetInCU: 0x3865A, offset: 0x3865A, size: 0x8, addend: 0x0, symName: __ZNKSt3__16vectorI15TimeRecordStartNS_9allocatorIS1_EEE31__annotate_contiguous_containerB8ue170006EPKvS6_S6_S6_, symObjAddr: 0x3A30, symBinAddr: 0x10000673C, symSize: 0x20 }
  - { offsetInCU: 0x386B0, offset: 0x386B0, size: 0x8, addend: 0x0, symName: __ZNKSt3__16vectorI15TimeRecordStartNS_9allocatorIS1_EEE4dataB8ue170006Ev, symObjAddr: 0x3A50, symBinAddr: 0x10000675C, symSize: 0x28 }
  - { offsetInCU: 0x386D6, offset: 0x386D6, size: 0x8, addend: 0x0, symName: __ZNSt3__19allocatorI15TimeRecordStartE10deallocateB8ue170006EPS1_m, symObjAddr: 0x3A78, symBinAddr: 0x100006784, symSize: 0x40 }
  - { offsetInCU: 0x38718, offset: 0x38718, size: 0x8, addend: 0x0, symName: __ZNSt3__117__compressed_pairIP15TimeRecordStartNS_9allocatorIS1_EEE6secondB8ue170006Ev, symObjAddr: 0x3AB8, symBinAddr: 0x1000067C4, symSize: 0x24 }
  - { offsetInCU: 0x3873E, offset: 0x3873E, size: 0x8, addend: 0x0, symName: __ZNSt3__122__compressed_pair_elemINS_9allocatorI15TimeRecordStartEELi1ELb1EE5__getB8ue170006Ev, symObjAddr: 0x3ADC, symBinAddr: 0x1000067E8, symSize: 0x14 }
  - { offsetInCU: 0x38764, offset: 0x38764, size: 0x8, addend: 0x0, symName: __ZNKSt3__16vectorI15TimeRecordStartNS_9allocatorIS1_EEE9__end_capB8ue170006Ev, symObjAddr: 0x3AF0, symBinAddr: 0x1000067FC, symSize: 0x28 }
  - { offsetInCU: 0x3878A, offset: 0x3878A, size: 0x8, addend: 0x0, symName: __ZNKSt3__117__compressed_pairIP15TimeRecordStartNS_9allocatorIS1_EEE5firstB8ue170006Ev, symObjAddr: 0x3B18, symBinAddr: 0x100006824, symSize: 0x24 }
  - { offsetInCU: 0x387B0, offset: 0x387B0, size: 0x8, addend: 0x0, symName: __ZNKSt3__122__compressed_pair_elemIP15TimeRecordStartLi0ELb0EE5__getB8ue170006Ev, symObjAddr: 0x3B3C, symBinAddr: 0x100006848, symSize: 0x14 }
  - { offsetInCU: 0x387D6, offset: 0x387D6, size: 0x8, addend: 0x0, symName: __ZNSt3__16vectorI14TimeRecordStopNS_9allocatorIS1_EEED2B8ue170006Ev, symObjAddr: 0x3B50, symBinAddr: 0x10000685C, symSize: 0x44 }
  - { offsetInCU: 0x38800, offset: 0x38800, size: 0x8, addend: 0x0, symName: __ZNSt3__16vectorI14TimeRecordStopNS_9allocatorIS1_EEE16__destroy_vectorC1B8ue170006ERS4_, symObjAddr: 0x3B94, symBinAddr: 0x1000068A0, symSize: 0x34 }
  - { offsetInCU: 0x38839, offset: 0x38839, size: 0x8, addend: 0x0, symName: __ZNSt3__16vectorI14TimeRecordStopNS_9allocatorIS1_EEE16__destroy_vectorclB8ue170006Ev, symObjAddr: 0x3BC8, symBinAddr: 0x1000068D4, symSize: 0x90 }
  - { offsetInCU: 0x3885F, offset: 0x3885F, size: 0x8, addend: 0x0, symName: __ZNSt3__16vectorI14TimeRecordStopNS_9allocatorIS1_EEE16__destroy_vectorC2B8ue170006ERS4_, symObjAddr: 0x3C58, symBinAddr: 0x100006964, symSize: 0x20 }
  - { offsetInCU: 0x38898, offset: 0x38898, size: 0x8, addend: 0x0, symName: __ZNSt3__16vectorI14TimeRecordStopNS_9allocatorIS1_EEE7__clearB8ue170006Ev, symObjAddr: 0x3C78, symBinAddr: 0x100006984, symSize: 0x28 }
  - { offsetInCU: 0x388BE, offset: 0x388BE, size: 0x8, addend: 0x0, symName: __ZNKSt3__16vectorI14TimeRecordStopNS_9allocatorIS1_EEE17__annotate_deleteB8ue170006Ev, symObjAddr: 0x3CA0, symBinAddr: 0x1000069AC, symSize: 0xD4 }
  - { offsetInCU: 0x388E4, offset: 0x388E4, size: 0x8, addend: 0x0, symName: __ZNSt3__116allocator_traitsINS_9allocatorI14TimeRecordStopEEE10deallocateB8ue170006ERS3_PS2_m, symObjAddr: 0x3D74, symBinAddr: 0x100006A80, symSize: 0x34 }
  - { offsetInCU: 0x38926, offset: 0x38926, size: 0x8, addend: 0x0, symName: __ZNSt3__16vectorI14TimeRecordStopNS_9allocatorIS1_EEE7__allocB8ue170006Ev, symObjAddr: 0x3DA8, symBinAddr: 0x100006AB4, symSize: 0x28 }
  - { offsetInCU: 0x3894C, offset: 0x3894C, size: 0x8, addend: 0x0, symName: __ZNKSt3__16vectorI14TimeRecordStopNS_9allocatorIS1_EEE8capacityB8ue170006Ev, symObjAddr: 0x3DD0, symBinAddr: 0x100006ADC, symSize: 0x40 }
  - { offsetInCU: 0x38972, offset: 0x38972, size: 0x8, addend: 0x0, symName: __ZNSt3__16vectorI14TimeRecordStopNS_9allocatorIS1_EEE22__base_destruct_at_endB8ue170006EPS1_, symObjAddr: 0x3E10, symBinAddr: 0x100006B1C, symSize: 0x8C }
  - { offsetInCU: 0x389B6, offset: 0x389B6, size: 0x8, addend: 0x0, symName: __ZNSt3__116allocator_traitsINS_9allocatorI14TimeRecordStopEEE7destroyB8ue170006IS2_vEEvRS3_PT_, symObjAddr: 0x3E9C, symBinAddr: 0x100006BA8, symSize: 0x2C }
  - { offsetInCU: 0x389F3, offset: 0x389F3, size: 0x8, addend: 0x0, symName: __ZNSt3__19allocatorI14TimeRecordStopE7destroyB8ue170006EPS1_, symObjAddr: 0x3EDC, symBinAddr: 0x100006BE8, symSize: 0x28 }
  - { offsetInCU: 0x38A27, offset: 0x38A27, size: 0x8, addend: 0x0, symName: __ZNKSt3__16vectorI14TimeRecordStopNS_9allocatorIS1_EEE31__annotate_contiguous_containerB8ue170006EPKvS6_S6_S6_, symObjAddr: 0x3F04, symBinAddr: 0x100006C10, symSize: 0x20 }
  - { offsetInCU: 0x38A7D, offset: 0x38A7D, size: 0x8, addend: 0x0, symName: __ZNKSt3__16vectorI14TimeRecordStopNS_9allocatorIS1_EEE4dataB8ue170006Ev, symObjAddr: 0x3F24, symBinAddr: 0x100006C30, symSize: 0x28 }
  - { offsetInCU: 0x38AA3, offset: 0x38AA3, size: 0x8, addend: 0x0, symName: __ZNKSt3__16vectorI14TimeRecordStopNS_9allocatorIS1_EEE4sizeB8ue170006Ev, symObjAddr: 0x3F4C, symBinAddr: 0x100006C58, symSize: 0x28 }
  - { offsetInCU: 0x38AC9, offset: 0x38AC9, size: 0x8, addend: 0x0, symName: __ZNSt3__19allocatorI14TimeRecordStopE10deallocateB8ue170006EPS1_m, symObjAddr: 0x3F74, symBinAddr: 0x100006C80, symSize: 0x44 }
  - { offsetInCU: 0x38B0B, offset: 0x38B0B, size: 0x8, addend: 0x0, symName: __ZNSt3__117__compressed_pairIP14TimeRecordStopNS_9allocatorIS1_EEE6secondB8ue170006Ev, symObjAddr: 0x3FB8, symBinAddr: 0x100006CC4, symSize: 0x24 }
  - { offsetInCU: 0x38B31, offset: 0x38B31, size: 0x8, addend: 0x0, symName: __ZNSt3__122__compressed_pair_elemINS_9allocatorI14TimeRecordStopEELi1ELb1EE5__getB8ue170006Ev, symObjAddr: 0x3FDC, symBinAddr: 0x100006CE8, symSize: 0x14 }
  - { offsetInCU: 0x38B57, offset: 0x38B57, size: 0x8, addend: 0x0, symName: __ZNKSt3__16vectorI14TimeRecordStopNS_9allocatorIS1_EEE9__end_capB8ue170006Ev, symObjAddr: 0x3FF0, symBinAddr: 0x100006CFC, symSize: 0x28 }
  - { offsetInCU: 0x38B7D, offset: 0x38B7D, size: 0x8, addend: 0x0, symName: __ZNKSt3__117__compressed_pairIP14TimeRecordStopNS_9allocatorIS1_EEE5firstB8ue170006Ev, symObjAddr: 0x4018, symBinAddr: 0x100006D24, symSize: 0x24 }
  - { offsetInCU: 0x38BA3, offset: 0x38BA3, size: 0x8, addend: 0x0, symName: __ZNKSt3__122__compressed_pair_elemIP14TimeRecordStopLi0ELb0EE5__getB8ue170006Ev, symObjAddr: 0x403C, symBinAddr: 0x100006D48, symSize: 0x14 }
  - { offsetInCU: 0x38BC9, offset: 0x38BC9, size: 0x8, addend: 0x0, symName: __ZNKSt3__16vectorI15TimeRecordStartNS_9allocatorIS1_EEE8max_sizeEv, symObjAddr: 0x4050, symBinAddr: 0x100006D5C, symSize: 0x60 }
  - { offsetInCU: 0x38BF1, offset: 0x38BF1, size: 0x8, addend: 0x0, symName: __ZNKSt3__16vectorI15TimeRecordStartNS_9allocatorIS1_EEE20__throw_length_errorB8ue170006Ev, symObjAddr: 0x40B0, symBinAddr: 0x100006DBC, symSize: 0x1C }
  - { offsetInCU: 0x38C17, offset: 0x38C17, size: 0x8, addend: 0x0, symName: __ZNSt3__114__split_bufferI15TimeRecordStartRNS_9allocatorIS1_EEEC1EmmS4_, symObjAddr: 0x40CC, symBinAddr: 0x100006DD8, symSize: 0x44 }
  - { offsetInCU: 0x38C6D, offset: 0x38C6D, size: 0x8, addend: 0x0, symName: __ZNSt3__114__split_bufferI15TimeRecordStartRNS_9allocatorIS1_EEED1Ev, symObjAddr: 0x4220, symBinAddr: 0x100006F2C, symSize: 0x2C }
  - { offsetInCU: 0x38CA5, offset: 0x38CA5, size: 0x8, addend: 0x0, symName: __ZNSt3__116allocator_traitsINS_9allocatorI15TimeRecordStartEEE8max_sizeB8ue170006IS3_vEEmRKS3_, symObjAddr: 0x4278, symBinAddr: 0x100006F84, symSize: 0x24 }
  - { offsetInCU: 0x38CD3, offset: 0x38CD3, size: 0x8, addend: 0x0, symName: __ZNKSt3__16vectorI15TimeRecordStartNS_9allocatorIS1_EEE7__allocB8ue170006Ev, symObjAddr: 0x429C, symBinAddr: 0x100006FA8, symSize: 0x28 }
  - { offsetInCU: 0x38CF9, offset: 0x38CF9, size: 0x8, addend: 0x0, symName: __ZNSt3__114numeric_limitsIlE3maxB8ue170006Ev, symObjAddr: 0x42C4, symBinAddr: 0x100006FD0, symSize: 0x14 }
  - { offsetInCU: 0x38D18, offset: 0x38D18, size: 0x8, addend: 0x0, symName: __ZNKSt3__16__lessIvvEclB8ue170006ImmEEbRKT_RKT0_, symObjAddr: 0x432C, symBinAddr: 0x100007038, symSize: 0x34 }
  - { offsetInCU: 0x38D6C, offset: 0x38D6C, size: 0x8, addend: 0x0, symName: __ZNKSt3__19allocatorI15TimeRecordStartE8max_sizeB8ue170006Ev, symObjAddr: 0x4360, symBinAddr: 0x10000706C, symSize: 0x14 }
  - { offsetInCU: 0x38D92, offset: 0x38D92, size: 0x8, addend: 0x0, symName: __ZNKSt3__117__compressed_pairIP15TimeRecordStartNS_9allocatorIS1_EEE6secondB8ue170006Ev, symObjAddr: 0x4374, symBinAddr: 0x100007080, symSize: 0x24 }
  - { offsetInCU: 0x38DB8, offset: 0x38DB8, size: 0x8, addend: 0x0, symName: __ZNKSt3__122__compressed_pair_elemINS_9allocatorI15TimeRecordStartEELi1ELb1EE5__getB8ue170006Ev, symObjAddr: 0x4398, symBinAddr: 0x1000070A4, symSize: 0x14 }
  - { offsetInCU: 0x38DDE, offset: 0x38DDE, size: 0x8, addend: 0x0, symName: __ZNSt3__123__libcpp_numeric_limitsIlLb1EE3maxB8ue170006Ev, symObjAddr: 0x43AC, symBinAddr: 0x1000070B8, symSize: 0x8 }
  - { offsetInCU: 0x38DF2, offset: 0x38DF2, size: 0x8, addend: 0x0, symName: __ZNSt12length_errorC1B8ue170006EPKc, symObjAddr: 0x4418, symBinAddr: 0x100007124, symSize: 0x34 }
  - { offsetInCU: 0x38E2A, offset: 0x38E2A, size: 0x8, addend: 0x0, symName: __ZNSt12length_errorC2B8ue170006EPKc, symObjAddr: 0x444C, symBinAddr: 0x100007158, symSize: 0x4C }
  - { offsetInCU: 0x38E62, offset: 0x38E62, size: 0x8, addend: 0x0, symName: __ZNSt3__114__split_bufferI15TimeRecordStartRNS_9allocatorIS1_EEEC2EmmS4_, symObjAddr: 0x4498, symBinAddr: 0x1000071A4, symSize: 0xD4 }
  - { offsetInCU: 0x38ED5, offset: 0x38ED5, size: 0x8, addend: 0x0, symName: __ZNSt3__117__compressed_pairIP15TimeRecordStartRNS_9allocatorIS1_EEEC1B8ue170006IDnS5_EEOT_OT0_, symObjAddr: 0x456C, symBinAddr: 0x100007278, symSize: 0x3C }
  - { offsetInCU: 0x38F2D, offset: 0x38F2D, size: 0x8, addend: 0x0, symName: __ZNSt3__114__split_bufferI15TimeRecordStartRNS_9allocatorIS1_EEE7__allocB8ue170006Ev, symObjAddr: 0x45E8, symBinAddr: 0x1000072F4, symSize: 0x28 }
  - { offsetInCU: 0x38F53, offset: 0x38F53, size: 0x8, addend: 0x0, symName: __ZNSt3__114__split_bufferI15TimeRecordStartRNS_9allocatorIS1_EEE9__end_capB8ue170006Ev, symObjAddr: 0x4610, symBinAddr: 0x10000731C, symSize: 0x28 }
  - { offsetInCU: 0x38F79, offset: 0x38F79, size: 0x8, addend: 0x0, symName: __ZNSt3__117__compressed_pairIP15TimeRecordStartRNS_9allocatorIS1_EEEC2B8ue170006IDnS5_EEOT_OT0_, symObjAddr: 0x4638, symBinAddr: 0x100007344, symSize: 0x48 }
  - { offsetInCU: 0x38FD1, offset: 0x38FD1, size: 0x8, addend: 0x0, symName: __ZNSt3__122__compressed_pair_elemIRNS_9allocatorI15TimeRecordStartEELi1ELb0EEC2B8ue170006IS4_vEEOT_, symObjAddr: 0x4680, symBinAddr: 0x10000738C, symSize: 0x20 }
  - { offsetInCU: 0x39013, offset: 0x39013, size: 0x8, addend: 0x0, symName: __ZNSt3__19allocatorI15TimeRecordStartE8allocateB8ue170006Em, symObjAddr: 0x46A0, symBinAddr: 0x1000073AC, symSize: 0x58 }
  - { offsetInCU: 0x39047, offset: 0x39047, size: 0x8, addend: 0x0, symName: __ZNSt3__117__compressed_pairIP15TimeRecordStartRNS_9allocatorIS1_EEE6secondB8ue170006Ev, symObjAddr: 0x47DC, symBinAddr: 0x1000074E8, symSize: 0x28 }
  - { offsetInCU: 0x3906D, offset: 0x3906D, size: 0x8, addend: 0x0, symName: __ZNSt3__122__compressed_pair_elemIRNS_9allocatorI15TimeRecordStartEELi1ELb0EE5__getB8ue170006Ev, symObjAddr: 0x4804, symBinAddr: 0x100007510, symSize: 0x18 }
  - { offsetInCU: 0x39093, offset: 0x39093, size: 0x8, addend: 0x0, symName: __ZNSt3__117__compressed_pairIP15TimeRecordStartRNS_9allocatorIS1_EEE5firstB8ue170006Ev, symObjAddr: 0x481C, symBinAddr: 0x100007528, symSize: 0x24 }
  - { offsetInCU: 0x390B9, offset: 0x390B9, size: 0x8, addend: 0x0, symName: __ZNSt3__122__compressed_pair_elemIP15TimeRecordStartLi0ELb0EE5__getB8ue170006Ev, symObjAddr: 0x4840, symBinAddr: 0x10000754C, symSize: 0x14 }
  - { offsetInCU: 0x390DF, offset: 0x390DF, size: 0x8, addend: 0x0, symName: __ZNSt3__116reverse_iteratorIP15TimeRecordStartEC1B8ue170006ES2_, symObjAddr: 0x4980, symBinAddr: 0x10000768C, symSize: 0x34 }
  - { offsetInCU: 0x39117, offset: 0x39117, size: 0x8, addend: 0x0, symName: __ZNKSt3__116reverse_iteratorIP15TimeRecordStartE4baseB8ue170006Ev, symObjAddr: 0x49B4, symBinAddr: 0x1000076C0, symSize: 0x18 }
  - { offsetInCU: 0x3913D, offset: 0x3913D, size: 0x8, addend: 0x0, symName: __ZNSt3__16vectorI15TimeRecordStartNS_9allocatorIS1_EEE9__end_capB8ue170006Ev, symObjAddr: 0x4A08, symBinAddr: 0x100007714, symSize: 0x28 }
  - { offsetInCU: 0x39163, offset: 0x39163, size: 0x8, addend: 0x0, symName: __ZNKSt3__16vectorI15TimeRecordStartNS_9allocatorIS1_EEE14__annotate_newB8ue170006Em, symObjAddr: 0x4A30, symBinAddr: 0x10000773C, symSize: 0xAC }
  - { offsetInCU: 0x39198, offset: 0x39198, size: 0x8, addend: 0x0, symName: __ZNSt3__129_AllocatorDestroyRangeReverseINS_9allocatorI15TimeRecordStartEENS_16reverse_iteratorIPS2_EEEC1B8ue170006ERS3_RS6_S9_, symObjAddr: 0x4B28, symBinAddr: 0x100007834, symSize: 0x44 }
  - { offsetInCU: 0x391F5, offset: 0x391F5, size: 0x8, addend: 0x0, symName: __ZNSt3__116allocator_traitsINS_9allocatorI15TimeRecordStartEEE9constructB8ue170006IS2_JS2_EvEEvRS3_PT_DpOT0_, symObjAddr: 0x4BB4, symBinAddr: 0x1000078C0, symSize: 0x34 }
  - { offsetInCU: 0x3924C, offset: 0x3924C, size: 0x8, addend: 0x0, symName: __ZNKSt3__116reverse_iteratorIP15TimeRecordStartEdeB8ue170006Ev, symObjAddr: 0x4C0C, symBinAddr: 0x100007918, symSize: 0x28 }
  - { offsetInCU: 0x39280, offset: 0x39280, size: 0x8, addend: 0x0, symName: __ZNSt3__116reverse_iteratorIP15TimeRecordStartEppB8ue170006Ev, symObjAddr: 0x4C34, symBinAddr: 0x100007940, symSize: 0x20 }
  - { offsetInCU: 0x392A6, offset: 0x392A6, size: 0x8, addend: 0x0, symName: __ZNSt3__128__exception_guard_exceptionsINS_29_AllocatorDestroyRangeReverseINS_9allocatorI15TimeRecordStartEENS_16reverse_iteratorIPS3_EEEEE10__completeB8ue170006Ev, symObjAddr: 0x4C54, symBinAddr: 0x100007960, symSize: 0x1C }
  - { offsetInCU: 0x392CC, offset: 0x392CC, size: 0x8, addend: 0x0, symName: __ZNSt3__128__exception_guard_exceptionsINS_29_AllocatorDestroyRangeReverseINS_9allocatorI15TimeRecordStartEENS_16reverse_iteratorIPS3_EEEEED1B8ue170006Ev, symObjAddr: 0x4C70, symBinAddr: 0x10000797C, symSize: 0x2C }
  - { offsetInCU: 0x392F6, offset: 0x392F6, size: 0x8, addend: 0x0, symName: __ZNSt3__128__exception_guard_exceptionsINS_29_AllocatorDestroyRangeReverseINS_9allocatorI15TimeRecordStartEENS_16reverse_iteratorIPS3_EEEEEC1B8ue170006ES8_, symObjAddr: 0x4C9C, symBinAddr: 0x1000079A8, symSize: 0x34 }
  - { offsetInCU: 0x3932F, offset: 0x3932F, size: 0x8, addend: 0x0, symName: __ZNSt3__128__exception_guard_exceptionsINS_29_AllocatorDestroyRangeReverseINS_9allocatorI15TimeRecordStartEENS_16reverse_iteratorIPS3_EEEEEC2B8ue170006ES8_, symObjAddr: 0x4CD0, symBinAddr: 0x1000079DC, symSize: 0x30 }
  - { offsetInCU: 0x39368, offset: 0x39368, size: 0x8, addend: 0x0, symName: __ZNSt3__129_AllocatorDestroyRangeReverseINS_9allocatorI15TimeRecordStartEENS_16reverse_iteratorIPS2_EEEC2B8ue170006ERS3_RS6_S9_, symObjAddr: 0x4D00, symBinAddr: 0x100007A0C, symSize: 0x38 }
  - { offsetInCU: 0x393BF, offset: 0x393BF, size: 0x8, addend: 0x0, symName: __ZNSt3__19allocatorI15TimeRecordStartE9constructB8ue170006IS1_JS1_EEEvPT_DpOT0_, symObjAddr: 0x4D38, symBinAddr: 0x100007A44, symSize: 0x28 }
  - { offsetInCU: 0x3941B, offset: 0x3941B, size: 0x8, addend: 0x0, symName: __ZNSt3__119__to_address_helperINS_16reverse_iteratorIP15TimeRecordStartEEvE6__callB8ue170006ERKS4_, symObjAddr: 0x4D60, symBinAddr: 0x100007A6C, symSize: 0x38 }
  - { offsetInCU: 0x3943E, offset: 0x3943E, size: 0x8, addend: 0x0, symName: __ZNKSt3__116reverse_iteratorIP15TimeRecordStartEptB8ue170006Ev, symObjAddr: 0x4D98, symBinAddr: 0x100007AA4, symSize: 0x24 }
  - { offsetInCU: 0x39464, offset: 0x39464, size: 0x8, addend: 0x0, symName: __ZNSt3__128__exception_guard_exceptionsINS_29_AllocatorDestroyRangeReverseINS_9allocatorI15TimeRecordStartEENS_16reverse_iteratorIPS3_EEEEED2B8ue170006Ev, symObjAddr: 0x4DBC, symBinAddr: 0x100007AC8, symSize: 0x50 }
  - { offsetInCU: 0x3948E, offset: 0x3948E, size: 0x8, addend: 0x0, symName: __ZNKSt3__129_AllocatorDestroyRangeReverseINS_9allocatorI15TimeRecordStartEENS_16reverse_iteratorIPS2_EEEclB8ue170006Ev, symObjAddr: 0x4E0C, symBinAddr: 0x100007B18, symSize: 0xB4 }
  - { offsetInCU: 0x394B5, offset: 0x394B5, size: 0x8, addend: 0x0, symName: __ZNSt3__116reverse_iteratorINS0_IP15TimeRecordStartEEEC1B8ue170006ES3_, symObjAddr: 0x4F30, symBinAddr: 0x100007C3C, symSize: 0x3C }
  - { offsetInCU: 0x394ED, offset: 0x394ED, size: 0x8, addend: 0x0, symName: __ZNSt3__116reverse_iteratorINS0_IP15TimeRecordStartEEEppB8ue170006Ev, symObjAddr: 0x4FF0, symBinAddr: 0x100007CFC, symSize: 0x30 }
  - { offsetInCU: 0x39513, offset: 0x39513, size: 0x8, addend: 0x0, symName: __ZNKSt3__116reverse_iteratorINS0_IP15TimeRecordStartEEE4baseB8ue170006Ev, symObjAddr: 0x5020, symBinAddr: 0x100007D2C, symSize: 0x24 }
  - { offsetInCU: 0x3953F, offset: 0x3953F, size: 0x8, addend: 0x0, symName: __ZNSt3__119__to_address_helperINS_16reverse_iteratorINS1_IP15TimeRecordStartEEEEvE6__callB8ue170006ERKS5_, symObjAddr: 0x5044, symBinAddr: 0x100007D50, symSize: 0x38 }
  - { offsetInCU: 0x39562, offset: 0x39562, size: 0x8, addend: 0x0, symName: __ZNKSt3__116reverse_iteratorINS0_IP15TimeRecordStartEEEptB8ue170006Ev, symObjAddr: 0x507C, symBinAddr: 0x100007D88, symSize: 0x24 }
  - { offsetInCU: 0x39588, offset: 0x39588, size: 0x8, addend: 0x0, symName: __ZNKSt3__116reverse_iteratorINS0_IP15TimeRecordStartEEEdeB8ue170006Ev, symObjAddr: 0x50A0, symBinAddr: 0x100007DAC, symSize: 0x34 }
  - { offsetInCU: 0x395BC, offset: 0x395BC, size: 0x8, addend: 0x0, symName: __ZNSt3__116reverse_iteratorIP15TimeRecordStartEmmB8ue170006Ev, symObjAddr: 0x50D4, symBinAddr: 0x100007DE0, symSize: 0x20 }
  - { offsetInCU: 0x395E2, offset: 0x395E2, size: 0x8, addend: 0x0, symName: __ZNSt3__116reverse_iteratorINS0_IP15TimeRecordStartEEEC2B8ue170006ES3_, symObjAddr: 0x50F4, symBinAddr: 0x100007E00, symSize: 0x2C }
  - { offsetInCU: 0x3961A, offset: 0x3961A, size: 0x8, addend: 0x0, symName: __ZNSt3__116reverse_iteratorIP15TimeRecordStartEC2B8ue170006ES2_, symObjAddr: 0x5120, symBinAddr: 0x100007E2C, symSize: 0x28 }
  - { offsetInCU: 0x39652, offset: 0x39652, size: 0x8, addend: 0x0, symName: __ZNSt3__117__compressed_pairIP15TimeRecordStartNS_9allocatorIS1_EEE5firstB8ue170006Ev, symObjAddr: 0x5148, symBinAddr: 0x100007E54, symSize: 0x24 }
  - { offsetInCU: 0x39678, offset: 0x39678, size: 0x8, addend: 0x0, symName: __ZNSt3__114__split_bufferI15TimeRecordStartRNS_9allocatorIS1_EEED2Ev, symObjAddr: 0x516C, symBinAddr: 0x100007E78, symSize: 0x8C }
  - { offsetInCU: 0x396A4, offset: 0x396A4, size: 0x8, addend: 0x0, symName: __ZNSt3__114__split_bufferI15TimeRecordStartRNS_9allocatorIS1_EEE5clearB8ue170006Ev, symObjAddr: 0x51F8, symBinAddr: 0x100007F04, symSize: 0x28 }
  - { offsetInCU: 0x396CA, offset: 0x396CA, size: 0x8, addend: 0x0, symName: __ZNKSt3__114__split_bufferI15TimeRecordStartRNS_9allocatorIS1_EEE8capacityB8ue170006Ev, symObjAddr: 0x5220, symBinAddr: 0x100007F2C, symSize: 0x40 }
  - { offsetInCU: 0x396F0, offset: 0x396F0, size: 0x8, addend: 0x0, symName: __ZNSt3__114__split_bufferI15TimeRecordStartRNS_9allocatorIS1_EEE17__destruct_at_endB8ue170006EPS1_, symObjAddr: 0x5260, symBinAddr: 0x100007F6C, symSize: 0x2C }
  - { offsetInCU: 0x39724, offset: 0x39724, size: 0x8, addend: 0x0, symName: __ZNSt3__114__split_bufferI15TimeRecordStartRNS_9allocatorIS1_EEE17__destruct_at_endB8ue170006EPS1_NS_17integral_constantIbLb0EEE, symObjAddr: 0x528C, symBinAddr: 0x100007F98, symSize: 0x80 }
  - { offsetInCU: 0x39765, offset: 0x39765, size: 0x8, addend: 0x0, symName: __ZNKSt3__114__split_bufferI15TimeRecordStartRNS_9allocatorIS1_EEE9__end_capB8ue170006Ev, symObjAddr: 0x530C, symBinAddr: 0x100008018, symSize: 0x28 }
  - { offsetInCU: 0x3978B, offset: 0x3978B, size: 0x8, addend: 0x0, symName: __ZNKSt3__117__compressed_pairIP15TimeRecordStartRNS_9allocatorIS1_EEE5firstB8ue170006Ev, symObjAddr: 0x5334, symBinAddr: 0x100008040, symSize: 0x24 }
  - { offsetInCU: 0x397B1, offset: 0x397B1, size: 0x8, addend: 0x0, symName: __ZNKSt3__16vectorI14TimeRecordStopNS_9allocatorIS1_EEE8max_sizeEv, symObjAddr: 0x5358, symBinAddr: 0x100008064, symSize: 0x60 }
  - { offsetInCU: 0x397D9, offset: 0x397D9, size: 0x8, addend: 0x0, symName: __ZNKSt3__16vectorI14TimeRecordStopNS_9allocatorIS1_EEE20__throw_length_errorB8ue170006Ev, symObjAddr: 0x53B8, symBinAddr: 0x1000080C4, symSize: 0x1C }
  - { offsetInCU: 0x397FF, offset: 0x397FF, size: 0x8, addend: 0x0, symName: __ZNSt3__114__split_bufferI14TimeRecordStopRNS_9allocatorIS1_EEEC1EmmS4_, symObjAddr: 0x53D4, symBinAddr: 0x1000080E0, symSize: 0x44 }
  - { offsetInCU: 0x39855, offset: 0x39855, size: 0x8, addend: 0x0, symName: __ZNSt3__114__split_bufferI14TimeRecordStopRNS_9allocatorIS1_EEED1Ev, symObjAddr: 0x5528, symBinAddr: 0x100008234, symSize: 0x2C }
  - { offsetInCU: 0x3988D, offset: 0x3988D, size: 0x8, addend: 0x0, symName: __ZNSt3__116allocator_traitsINS_9allocatorI14TimeRecordStopEEE8max_sizeB8ue170006IS3_vEEmRKS3_, symObjAddr: 0x5554, symBinAddr: 0x100008260, symSize: 0x24 }
  - { offsetInCU: 0x398BB, offset: 0x398BB, size: 0x8, addend: 0x0, symName: __ZNKSt3__16vectorI14TimeRecordStopNS_9allocatorIS1_EEE7__allocB8ue170006Ev, symObjAddr: 0x5578, symBinAddr: 0x100008284, symSize: 0x28 }
  - { offsetInCU: 0x398E1, offset: 0x398E1, size: 0x8, addend: 0x0, symName: __ZNKSt3__19allocatorI14TimeRecordStopE8max_sizeB8ue170006Ev, symObjAddr: 0x55A0, symBinAddr: 0x1000082AC, symSize: 0x18 }
  - { offsetInCU: 0x39907, offset: 0x39907, size: 0x8, addend: 0x0, symName: __ZNKSt3__117__compressed_pairIP14TimeRecordStopNS_9allocatorIS1_EEE6secondB8ue170006Ev, symObjAddr: 0x55B8, symBinAddr: 0x1000082C4, symSize: 0x24 }
  - { offsetInCU: 0x3992D, offset: 0x3992D, size: 0x8, addend: 0x0, symName: __ZNKSt3__122__compressed_pair_elemINS_9allocatorI14TimeRecordStopEELi1ELb1EE5__getB8ue170006Ev, symObjAddr: 0x55DC, symBinAddr: 0x1000082E8, symSize: 0x14 }
  - { offsetInCU: 0x39953, offset: 0x39953, size: 0x8, addend: 0x0, symName: __ZNSt3__114__split_bufferI14TimeRecordStopRNS_9allocatorIS1_EEEC2EmmS4_, symObjAddr: 0x55F0, symBinAddr: 0x1000082FC, symSize: 0xE0 }
  - { offsetInCU: 0x399C6, offset: 0x399C6, size: 0x8, addend: 0x0, symName: __ZNSt3__117__compressed_pairIP14TimeRecordStopRNS_9allocatorIS1_EEEC1B8ue170006IDnS5_EEOT_OT0_, symObjAddr: 0x56D0, symBinAddr: 0x1000083DC, symSize: 0x3C }
  - { offsetInCU: 0x39A1E, offset: 0x39A1E, size: 0x8, addend: 0x0, symName: __ZNSt3__114__split_bufferI14TimeRecordStopRNS_9allocatorIS1_EEE7__allocB8ue170006Ev, symObjAddr: 0x574C, symBinAddr: 0x100008458, symSize: 0x28 }
  - { offsetInCU: 0x39A44, offset: 0x39A44, size: 0x8, addend: 0x0, symName: __ZNSt3__114__split_bufferI14TimeRecordStopRNS_9allocatorIS1_EEE9__end_capB8ue170006Ev, symObjAddr: 0x5774, symBinAddr: 0x100008480, symSize: 0x28 }
  - { offsetInCU: 0x39A6A, offset: 0x39A6A, size: 0x8, addend: 0x0, symName: __ZNSt3__117__compressed_pairIP14TimeRecordStopRNS_9allocatorIS1_EEEC2B8ue170006IDnS5_EEOT_OT0_, symObjAddr: 0x579C, symBinAddr: 0x1000084A8, symSize: 0x48 }
  - { offsetInCU: 0x39AC2, offset: 0x39AC2, size: 0x8, addend: 0x0, symName: __ZNSt3__122__compressed_pair_elemIRNS_9allocatorI14TimeRecordStopEELi1ELb0EEC2B8ue170006IS4_vEEOT_, symObjAddr: 0x57E4, symBinAddr: 0x1000084F0, symSize: 0x20 }
  - { offsetInCU: 0x39B04, offset: 0x39B04, size: 0x8, addend: 0x0, symName: __ZNSt3__19allocatorI14TimeRecordStopE8allocateB8ue170006Em, symObjAddr: 0x5804, symBinAddr: 0x100008510, symSize: 0x5C }
  - { offsetInCU: 0x39B38, offset: 0x39B38, size: 0x8, addend: 0x0, symName: __ZNSt3__117__compressed_pairIP14TimeRecordStopRNS_9allocatorIS1_EEE6secondB8ue170006Ev, symObjAddr: 0x5860, symBinAddr: 0x10000856C, symSize: 0x28 }
  - { offsetInCU: 0x39B5E, offset: 0x39B5E, size: 0x8, addend: 0x0, symName: __ZNSt3__122__compressed_pair_elemIRNS_9allocatorI14TimeRecordStopEELi1ELb0EE5__getB8ue170006Ev, symObjAddr: 0x5888, symBinAddr: 0x100008594, symSize: 0x18 }
  - { offsetInCU: 0x39B84, offset: 0x39B84, size: 0x8, addend: 0x0, symName: __ZNSt3__117__compressed_pairIP14TimeRecordStopRNS_9allocatorIS1_EEE5firstB8ue170006Ev, symObjAddr: 0x58A0, symBinAddr: 0x1000085AC, symSize: 0x24 }
  - { offsetInCU: 0x39BAA, offset: 0x39BAA, size: 0x8, addend: 0x0, symName: __ZNSt3__122__compressed_pair_elemIP14TimeRecordStopLi0ELb0EE5__getB8ue170006Ev, symObjAddr: 0x58C4, symBinAddr: 0x1000085D0, symSize: 0x14 }
  - { offsetInCU: 0x39BD0, offset: 0x39BD0, size: 0x8, addend: 0x0, symName: __ZNSt3__116reverse_iteratorIP14TimeRecordStopEC1B8ue170006ES2_, symObjAddr: 0x5A04, symBinAddr: 0x100008710, symSize: 0x34 }
  - { offsetInCU: 0x39C08, offset: 0x39C08, size: 0x8, addend: 0x0, symName: __ZNKSt3__116reverse_iteratorIP14TimeRecordStopE4baseB8ue170006Ev, symObjAddr: 0x5A38, symBinAddr: 0x100008744, symSize: 0x18 }
  - { offsetInCU: 0x39C2E, offset: 0x39C2E, size: 0x8, addend: 0x0, symName: __ZNSt3__16vectorI14TimeRecordStopNS_9allocatorIS1_EEE9__end_capB8ue170006Ev, symObjAddr: 0x5A8C, symBinAddr: 0x100008798, symSize: 0x28 }
  - { offsetInCU: 0x39C54, offset: 0x39C54, size: 0x8, addend: 0x0, symName: __ZNKSt3__16vectorI14TimeRecordStopNS_9allocatorIS1_EEE14__annotate_newB8ue170006Em, symObjAddr: 0x5AB4, symBinAddr: 0x1000087C0, symSize: 0xC8 }
  - { offsetInCU: 0x39C89, offset: 0x39C89, size: 0x8, addend: 0x0, symName: __ZNSt3__129_AllocatorDestroyRangeReverseINS_9allocatorI14TimeRecordStopEENS_16reverse_iteratorIPS2_EEEC1B8ue170006ERS3_RS6_S9_, symObjAddr: 0x5BC8, symBinAddr: 0x1000088D4, symSize: 0x44 }
  - { offsetInCU: 0x39CE6, offset: 0x39CE6, size: 0x8, addend: 0x0, symName: __ZNSt3__116allocator_traitsINS_9allocatorI14TimeRecordStopEEE9constructB8ue170006IS2_JS2_EvEEvRS3_PT_DpOT0_, symObjAddr: 0x5C54, symBinAddr: 0x100008960, symSize: 0x34 }
  - { offsetInCU: 0x39D3D, offset: 0x39D3D, size: 0x8, addend: 0x0, symName: __ZNKSt3__116reverse_iteratorIP14TimeRecordStopEdeB8ue170006Ev, symObjAddr: 0x5CAC, symBinAddr: 0x1000089B8, symSize: 0x28 }
  - { offsetInCU: 0x39D71, offset: 0x39D71, size: 0x8, addend: 0x0, symName: __ZNSt3__116reverse_iteratorIP14TimeRecordStopEppB8ue170006Ev, symObjAddr: 0x5CD4, symBinAddr: 0x1000089E0, symSize: 0x20 }
  - { offsetInCU: 0x39D97, offset: 0x39D97, size: 0x8, addend: 0x0, symName: __ZNSt3__128__exception_guard_exceptionsINS_29_AllocatorDestroyRangeReverseINS_9allocatorI14TimeRecordStopEENS_16reverse_iteratorIPS3_EEEEE10__completeB8ue170006Ev, symObjAddr: 0x5CF4, symBinAddr: 0x100008A00, symSize: 0x1C }
  - { offsetInCU: 0x39DBD, offset: 0x39DBD, size: 0x8, addend: 0x0, symName: __ZNSt3__128__exception_guard_exceptionsINS_29_AllocatorDestroyRangeReverseINS_9allocatorI14TimeRecordStopEENS_16reverse_iteratorIPS3_EEEEED1B8ue170006Ev, symObjAddr: 0x5D10, symBinAddr: 0x100008A1C, symSize: 0x2C }
  - { offsetInCU: 0x39DE7, offset: 0x39DE7, size: 0x8, addend: 0x0, symName: __ZNSt3__128__exception_guard_exceptionsINS_29_AllocatorDestroyRangeReverseINS_9allocatorI14TimeRecordStopEENS_16reverse_iteratorIPS3_EEEEEC1B8ue170006ES8_, symObjAddr: 0x5D3C, symBinAddr: 0x100008A48, symSize: 0x34 }
  - { offsetInCU: 0x39E20, offset: 0x39E20, size: 0x8, addend: 0x0, symName: __ZNSt3__128__exception_guard_exceptionsINS_29_AllocatorDestroyRangeReverseINS_9allocatorI14TimeRecordStopEENS_16reverse_iteratorIPS3_EEEEEC2B8ue170006ES8_, symObjAddr: 0x5D70, symBinAddr: 0x100008A7C, symSize: 0x30 }
  - { offsetInCU: 0x39E59, offset: 0x39E59, size: 0x8, addend: 0x0, symName: __ZNSt3__129_AllocatorDestroyRangeReverseINS_9allocatorI14TimeRecordStopEENS_16reverse_iteratorIPS2_EEEC2B8ue170006ERS3_RS6_S9_, symObjAddr: 0x5DA0, symBinAddr: 0x100008AAC, symSize: 0x38 }
  - { offsetInCU: 0x39EB0, offset: 0x39EB0, size: 0x8, addend: 0x0, symName: __ZNSt3__19allocatorI14TimeRecordStopE9constructB8ue170006IS1_JS1_EEEvPT_DpOT0_, symObjAddr: 0x5DD8, symBinAddr: 0x100008AE4, symSize: 0x34 }
  - { offsetInCU: 0x39F0C, offset: 0x39F0C, size: 0x8, addend: 0x0, symName: __ZNSt3__119__to_address_helperINS_16reverse_iteratorIP14TimeRecordStopEEvE6__callB8ue170006ERKS4_, symObjAddr: 0x5E0C, symBinAddr: 0x100008B18, symSize: 0x38 }
  - { offsetInCU: 0x39F2F, offset: 0x39F2F, size: 0x8, addend: 0x0, symName: __ZNKSt3__116reverse_iteratorIP14TimeRecordStopEptB8ue170006Ev, symObjAddr: 0x5E44, symBinAddr: 0x100008B50, symSize: 0x24 }
  - { offsetInCU: 0x39F55, offset: 0x39F55, size: 0x8, addend: 0x0, symName: __ZNSt3__128__exception_guard_exceptionsINS_29_AllocatorDestroyRangeReverseINS_9allocatorI14TimeRecordStopEENS_16reverse_iteratorIPS3_EEEEED2B8ue170006Ev, symObjAddr: 0x5E68, symBinAddr: 0x100008B74, symSize: 0x50 }
  - { offsetInCU: 0x39F7F, offset: 0x39F7F, size: 0x8, addend: 0x0, symName: __ZNKSt3__129_AllocatorDestroyRangeReverseINS_9allocatorI14TimeRecordStopEENS_16reverse_iteratorIPS2_EEEclB8ue170006Ev, symObjAddr: 0x5EB8, symBinAddr: 0x100008BC4, symSize: 0xB4 }
  - { offsetInCU: 0x39FA6, offset: 0x39FA6, size: 0x8, addend: 0x0, symName: __ZNSt3__116reverse_iteratorINS0_IP14TimeRecordStopEEEC1B8ue170006ES3_, symObjAddr: 0x5FDC, symBinAddr: 0x100008CE8, symSize: 0x3C }
  - { offsetInCU: 0x39FDE, offset: 0x39FDE, size: 0x8, addend: 0x0, symName: __ZNSt3__116reverse_iteratorINS0_IP14TimeRecordStopEEEppB8ue170006Ev, symObjAddr: 0x609C, symBinAddr: 0x100008DA8, symSize: 0x30 }
  - { offsetInCU: 0x3A004, offset: 0x3A004, size: 0x8, addend: 0x0, symName: __ZNKSt3__116reverse_iteratorINS0_IP14TimeRecordStopEEE4baseB8ue170006Ev, symObjAddr: 0x60CC, symBinAddr: 0x100008DD8, symSize: 0x24 }
  - { offsetInCU: 0x3A030, offset: 0x3A030, size: 0x8, addend: 0x0, symName: __ZNSt3__119__to_address_helperINS_16reverse_iteratorINS1_IP14TimeRecordStopEEEEvE6__callB8ue170006ERKS5_, symObjAddr: 0x60F0, symBinAddr: 0x100008DFC, symSize: 0x38 }
  - { offsetInCU: 0x3A053, offset: 0x3A053, size: 0x8, addend: 0x0, symName: __ZNKSt3__116reverse_iteratorINS0_IP14TimeRecordStopEEEptB8ue170006Ev, symObjAddr: 0x6128, symBinAddr: 0x100008E34, symSize: 0x24 }
  - { offsetInCU: 0x3A079, offset: 0x3A079, size: 0x8, addend: 0x0, symName: __ZNKSt3__116reverse_iteratorINS0_IP14TimeRecordStopEEEdeB8ue170006Ev, symObjAddr: 0x614C, symBinAddr: 0x100008E58, symSize: 0x34 }
  - { offsetInCU: 0x3A0AD, offset: 0x3A0AD, size: 0x8, addend: 0x0, symName: __ZNSt3__116reverse_iteratorIP14TimeRecordStopEmmB8ue170006Ev, symObjAddr: 0x6180, symBinAddr: 0x100008E8C, symSize: 0x20 }
  - { offsetInCU: 0x3A0D3, offset: 0x3A0D3, size: 0x8, addend: 0x0, symName: __ZNSt3__116reverse_iteratorINS0_IP14TimeRecordStopEEEC2B8ue170006ES3_, symObjAddr: 0x61A0, symBinAddr: 0x100008EAC, symSize: 0x2C }
  - { offsetInCU: 0x3A10B, offset: 0x3A10B, size: 0x8, addend: 0x0, symName: __ZNSt3__116reverse_iteratorIP14TimeRecordStopEC2B8ue170006ES2_, symObjAddr: 0x61CC, symBinAddr: 0x100008ED8, symSize: 0x28 }
  - { offsetInCU: 0x3A143, offset: 0x3A143, size: 0x8, addend: 0x0, symName: __ZNSt3__117__compressed_pairIP14TimeRecordStopNS_9allocatorIS1_EEE5firstB8ue170006Ev, symObjAddr: 0x61F4, symBinAddr: 0x100008F00, symSize: 0x24 }
  - { offsetInCU: 0x3A169, offset: 0x3A169, size: 0x8, addend: 0x0, symName: __ZNSt3__114__split_bufferI14TimeRecordStopRNS_9allocatorIS1_EEED2Ev, symObjAddr: 0x6218, symBinAddr: 0x100008F24, symSize: 0x8C }
  - { offsetInCU: 0x3A195, offset: 0x3A195, size: 0x8, addend: 0x0, symName: __ZNSt3__114__split_bufferI14TimeRecordStopRNS_9allocatorIS1_EEE5clearB8ue170006Ev, symObjAddr: 0x62A4, symBinAddr: 0x100008FB0, symSize: 0x28 }
  - { offsetInCU: 0x3A1BB, offset: 0x3A1BB, size: 0x8, addend: 0x0, symName: __ZNKSt3__114__split_bufferI14TimeRecordStopRNS_9allocatorIS1_EEE8capacityB8ue170006Ev, symObjAddr: 0x62CC, symBinAddr: 0x100008FD8, symSize: 0x40 }
  - { offsetInCU: 0x3A1E1, offset: 0x3A1E1, size: 0x8, addend: 0x0, symName: __ZNSt3__114__split_bufferI14TimeRecordStopRNS_9allocatorIS1_EEE17__destruct_at_endB8ue170006EPS1_, symObjAddr: 0x630C, symBinAddr: 0x100009018, symSize: 0x2C }
  - { offsetInCU: 0x3A215, offset: 0x3A215, size: 0x8, addend: 0x0, symName: __ZNSt3__114__split_bufferI14TimeRecordStopRNS_9allocatorIS1_EEE17__destruct_at_endB8ue170006EPS1_NS_17integral_constantIbLb0EEE, symObjAddr: 0x6338, symBinAddr: 0x100009044, symSize: 0x80 }
  - { offsetInCU: 0x3A256, offset: 0x3A256, size: 0x8, addend: 0x0, symName: __ZNKSt3__114__split_bufferI14TimeRecordStopRNS_9allocatorIS1_EEE9__end_capB8ue170006Ev, symObjAddr: 0x63B8, symBinAddr: 0x1000090C4, symSize: 0x28 }
  - { offsetInCU: 0x3A27C, offset: 0x3A27C, size: 0x8, addend: 0x0, symName: __ZNKSt3__117__compressed_pairIP14TimeRecordStopRNS_9allocatorIS1_EEE5firstB8ue170006Ev, symObjAddr: 0x63E0, symBinAddr: 0x1000090EC, symSize: 0x24 }
  - { offsetInCU: 0x3A2A2, offset: 0x3A2A2, size: 0x8, addend: 0x0, symName: __ZNKSt3__16vectorI15TimeRecordStartNS_9allocatorIS1_EEE17__annotate_shrinkB8ue170006Em, symObjAddr: 0x6404, symBinAddr: 0x100009110, symSize: 0xB4 }
  - { offsetInCU: 0x3A2D7, offset: 0x3A2D7, size: 0x8, addend: 0x0, symName: __ZNKSt3__16vectorI14TimeRecordStopNS_9allocatorIS1_EEE17__annotate_shrinkB8ue170006Em, symObjAddr: 0x64B8, symBinAddr: 0x1000091C4, symSize: 0xD0 }
  - { offsetInCU: 0x3A30C, offset: 0x3A30C, size: 0x8, addend: 0x0, symName: __ZNSt3__16__treeINS_12__value_typeIPKcP13ProfilerStatsEENS_19__map_value_compareIS3_S6_NS_4lessIS3_EELb1EEENS_9allocatorIS6_EEE5clearEv, symObjAddr: 0x6588, symBinAddr: 0x100009294, symSize: 0x74 }
  - { offsetInCU: 0x3A334, offset: 0x3A334, size: 0x8, addend: 0x0, symName: __ZNSt3__16__treeINS_12__value_typeIPKcP13ProfilerStatsEENS_19__map_value_compareIS3_S6_NS_4lessIS3_EELb1EEENS_9allocatorIS6_EEE4sizeB8ue170006Ev, symObjAddr: 0x65FC, symBinAddr: 0x100009308, symSize: 0x28 }
  - { offsetInCU: 0x3A35A, offset: 0x3A35A, size: 0x8, addend: 0x0, symName: __ZNSt3__117__compressed_pairImNS_19__map_value_compareIPKcNS_12__value_typeIS3_P13ProfilerStatsEENS_4lessIS3_EELb1EEEE5firstB8ue170006Ev, symObjAddr: 0x6624, symBinAddr: 0x100009330, symSize: 0x24 }
  - { offsetInCU: 0x3A380, offset: 0x3A380, size: 0x8, addend: 0x0, symName: __ZNSt3__122__compressed_pair_elemImLi0ELb0EE5__getB8ue170006Ev, symObjAddr: 0x6648, symBinAddr: 0x100009354, symSize: 0x14 }
  - { offsetInCU: 0x3A3A6, offset: 0x3A3A6, size: 0x8, addend: 0x0, symName: __ZNSt3__16vectorI15TimeRecordStartNS_9allocatorIS1_EEE22__construct_one_at_endB8ue170006IJRPKcRdEEEvDpOT_, symObjAddr: 0x665C, symBinAddr: 0x100009368, symSize: 0x98 }
  - { offsetInCU: 0x3A409, offset: 0x3A409, size: 0x8, addend: 0x0, symName: __ZNSt3__16vectorI15TimeRecordStartNS_9allocatorIS1_EEE24__emplace_back_slow_pathIJRPKcRdEEEvDpOT_, symObjAddr: 0x66F4, symBinAddr: 0x100009400, symSize: 0xE0 }
  - { offsetInCU: 0x3A47D, offset: 0x3A47D, size: 0x8, addend: 0x0, symName: __ZNSt3__16vectorI15TimeRecordStartNS_9allocatorIS1_EEE4backB8ue170006Ev, symObjAddr: 0x67D4, symBinAddr: 0x1000094E0, symSize: 0x1C }
  - { offsetInCU: 0x3A4C0, offset: 0x3A4C0, size: 0x8, addend: 0x0, symName: __ZNSt3__16vectorI15TimeRecordStartNS_9allocatorIS1_EEE21_ConstructTransactionC1B8ue170006ERS4_m, symObjAddr: 0x67F0, symBinAddr: 0x1000094FC, symSize: 0x3C }
  - { offsetInCU: 0x3A508, offset: 0x3A508, size: 0x8, addend: 0x0, symName: __ZNSt3__116allocator_traitsINS_9allocatorI15TimeRecordStartEEE9constructB8ue170006IS2_JRPKcRdEvEEvRS3_PT_DpOT0_, symObjAddr: 0x682C, symBinAddr: 0x100009538, symSize: 0x3C }
  - { offsetInCU: 0x3A573, offset: 0x3A573, size: 0x8, addend: 0x0, symName: __ZNSt3__16vectorI15TimeRecordStartNS_9allocatorIS1_EEE21_ConstructTransactionD1B8ue170006Ev, symObjAddr: 0x6868, symBinAddr: 0x100009574, symSize: 0x2C }
  - { offsetInCU: 0x3A59D, offset: 0x3A59D, size: 0x8, addend: 0x0, symName: __ZNSt3__16vectorI15TimeRecordStartNS_9allocatorIS1_EEE21_ConstructTransactionC2B8ue170006ERS4_m, symObjAddr: 0x6894, symBinAddr: 0x1000095A0, symSize: 0x44 }
  - { offsetInCU: 0x3A5E5, offset: 0x3A5E5, size: 0x8, addend: 0x0, symName: __ZNSt3__19allocatorI15TimeRecordStartE9constructB8ue170006IS1_JRPKcRdEEEvPT_DpOT0_, symObjAddr: 0x68D8, symBinAddr: 0x1000095E4, symSize: 0x40 }
  - { offsetInCU: 0x3A64E, offset: 0x3A64E, size: 0x8, addend: 0x0, symName: __ZN15TimeRecordStartC1EPKcd, symObjAddr: 0x6918, symBinAddr: 0x100009624, symSize: 0x3C }
  - { offsetInCU: 0x3A694, offset: 0x3A694, size: 0x8, addend: 0x0, symName: __ZN15TimeRecordStartC2EPKcd, symObjAddr: 0x6954, symBinAddr: 0x100009660, symSize: 0x2C }
  - { offsetInCU: 0x3A6DA, offset: 0x3A6DA, size: 0x8, addend: 0x0, symName: __ZNSt3__16vectorI15TimeRecordStartNS_9allocatorIS1_EEE21_ConstructTransactionD2B8ue170006Ev, symObjAddr: 0x6980, symBinAddr: 0x10000968C, symSize: 0x20 }
  - { offsetInCU: 0x3A704, offset: 0x3A704, size: 0x8, addend: 0x0, symName: __ZNKSt3__16vectorI15TimeRecordStartNS_9allocatorIS1_EEE11__recommendB8ue170006Em, symObjAddr: 0x69A0, symBinAddr: 0x1000096AC, symSize: 0xB4 }
  - { offsetInCU: 0x3A759, offset: 0x3A759, size: 0x8, addend: 0x0, symName: __ZNKSt3__16vectorI15TimeRecordStartNS_9allocatorIS1_EEE20__throw_out_of_rangeB8ue170006Ev, symObjAddr: 0x6AD4, symBinAddr: 0x1000097E0, symSize: 0x1C }
  - { offsetInCU: 0x3A77F, offset: 0x3A77F, size: 0x8, addend: 0x0, symName: __ZNSt12out_of_rangeC1B8ue170006EPKc, symObjAddr: 0x6B54, symBinAddr: 0x100009860, symSize: 0x34 }
  - { offsetInCU: 0x3A7B7, offset: 0x3A7B7, size: 0x8, addend: 0x0, symName: __ZNSt12out_of_rangeC2B8ue170006EPKc, symObjAddr: 0x6B88, symBinAddr: 0x100009894, symSize: 0x4C }
  - { offsetInCU: 0x3A7EF, offset: 0x3A7EF, size: 0x8, addend: 0x0, symName: __ZNSt3__16vectorI15TimeRecordStartNS_9allocatorIS1_EEE11__make_iterB8ue170006EPS1_, symObjAddr: 0x6BD4, symBinAddr: 0x1000098E0, symSize: 0x30 }
  - { offsetInCU: 0x3A824, offset: 0x3A824, size: 0x8, addend: 0x0, symName: __ZNSt3__111__wrap_iterIP15TimeRecordStartEC1B8ue170006ES2_, symObjAddr: 0x6C04, symBinAddr: 0x100009910, symSize: 0x34 }
  - { offsetInCU: 0x3A85C, offset: 0x3A85C, size: 0x8, addend: 0x0, symName: __ZNSt3__111__wrap_iterIP15TimeRecordStartEC2B8ue170006ES2_, symObjAddr: 0x6C38, symBinAddr: 0x100009944, symSize: 0x20 }
  - { offsetInCU: 0x3A894, offset: 0x3A894, size: 0x8, addend: 0x0, symName: __ZNKSt3__16vectorI15TimeRecordStartNS_9allocatorIS1_EEE6cbeginB8ue170006Ev, symObjAddr: 0x6CA0, symBinAddr: 0x1000099AC, symSize: 0x2C }
  - { offsetInCU: 0x3A8BA, offset: 0x3A8BA, size: 0x8, addend: 0x0, symName: __ZNSt3__16vectorI15TimeRecordStartNS_9allocatorIS1_EEE17__destruct_at_endB8ue170006EPS1_, symObjAddr: 0x6CCC, symBinAddr: 0x1000099D8, symSize: 0x4C }
  - { offsetInCU: 0x3A8FE, offset: 0x3A8FE, size: 0x8, addend: 0x0, symName: __ZNKSt3__111__wrap_iterIPK15TimeRecordStartE4baseB8ue170006Ev, symObjAddr: 0x6D58, symBinAddr: 0x100009A64, symSize: 0x18 }
  - { offsetInCU: 0x3A924, offset: 0x3A924, size: 0x8, addend: 0x0, symName: __ZNKSt3__16vectorI15TimeRecordStartNS_9allocatorIS1_EEE5beginB8ue170006Ev, symObjAddr: 0x6D70, symBinAddr: 0x100009A7C, symSize: 0x30 }
  - { offsetInCU: 0x3A94C, offset: 0x3A94C, size: 0x8, addend: 0x0, symName: __ZNKSt3__16vectorI15TimeRecordStartNS_9allocatorIS1_EEE11__make_iterB8ue170006EPKS1_, symObjAddr: 0x6DA0, symBinAddr: 0x100009AAC, symSize: 0x30 }
  - { offsetInCU: 0x3A981, offset: 0x3A981, size: 0x8, addend: 0x0, symName: __ZNSt3__111__wrap_iterIPK15TimeRecordStartEC1B8ue170006ES3_, symObjAddr: 0x6DD0, symBinAddr: 0x100009ADC, symSize: 0x34 }
  - { offsetInCU: 0x3A9B9, offset: 0x3A9B9, size: 0x8, addend: 0x0, symName: __ZNSt3__111__wrap_iterIPK15TimeRecordStartEC2B8ue170006ES3_, symObjAddr: 0x6E04, symBinAddr: 0x100009B10, symSize: 0x20 }
  - { offsetInCU: 0x3AA19, offset: 0x3AA19, size: 0x8, addend: 0x0, symName: __ZNKSt3__111__move_loopINS_17_ClassicAlgPolicyEEclB8ue170006IP15TimeRecordStartS5_S5_EENS_4pairIT_T1_EES7_T0_S8_, symObjAddr: 0x6FC0, symBinAddr: 0x100009CCC, symSize: 0x90 }
  - { offsetInCU: 0x3AA84, offset: 0x3AA84, size: 0x8, addend: 0x0, symName: __ZNSt3__18_IterOpsINS_17_ClassicAlgPolicyEE11__iter_moveB8ue170006IRP15TimeRecordStartEENS_9enable_ifIXsr12is_referenceIDTdeclsr3stdE7declvalIRT_EEEEE5valueEDTclsr3stdE4movedeclsr3stdE7declvalIS9_EEEEE4typeEOS8_, symObjAddr: 0x7114, symBinAddr: 0x100009E20, symSize: 0x28 }
  - { offsetInCU: 0x3AAB0, offset: 0x3AAB0, size: 0x8, addend: 0x0, symName: __ZNSt3__18_IterOpsINS_17_ClassicAlgPolicyEE25__validate_iter_referenceB8ue170006IRP15TimeRecordStartEEvv, symObjAddr: 0x713C, symBinAddr: 0x100009E48, symSize: 0x4 }
  - { offsetInCU: 0x3AACE, offset: 0x3AACE, size: 0x8, addend: 0x0, symName: __ZNSt3__118__unwrap_iter_implIP15TimeRecordStartLb1EE8__unwrapB8ue170006ES2_, symObjAddr: 0x7140, symBinAddr: 0x100009E4C, symSize: 0x24 }
  - { offsetInCU: 0x3AAF7, offset: 0x3AAF7, size: 0x8, addend: 0x0, symName: __ZNSt3__14pairIP15TimeRecordStartS2_EC1B8ue170006IS2_S2_LPv0EEEOT_OT0_, symObjAddr: 0x7164, symBinAddr: 0x100009E70, symSize: 0x3C }
  - { offsetInCU: 0x3AB55, offset: 0x3AB55, size: 0x8, addend: 0x0, symName: __ZNSt3__14pairIP15TimeRecordStartS2_EC2B8ue170006IS2_S2_LPv0EEEOT_OT0_, symObjAddr: 0x71A0, symBinAddr: 0x100009EAC, symSize: 0x34 }
  - { offsetInCU: 0x3ABB3, offset: 0x3ABB3, size: 0x8, addend: 0x0, symName: __ZNSt3__118__unwrap_iter_implIP15TimeRecordStartLb1EE8__rewrapB8ue170006ES2_S2_, symObjAddr: 0x71D4, symBinAddr: 0x100009EE0, symSize: 0x50 }
  - { offsetInCU: 0x3ABE4, offset: 0x3ABE4, size: 0x8, addend: 0x0, symName: __ZNSt3__16vectorI14TimeRecordStopNS_9allocatorIS1_EEE22__construct_one_at_endB8ue170006IJRKS1_EEEvDpOT_, symObjAddr: 0x7224, symBinAddr: 0x100009F30, symSize: 0x90 }
  - { offsetInCU: 0x3AC33, offset: 0x3AC33, size: 0x8, addend: 0x0, symName: __ZNSt3__16vectorI14TimeRecordStopNS_9allocatorIS1_EEE21__push_back_slow_pathIRKS1_EEvOT_, symObjAddr: 0x72B4, symBinAddr: 0x100009FC0, symSize: 0xD8 }
  - { offsetInCU: 0x3ACAE, offset: 0x3ACAE, size: 0x8, addend: 0x0, symName: __ZNSt3__16vectorI14TimeRecordStopNS_9allocatorIS1_EEE21_ConstructTransactionC1B8ue170006ERS4_m, symObjAddr: 0x738C, symBinAddr: 0x10000A098, symSize: 0x3C }
  - { offsetInCU: 0x3ACF6, offset: 0x3ACF6, size: 0x8, addend: 0x0, symName: __ZNSt3__116allocator_traitsINS_9allocatorI14TimeRecordStopEEE9constructB8ue170006IS2_JRKS2_EvEEvRS3_PT_DpOT0_, symObjAddr: 0x73C8, symBinAddr: 0x10000A0D4, symSize: 0x34 }
  - { offsetInCU: 0x3AD4D, offset: 0x3AD4D, size: 0x8, addend: 0x0, symName: __ZNSt3__16vectorI14TimeRecordStopNS_9allocatorIS1_EEE21_ConstructTransactionD1B8ue170006Ev, symObjAddr: 0x73FC, symBinAddr: 0x10000A108, symSize: 0x2C }
  - { offsetInCU: 0x3AD77, offset: 0x3AD77, size: 0x8, addend: 0x0, symName: __ZNSt3__16vectorI14TimeRecordStopNS_9allocatorIS1_EEE21_ConstructTransactionC2B8ue170006ERS4_m, symObjAddr: 0x7428, symBinAddr: 0x10000A134, symSize: 0x4C }
  - { offsetInCU: 0x3ADBF, offset: 0x3ADBF, size: 0x8, addend: 0x0, symName: __ZNSt3__19allocatorI14TimeRecordStopE9constructB8ue170006IS1_JRKS1_EEEvPT_DpOT0_, symObjAddr: 0x7474, symBinAddr: 0x10000A180, symSize: 0x34 }
  - { offsetInCU: 0x3AE15, offset: 0x3AE15, size: 0x8, addend: 0x0, symName: __ZNSt3__16vectorI14TimeRecordStopNS_9allocatorIS1_EEE21_ConstructTransactionD2B8ue170006Ev, symObjAddr: 0x74A8, symBinAddr: 0x10000A1B4, symSize: 0x20 }
  - { offsetInCU: 0x3AE3F, offset: 0x3AE3F, size: 0x8, addend: 0x0, symName: __ZNKSt3__16vectorI14TimeRecordStopNS_9allocatorIS1_EEE11__recommendB8ue170006Em, symObjAddr: 0x74C8, symBinAddr: 0x10000A1D4, symSize: 0xB4 }
  - { offsetInCU: 0x3AE94, offset: 0x3AE94, size: 0x8, addend: 0x0, symName: __ZNSt3__16__treeINS_12__value_typeIPKcP13ProfilerStatsEENS_19__map_value_compareIS3_S6_NS_4lessIS3_EELb1EEENS_9allocatorIS6_EEE4findIS3_EENS_15__tree_iteratorIS6_PNS_11__tree_nodeIS6_PvEElEERKT_, symObjAddr: 0x757C, symBinAddr: 0x10000A288, symSize: 0xF8 }
  - { offsetInCU: 0x3AEE3, offset: 0x3AEE3, size: 0x8, addend: 0x0, symName: __ZNSt3__114__map_iteratorINS_15__tree_iteratorINS_12__value_typeIPKcP13ProfilerStatsEEPNS_11__tree_nodeIS7_PvEElEEEC1B8ue170006ESC_, symObjAddr: 0x7674, symBinAddr: 0x10000A380, symSize: 0x34 }
  - { offsetInCU: 0x3AF1C, offset: 0x3AF1C, size: 0x8, addend: 0x0, symName: __ZNSt3__16__treeINS_12__value_typeIPKcP13ProfilerStatsEENS_19__map_value_compareIS3_S6_NS_4lessIS3_EELb1EEENS_9allocatorIS6_EEE13__lower_boundIS3_EENS_15__tree_iteratorIS6_PNS_11__tree_nodeIS6_PvEElEERKT_SJ_PNS_15__tree_end_nodeIPNS_16__tree_node_baseISH_EEEE, symObjAddr: 0x76A8, symBinAddr: 0x10000A3B4, symSize: 0xA4 }
  - { offsetInCU: 0x3AF7A, offset: 0x3AF7A, size: 0x8, addend: 0x0, symName: __ZNSt3__16__treeINS_12__value_typeIPKcP13ProfilerStatsEENS_19__map_value_compareIS3_S6_NS_4lessIS3_EELb1EEENS_9allocatorIS6_EEE3endB8ue170006Ev, symObjAddr: 0x7780, symBinAddr: 0x10000A48C, symSize: 0x34 }
  - { offsetInCU: 0x3AFA0, offset: 0x3AFA0, size: 0x8, addend: 0x0, symName: __ZNSt3__16__treeINS_12__value_typeIPKcP13ProfilerStatsEENS_19__map_value_compareIS3_S6_NS_4lessIS3_EELb1EEENS_9allocatorIS6_EEE10value_compB8ue170006Ev, symObjAddr: 0x77B4, symBinAddr: 0x10000A4C0, symSize: 0x28 }
  - { offsetInCU: 0x3AFC6, offset: 0x3AFC6, size: 0x8, addend: 0x0, symName: __ZNKSt3__119__map_value_compareIPKcNS_12__value_typeIS2_P13ProfilerStatsEENS_4lessIS2_EELb1EEclB8ue170006ERKS2_RKS6_, symObjAddr: 0x77DC, symBinAddr: 0x10000A4E8, symSize: 0x50 }
  - { offsetInCU: 0x3B00A, offset: 0x3B00A, size: 0x8, addend: 0x0, symName: __ZNKSt3__115__tree_iteratorINS_12__value_typeIPKcP13ProfilerStatsEEPNS_11__tree_nodeIS6_PvEElEdeB8ue170006Ev, symObjAddr: 0x782C, symBinAddr: 0x10000A538, symSize: 0x28 }
  - { offsetInCU: 0x3B030, offset: 0x3B030, size: 0x8, addend: 0x0, symName: __ZNKSt3__119__map_value_compareIPKcNS_12__value_typeIS2_P13ProfilerStatsEENS_4lessIS2_EELb1EEclB8ue170006ERKS6_RKS2_, symObjAddr: 0x7854, symBinAddr: 0x10000A560, symSize: 0x48 }
  - { offsetInCU: 0x3B074, offset: 0x3B074, size: 0x8, addend: 0x0, symName: __ZNSt3__115__tree_iteratorINS_12__value_typeIPKcP13ProfilerStatsEEPNS_11__tree_nodeIS6_PvEElEC1B8ue170006EPNS_15__tree_end_nodeIPNS_16__tree_node_baseIS8_EEEE, symObjAddr: 0x789C, symBinAddr: 0x10000A5A8, symSize: 0x34 }
  - { offsetInCU: 0x3B0AD, offset: 0x3B0AD, size: 0x8, addend: 0x0, symName: __ZNKSt3__14lessIPKcEclB8ue170006ERKS2_S5_, symObjAddr: 0x78D0, symBinAddr: 0x10000A5DC, symSize: 0x34 }
  - { offsetInCU: 0x3B0F1, offset: 0x3B0F1, size: 0x8, addend: 0x0, symName: __ZNKSt3__112__value_typeIPKcP13ProfilerStatsE11__get_valueB8ue170006Ev, symObjAddr: 0x7904, symBinAddr: 0x10000A610, symSize: 0x24 }
  - { offsetInCU: 0x3B117, offset: 0x3B117, size: 0x8, addend: 0x0, symName: __ZNSt3__115__tree_iteratorINS_12__value_typeIPKcP13ProfilerStatsEEPNS_11__tree_nodeIS6_PvEElEC2B8ue170006EPNS_15__tree_end_nodeIPNS_16__tree_node_baseIS8_EEEE, symObjAddr: 0x7960, symBinAddr: 0x10000A66C, symSize: 0x20 }
  - { offsetInCU: 0x3B150, offset: 0x3B150, size: 0x8, addend: 0x0, symName: __ZNSt3__117__compressed_pairImNS_19__map_value_compareIPKcNS_12__value_typeIS3_P13ProfilerStatsEENS_4lessIS3_EELb1EEEE6secondB8ue170006Ev, symObjAddr: 0x79B0, symBinAddr: 0x10000A6BC, symSize: 0x24 }
  - { offsetInCU: 0x3B176, offset: 0x3B176, size: 0x8, addend: 0x0, symName: __ZNSt3__122__compressed_pair_elemINS_19__map_value_compareIPKcNS_12__value_typeIS3_P13ProfilerStatsEENS_4lessIS3_EELb1EEELi1ELb1EE5__getB8ue170006Ev, symObjAddr: 0x79D4, symBinAddr: 0x10000A6E0, symSize: 0x14 }
  - { offsetInCU: 0x3B19C, offset: 0x3B19C, size: 0x8, addend: 0x0, symName: __ZNKSt3__115__tree_iteratorINS_12__value_typeIPKcP13ProfilerStatsEEPNS_11__tree_nodeIS6_PvEElE8__get_npB8ue170006Ev, symObjAddr: 0x79E8, symBinAddr: 0x10000A6F4, symSize: 0x18 }
  - { offsetInCU: 0x3B1C2, offset: 0x3B1C2, size: 0x8, addend: 0x0, symName: __ZNSt3__114__map_iteratorINS_15__tree_iteratorINS_12__value_typeIPKcP13ProfilerStatsEEPNS_11__tree_nodeIS7_PvEElEEEC2B8ue170006ESC_, symObjAddr: 0x7A00, symBinAddr: 0x10000A70C, symSize: 0x20 }
  - { offsetInCU: 0x3B212, offset: 0x3B212, size: 0x8, addend: 0x0, symName: __ZNSt3__16__treeINS_12__value_typeIPKcP13ProfilerStatsEENS_19__map_value_compareIS3_S6_NS_4lessIS3_EELb1EEENS_9allocatorIS6_EEE25__emplace_unique_key_argsIS3_JRKNS_21piecewise_construct_tENS_5tupleIJRKS3_EEENSI_IJEEEEEENS_4pairINS_15__tree_iteratorIS6_PNS_11__tree_nodeIS6_PvEElEEbEERKT_DpOT0_, symObjAddr: 0x7A20, symBinAddr: 0x10000A72C, symSize: 0x100 }
  - { offsetInCU: 0x3B2E8, offset: 0x3B2E8, size: 0x8, addend: 0x0, symName: __ZNKSt3__115__tree_iteratorINS_12__value_typeIPKcP13ProfilerStatsEEPNS_11__tree_nodeIS6_PvEElEptB8ue170006Ev, symObjAddr: 0x7B50, symBinAddr: 0x10000A85C, symSize: 0x2C }
  - { offsetInCU: 0x3B30E, offset: 0x3B30E, size: 0x8, addend: 0x0, symName: __ZNSt3__16__treeINS_12__value_typeIPKcP13ProfilerStatsEENS_19__map_value_compareIS3_S6_NS_4lessIS3_EELb1EEENS_9allocatorIS6_EEE12__find_equalIS3_EERPNS_16__tree_node_baseIPvEERPNS_15__tree_end_nodeISI_EERKT_, symObjAddr: 0x7B7C, symBinAddr: 0x10000A888, symSize: 0x184 }
  - { offsetInCU: 0x3B37B, offset: 0x3B37B, size: 0x8, addend: 0x0, symName: __ZNSt3__16__treeINS_12__value_typeIPKcP13ProfilerStatsEENS_19__map_value_compareIS3_S6_NS_4lessIS3_EELb1EEENS_9allocatorIS6_EEE16__construct_nodeIJRKNS_21piecewise_construct_tENS_5tupleIJRKS3_EEENSI_IJEEEEEENS_10unique_ptrINS_11__tree_nodeIS6_PvEENS_22__tree_node_destructorINSB_ISQ_EEEEEEDpOT_, symObjAddr: 0x7D00, symBinAddr: 0x10000AA0C, symSize: 0x120 }
  - { offsetInCU: 0x3B404, offset: 0x3B404, size: 0x8, addend: 0x0, symName: __ZNSt3__16__treeINS_12__value_typeIPKcP13ProfilerStatsEENS_19__map_value_compareIS3_S6_NS_4lessIS3_EELb1EEENS_9allocatorIS6_EEE16__insert_node_atEPNS_15__tree_end_nodeIPNS_16__tree_node_baseIPvEEEERSI_SI_, symObjAddr: 0x7E20, symBinAddr: 0x10000AB2C, symSize: 0xCC }
  - { offsetInCU: 0x3B459, offset: 0x3B459, size: 0x8, addend: 0x0, symName: __ZNKSt3__110unique_ptrINS_11__tree_nodeINS_12__value_typeIPKcP13ProfilerStatsEEPvEENS_22__tree_node_destructorINS_9allocatorIS9_EEEEE3getB8ue170006Ev, symObjAddr: 0x7EEC, symBinAddr: 0x10000ABF8, symSize: 0x28 }
  - { offsetInCU: 0x3B47F, offset: 0x3B47F, size: 0x8, addend: 0x0, symName: __ZNSt3__110unique_ptrINS_11__tree_nodeINS_12__value_typeIPKcP13ProfilerStatsEEPvEENS_22__tree_node_destructorINS_9allocatorIS9_EEEEE7releaseB8ue170006Ev, symObjAddr: 0x7F14, symBinAddr: 0x10000AC20, symSize: 0x44 }
  - { offsetInCU: 0x3B4B4, offset: 0x3B4B4, size: 0x8, addend: 0x0, symName: __ZNSt3__110unique_ptrINS_11__tree_nodeINS_12__value_typeIPKcP13ProfilerStatsEEPvEENS_22__tree_node_destructorINS_9allocatorIS9_EEEEED1B8ue170006Ev, symObjAddr: 0x7F58, symBinAddr: 0x10000AC64, symSize: 0x2C }
  - { offsetInCU: 0x3B4DE, offset: 0x3B4DE, size: 0x8, addend: 0x0, symName: __ZNSt3__115__tree_iteratorINS_12__value_typeIPKcP13ProfilerStatsEEPNS_11__tree_nodeIS6_PvEElEC1B8ue170006ESA_, symObjAddr: 0x7F84, symBinAddr: 0x10000AC90, symSize: 0x34 }
  - { offsetInCU: 0x3B523, offset: 0x3B523, size: 0x8, addend: 0x0, symName: __ZNSt3__14pairINS_15__tree_iteratorINS_12__value_typeIPKcP13ProfilerStatsEEPNS_11__tree_nodeIS7_PvEElEEbEC1B8ue170006ISC_RbLS9_0EEEOT_OT0_, symObjAddr: 0x7FB8, symBinAddr: 0x10000ACC4, symSize: 0x3C }
  - { offsetInCU: 0x3B581, offset: 0x3B581, size: 0x8, addend: 0x0, symName: __ZNKSt3__16__treeINS_12__value_typeIPKcP13ProfilerStatsEENS_19__map_value_compareIS3_S6_NS_4lessIS3_EELb1EEENS_9allocatorIS6_EEE10__root_ptrB8ue170006Ev, symObjAddr: 0x7FF4, symBinAddr: 0x10000AD00, symSize: 0x24 }
  - { offsetInCU: 0x3B5A7, offset: 0x3B5A7, size: 0x8, addend: 0x0, symName: __ZNSt3__116allocator_traitsINS_9allocatorINS_11__tree_nodeINS_12__value_typeIPKcP13ProfilerStatsEEPvEEEEE8allocateB8ue170006ERSB_m, symObjAddr: 0x8018, symBinAddr: 0x10000AD24, symSize: 0x2C }
  - { offsetInCU: 0x3B5DA, offset: 0x3B5DA, size: 0x8, addend: 0x0, symName: __ZNSt3__122__tree_node_destructorINS_9allocatorINS_11__tree_nodeINS_12__value_typeIPKcP13ProfilerStatsEEPvEEEEEC1B8ue170006ERSB_b, symObjAddr: 0x8044, symBinAddr: 0x10000AD50, symSize: 0x48 }
  - { offsetInCU: 0x3B628, offset: 0x3B628, size: 0x8, addend: 0x0, symName: __ZNSt3__110unique_ptrINS_11__tree_nodeINS_12__value_typeIPKcP13ProfilerStatsEEPvEENS_22__tree_node_destructorINS_9allocatorIS9_EEEEEC1B8ue170006ILb1EvEEPS9_NS_16__dependent_typeINS_27__unique_ptr_deleter_sfinaeISD_EEXT_EE20__good_rval_ref_typeE, symObjAddr: 0x808C, symBinAddr: 0x10000AD98, symSize: 0x3C }
  - { offsetInCU: 0x3B679, offset: 0x3B679, size: 0x8, addend: 0x0, symName: __ZNSt3__116allocator_traitsINS_9allocatorINS_11__tree_nodeINS_12__value_typeIPKcP13ProfilerStatsEEPvEEEEE9constructB8ue170006INS_4pairIKS5_S7_EEJRKNS_21piecewise_construct_tENS_5tupleIJRSF_EEENSK_IJEEEEvEEvRSB_PT_DpOT0_, symObjAddr: 0x80C8, symBinAddr: 0x10000ADD4, symSize: 0x44 }
  - { offsetInCU: 0x3B6F8, offset: 0x3B6F8, size: 0x8, addend: 0x0, symName: __ZNKSt3__110unique_ptrINS_11__tree_nodeINS_12__value_typeIPKcP13ProfilerStatsEEPvEENS_22__tree_node_destructorINS_9allocatorIS9_EEEEEptB8ue170006Ev, symObjAddr: 0x810C, symBinAddr: 0x10000AE18, symSize: 0x28 }
  - { offsetInCU: 0x3B71E, offset: 0x3B71E, size: 0x8, addend: 0x0, symName: __ZNSt3__110unique_ptrINS_11__tree_nodeINS_12__value_typeIPKcP13ProfilerStatsEEPvEENS_22__tree_node_destructorINS_9allocatorIS9_EEEEE11get_deleterB8ue170006Ev, symObjAddr: 0x8134, symBinAddr: 0x10000AE40, symSize: 0x24 }
  - { offsetInCU: 0x3B744, offset: 0x3B744, size: 0x8, addend: 0x0, symName: __ZNSt3__19allocatorINS_11__tree_nodeINS_12__value_typeIPKcP13ProfilerStatsEEPvEEE8allocateB8ue170006Em, symObjAddr: 0x8158, symBinAddr: 0x10000AE64, symSize: 0x5C }
  - { offsetInCU: 0x3B784, offset: 0x3B784, size: 0x8, addend: 0x0, symName: __ZNSt3__116allocator_traitsINS_9allocatorINS_11__tree_nodeINS_12__value_typeIPKcP13ProfilerStatsEEPvEEEEE8max_sizeB8ue170006ISB_vEEmRKSB_, symObjAddr: 0x81B4, symBinAddr: 0x10000AEC0, symSize: 0x24 }
  - { offsetInCU: 0x3B7B2, offset: 0x3B7B2, size: 0x8, addend: 0x0, symName: __ZNKSt3__19allocatorINS_11__tree_nodeINS_12__value_typeIPKcP13ProfilerStatsEEPvEEE8max_sizeB8ue170006Ev, symObjAddr: 0x81D8, symBinAddr: 0x10000AEE4, symSize: 0x18 }
  - { offsetInCU: 0x3B7D8, offset: 0x3B7D8, size: 0x8, addend: 0x0, symName: __ZNSt3__122__tree_node_destructorINS_9allocatorINS_11__tree_nodeINS_12__value_typeIPKcP13ProfilerStatsEEPvEEEEEC2B8ue170006ERSB_b, symObjAddr: 0x81F0, symBinAddr: 0x10000AEFC, symSize: 0x38 }
  - { offsetInCU: 0x3B820, offset: 0x3B820, size: 0x8, addend: 0x0, symName: __ZNSt3__110unique_ptrINS_11__tree_nodeINS_12__value_typeIPKcP13ProfilerStatsEEPvEENS_22__tree_node_destructorINS_9allocatorIS9_EEEEEC2B8ue170006ILb1EvEEPS9_NS_16__dependent_typeINS_27__unique_ptr_deleter_sfinaeISD_EEXT_EE20__good_rval_ref_typeE, symObjAddr: 0x8228, symBinAddr: 0x10000AF34, symSize: 0x48 }
  - { offsetInCU: 0x3B871, offset: 0x3B871, size: 0x8, addend: 0x0, symName: __ZNSt3__117__compressed_pairIPNS_11__tree_nodeINS_12__value_typeIPKcP13ProfilerStatsEEPvEENS_22__tree_node_destructorINS_9allocatorIS9_EEEEEC1B8ue170006IRSA_SE_EEOT_OT0_, symObjAddr: 0x8270, symBinAddr: 0x10000AF7C, symSize: 0x3C }
  - { offsetInCU: 0x3B8C9, offset: 0x3B8C9, size: 0x8, addend: 0x0, symName: __ZNSt3__117__compressed_pairIPNS_11__tree_nodeINS_12__value_typeIPKcP13ProfilerStatsEEPvEENS_22__tree_node_destructorINS_9allocatorIS9_EEEEEC2B8ue170006IRSA_SE_EEOT_OT0_, symObjAddr: 0x82AC, symBinAddr: 0x10000AFB8, symSize: 0x48 }
  - { offsetInCU: 0x3B921, offset: 0x3B921, size: 0x8, addend: 0x0, symName: __ZNSt3__122__compressed_pair_elemIPNS_11__tree_nodeINS_12__value_typeIPKcP13ProfilerStatsEEPvEELi0ELb0EEC2B8ue170006IRSA_vEEOT_, symObjAddr: 0x82F4, symBinAddr: 0x10000B000, symSize: 0x24 }
  - { offsetInCU: 0x3B963, offset: 0x3B963, size: 0x8, addend: 0x0, symName: __ZNSt3__122__compressed_pair_elemINS_22__tree_node_destructorINS_9allocatorINS_11__tree_nodeINS_12__value_typeIPKcP13ProfilerStatsEEPvEEEEEELi1ELb0EEC2B8ue170006ISD_vEEOT_, symObjAddr: 0x8318, symBinAddr: 0x10000B024, symSize: 0x24 }
  - { offsetInCU: 0x3B9A5, offset: 0x3B9A5, size: 0x8, addend: 0x0, symName: __ZNSt3__19allocatorINS_11__tree_nodeINS_12__value_typeIPKcP13ProfilerStatsEEPvEEE9constructB8ue170006INS_4pairIKS4_S6_EEJRKNS_21piecewise_construct_tENS_5tupleIJRSD_EEENSI_IJEEEEEEvPT_DpOT0_, symObjAddr: 0x833C, symBinAddr: 0x10000B048, symSize: 0x44 }
  - { offsetInCU: 0x3BA21, offset: 0x3BA21, size: 0x8, addend: 0x0, symName: __ZNSt3__14pairIKPKcP13ProfilerStatsEC1B8ue170006IJRS3_EJEEENS_21piecewise_construct_tENS_5tupleIJDpT_EEENSA_IJDpT0_EEE, symObjAddr: 0x8380, symBinAddr: 0x10000B08C, symSize: 0x44 }
  - { offsetInCU: 0x3BA88, offset: 0x3BA88, size: 0x8, addend: 0x0, symName: __ZNSt3__14pairIKPKcP13ProfilerStatsEC1B8ue170006IJRS3_EJEJLm0EEJEEENS_21piecewise_construct_tERNS_5tupleIJDpT_EEERNSA_IJDpT0_EEENS_15__tuple_indicesIJXspT1_EEEENSJ_IJXspT2_EEEE, symObjAddr: 0x83C4, symBinAddr: 0x10000B0D0, symSize: 0x3C }
  - { offsetInCU: 0x3BB18, offset: 0x3BB18, size: 0x8, addend: 0x0, symName: __ZNSt3__14pairIKPKcP13ProfilerStatsEC2B8ue170006IJRS3_EJEJLm0EEJEEENS_21piecewise_construct_tERNS_5tupleIJDpT_EEERNSA_IJDpT0_EEENS_15__tuple_indicesIJXspT1_EEEENSJ_IJXspT2_EEEE, symObjAddr: 0x8400, symBinAddr: 0x10000B10C, symSize: 0x48 }
  - { offsetInCU: 0x3BBA8, offset: 0x3BBA8, size: 0x8, addend: 0x0, symName: __ZNSt3__112__tuple_leafILm0ERKPKcLb0EE3getB8ue170006Ev, symObjAddr: 0x846C, symBinAddr: 0x10000B178, symSize: 0x18 }
  - { offsetInCU: 0x3BBCE, offset: 0x3BBCE, size: 0x8, addend: 0x0, symName: __ZNKSt3__117__compressed_pairIPNS_11__tree_nodeINS_12__value_typeIPKcP13ProfilerStatsEEPvEENS_22__tree_node_destructorINS_9allocatorIS9_EEEEE5firstB8ue170006Ev, symObjAddr: 0x8484, symBinAddr: 0x10000B190, symSize: 0x24 }
  - { offsetInCU: 0x3BBF4, offset: 0x3BBF4, size: 0x8, addend: 0x0, symName: __ZNKSt3__122__compressed_pair_elemIPNS_11__tree_nodeINS_12__value_typeIPKcP13ProfilerStatsEEPvEELi0ELb0EE5__getB8ue170006Ev, symObjAddr: 0x84A8, symBinAddr: 0x10000B1B4, symSize: 0x14 }
  - { offsetInCU: 0x3BC1A, offset: 0x3BC1A, size: 0x8, addend: 0x0, symName: __ZNSt3__117__compressed_pairIPNS_11__tree_nodeINS_12__value_typeIPKcP13ProfilerStatsEEPvEENS_22__tree_node_destructorINS_9allocatorIS9_EEEEE6secondB8ue170006Ev, symObjAddr: 0x84BC, symBinAddr: 0x10000B1C8, symSize: 0x28 }
  - { offsetInCU: 0x3BC40, offset: 0x3BC40, size: 0x8, addend: 0x0, symName: __ZNSt3__122__compressed_pair_elemINS_22__tree_node_destructorINS_9allocatorINS_11__tree_nodeINS_12__value_typeIPKcP13ProfilerStatsEEPvEEEEEELi1ELb0EE5__getB8ue170006Ev, symObjAddr: 0x84E4, symBinAddr: 0x10000B1F0, symSize: 0x14 }
  - { offsetInCU: 0x3BC66, offset: 0x3BC66, size: 0x8, addend: 0x0, symName: __ZNKSt3__116__tree_node_baseIPvE15__parent_unsafeB8ue170006Ev, symObjAddr: 0x8824, symBinAddr: 0x10000B530, symSize: 0x18 }
  - { offsetInCU: 0x3BC8C, offset: 0x3BC8C, size: 0x8, addend: 0x0, symName: __ZNSt3__116__tree_node_baseIPvE12__set_parentB8ue170006EPS2_, symObjAddr: 0x8A0C, symBinAddr: 0x10000B718, symSize: 0x20 }
  - { offsetInCU: 0x3BCC1, offset: 0x3BCC1, size: 0x8, addend: 0x0, symName: __ZNSt3__117__compressed_pairIPNS_11__tree_nodeINS_12__value_typeIPKcP13ProfilerStatsEEPvEENS_22__tree_node_destructorINS_9allocatorIS9_EEEEE5firstB8ue170006Ev, symObjAddr: 0x8A2C, symBinAddr: 0x10000B738, symSize: 0x24 }
  - { offsetInCU: 0x3BCE7, offset: 0x3BCE7, size: 0x8, addend: 0x0, symName: __ZNSt3__122__compressed_pair_elemIPNS_11__tree_nodeINS_12__value_typeIPKcP13ProfilerStatsEEPvEELi0ELb0EE5__getB8ue170006Ev, symObjAddr: 0x8A50, symBinAddr: 0x10000B75C, symSize: 0x14 }
  - { offsetInCU: 0x3BD0D, offset: 0x3BD0D, size: 0x8, addend: 0x0, symName: __ZNSt3__110unique_ptrINS_11__tree_nodeINS_12__value_typeIPKcP13ProfilerStatsEEPvEENS_22__tree_node_destructorINS_9allocatorIS9_EEEEED2B8ue170006Ev, symObjAddr: 0x8A64, symBinAddr: 0x10000B770, symSize: 0x30 }
  - { offsetInCU: 0x3BD37, offset: 0x3BD37, size: 0x8, addend: 0x0, symName: __ZNSt3__110unique_ptrINS_11__tree_nodeINS_12__value_typeIPKcP13ProfilerStatsEEPvEENS_22__tree_node_destructorINS_9allocatorIS9_EEEEE5resetB8ue170006EPS9_, symObjAddr: 0x8A94, symBinAddr: 0x10000B7A0, symSize: 0x78 }
  - { offsetInCU: 0x3BD7B, offset: 0x3BD7B, size: 0x8, addend: 0x0, symName: __ZNSt3__122__tree_node_destructorINS_9allocatorINS_11__tree_nodeINS_12__value_typeIPKcP13ProfilerStatsEEPvEEEEEclB8ue170006EPSA_, symObjAddr: 0x8B0C, symBinAddr: 0x10000B818, symSize: 0x94 }
  - { offsetInCU: 0x3BDB0, offset: 0x3BDB0, size: 0x8, addend: 0x0, symName: __ZNSt3__115__tree_iteratorINS_12__value_typeIPKcP13ProfilerStatsEEPNS_11__tree_nodeIS6_PvEElEC2B8ue170006ESA_, symObjAddr: 0x8BA0, symBinAddr: 0x10000B8AC, symSize: 0x20 }
  - { offsetInCU: 0x3BDE9, offset: 0x3BDE9, size: 0x8, addend: 0x0, symName: __ZNSt3__14pairINS_15__tree_iteratorINS_12__value_typeIPKcP13ProfilerStatsEEPNS_11__tree_nodeIS7_PvEElEEbEC2B8ue170006ISC_RbLS9_0EEEOT_OT0_, symObjAddr: 0x8BC0, symBinAddr: 0x10000B8CC, symSize: 0x38 }
  - { offsetInCU: 0x3BE47, offset: 0x3BE47, size: 0x8, addend: 0x0, symName: __ZNSt3__15tupleIJRKPKcEEC1B8ue170006INS_4_AndELi0EEES4_, symObjAddr: 0x8BF8, symBinAddr: 0x10000B904, symSize: 0x34 }
  - { offsetInCU: 0x3BE8F, offset: 0x3BE8F, size: 0x8, addend: 0x0, symName: __ZNSt3__15tupleIJRKPKcEEC2B8ue170006INS_4_AndELi0EEES4_, symObjAddr: 0x8C2C, symBinAddr: 0x10000B938, symSize: 0x34 }
  - { offsetInCU: 0x3BED7, offset: 0x3BED7, size: 0x8, addend: 0x0, symName: __ZNSt3__112__tuple_implINS_15__tuple_indicesIJLm0EEEEJRKPKcEEC1B8ue170006IJLm0EEJS6_EJEJEJS6_EEENS1_IJXspT_EEEENS_13__tuple_typesIJDpT0_EEENS1_IJXspT1_EEEENSA_IJDpT2_EEEDpOT3_, symObjAddr: 0x8C60, symBinAddr: 0x10000B96C, symSize: 0x34 }
  - { offsetInCU: 0x3BF6C, offset: 0x3BF6C, size: 0x8, addend: 0x0, symName: __ZNSt3__112__tuple_implINS_15__tuple_indicesIJLm0EEEEJRKPKcEEC2B8ue170006IJLm0EEJS6_EJEJEJS6_EEENS1_IJXspT_EEEENS_13__tuple_typesIJDpT0_EEENS1_IJXspT1_EEEENSA_IJDpT2_EEEDpOT3_, symObjAddr: 0x8C94, symBinAddr: 0x10000B9A0, symSize: 0x34 }
  - { offsetInCU: 0x3C001, offset: 0x3C001, size: 0x8, addend: 0x0, symName: __ZNSt3__112__tuple_leafILm0ERKPKcLb0EEC2B8ue170006IS4_vEEOT_, symObjAddr: 0x8CC8, symBinAddr: 0x10000B9D4, symSize: 0x20 }
  - { offsetInCU: 0x3C044, offset: 0x3C044, size: 0x8, addend: 0x0, symName: __ZNSt3__114pointer_traitsIPNS_12__value_typeIPKcP13ProfilerStatsEEE10pointer_toB8ue170006ERS6_, symObjAddr: 0x8CE8, symBinAddr: 0x10000B9F4, symSize: 0x14 }
  - { offsetInCU: 0x3C067, offset: 0x3C067, size: 0x8, addend: 0x0, symName: __ZNSt3__18ios_base5widthB8ue170006El, symObjAddr: 0x8CFC, symBinAddr: 0x10000BA08, symSize: 0x2C }
  - { offsetInCU: 0x3C0AD, offset: 0x3C0AD, size: 0x8, addend: 0x0, symName: __ZNSt3__111char_traitsIcE6lengthB8ue170006EPKc, symObjAddr: 0x8F14, symBinAddr: 0x10000BC20, symSize: 0x34 }
  - { offsetInCU: 0x3C0EC, offset: 0x3C0EC, size: 0x8, addend: 0x0, symName: __ZNKSt3__113basic_ostreamIcNS_11char_traitsIcEEE6sentrycvbB8ue170006Ev, symObjAddr: 0x8F48, symBinAddr: 0x10000BC54, symSize: 0x1C }
  - { offsetInCU: 0x3C112, offset: 0x3C112, size: 0x8, addend: 0x0, symName: __ZNSt3__119ostreambuf_iteratorIcNS_11char_traitsIcEEEC1B8ue170006ERNS_13basic_ostreamIcS2_EE, symObjAddr: 0x91A4, symBinAddr: 0x10000BEB0, symSize: 0x34 }
  - { offsetInCU: 0x3C14A, offset: 0x3C14A, size: 0x8, addend: 0x0, symName: __ZNKSt3__18ios_base5flagsB8ue170006Ev, symObjAddr: 0x91D8, symBinAddr: 0x10000BEE4, symSize: 0x18 }
  - { offsetInCU: 0x3C172, offset: 0x3C172, size: 0x8, addend: 0x0, symName: __ZNKSt3__19basic_iosIcNS_11char_traitsIcEEE4fillB8ue170006Ev, symObjAddr: 0x91F0, symBinAddr: 0x10000BEFC, symSize: 0x64 }
  - { offsetInCU: 0x3C19A, offset: 0x3C19A, size: 0x8, addend: 0x0, symName: __ZNKSt3__119ostreambuf_iteratorIcNS_11char_traitsIcEEE6failedB8ue170006Ev, symObjAddr: 0x9254, symBinAddr: 0x10000BF60, symSize: 0x24 }
  - { offsetInCU: 0x3C1C0, offset: 0x3C1C0, size: 0x8, addend: 0x0, symName: __ZNSt3__19basic_iosIcNS_11char_traitsIcEEE8setstateB8ue170006Ej, symObjAddr: 0x9278, symBinAddr: 0x10000BF84, symSize: 0x2C }
  - { offsetInCU: 0x3C1F5, offset: 0x3C1F5, size: 0x8, addend: 0x0, symName: __ZNKSt3__18ios_base5widthB8ue170006Ev, symObjAddr: 0x92A4, symBinAddr: 0x10000BFB0, symSize: 0x18 }
  - { offsetInCU: 0x3C21D, offset: 0x3C21D, size: 0x8, addend: 0x0, symName: __ZNSt3__115basic_streambufIcNS_11char_traitsIcEEE5sputnB8ue170006EPKcl, symObjAddr: 0x92BC, symBinAddr: 0x10000BFC8, symSize: 0x3C }
  - { offsetInCU: 0x3C25F, offset: 0x3C25F, size: 0x8, addend: 0x0, symName: __ZNSt3__112basic_stringIcNS_11char_traitsIcEENS_9allocatorIcEEE4dataB8ue170006Ev, symObjAddr: 0x92F8, symBinAddr: 0x10000C004, symSize: 0x28 }
  - { offsetInCU: 0x3C285, offset: 0x3C285, size: 0x8, addend: 0x0, symName: __ZNSt3__112basic_stringIcNS_11char_traitsIcEENS_9allocatorIcEEE13__get_pointerB8ue170006Ev, symObjAddr: 0x9334, symBinAddr: 0x10000C040, symSize: 0x54 }
  - { offsetInCU: 0x3C2AB, offset: 0x3C2AB, size: 0x8, addend: 0x0, symName: __ZNKSt3__112basic_stringIcNS_11char_traitsIcEENS_9allocatorIcEEE9__is_longB8ue170006Ev, symObjAddr: 0x9388, symBinAddr: 0x10000C094, symSize: 0x38 }
  - { offsetInCU: 0x3C2D1, offset: 0x3C2D1, size: 0x8, addend: 0x0, symName: __ZNSt3__112basic_stringIcNS_11char_traitsIcEENS_9allocatorIcEEE18__get_long_pointerB8ue170006Ev, symObjAddr: 0x93C0, symBinAddr: 0x10000C0CC, symSize: 0x28 }
  - { offsetInCU: 0x3C2F7, offset: 0x3C2F7, size: 0x8, addend: 0x0, symName: __ZNSt3__112basic_stringIcNS_11char_traitsIcEENS_9allocatorIcEEE19__get_short_pointerB8ue170006Ev, symObjAddr: 0x93E8, symBinAddr: 0x10000C0F4, symSize: 0x28 }
  - { offsetInCU: 0x3C31D, offset: 0x3C31D, size: 0x8, addend: 0x0, symName: __ZNKSt3__117__compressed_pairINS_12basic_stringIcNS_11char_traitsIcEENS_9allocatorIcEEE5__repES5_E5firstB8ue170006Ev, symObjAddr: 0x9410, symBinAddr: 0x10000C11C, symSize: 0x24 }
  - { offsetInCU: 0x3C343, offset: 0x3C343, size: 0x8, addend: 0x0, symName: __ZNKSt3__122__compressed_pair_elemINS_12basic_stringIcNS_11char_traitsIcEENS_9allocatorIcEEE5__repELi0ELb0EE5__getB8ue170006Ev, symObjAddr: 0x9434, symBinAddr: 0x10000C140, symSize: 0x14 }
  - { offsetInCU: 0x3C369, offset: 0x3C369, size: 0x8, addend: 0x0, symName: __ZNSt3__117__compressed_pairINS_12basic_stringIcNS_11char_traitsIcEENS_9allocatorIcEEE5__repES5_E5firstB8ue170006Ev, symObjAddr: 0x9448, symBinAddr: 0x10000C154, symSize: 0x24 }
  - { offsetInCU: 0x3C38F, offset: 0x3C38F, size: 0x8, addend: 0x0, symName: __ZNSt3__122__compressed_pair_elemINS_12basic_stringIcNS_11char_traitsIcEENS_9allocatorIcEEE5__repELi0ELb0EE5__getB8ue170006Ev, symObjAddr: 0x946C, symBinAddr: 0x10000C178, symSize: 0x14 }
  - { offsetInCU: 0x3C3B5, offset: 0x3C3B5, size: 0x8, addend: 0x0, symName: __ZNSt3__114pointer_traitsIPcE10pointer_toB8ue170006ERc, symObjAddr: 0x9480, symBinAddr: 0x10000C18C, symSize: 0x14 }
  - { offsetInCU: 0x3C3D8, offset: 0x3C3D8, size: 0x8, addend: 0x0, symName: __ZNSt3__119ostreambuf_iteratorIcNS_11char_traitsIcEEEC2B8ue170006ERNS_13basic_ostreamIcS2_EE, symObjAddr: 0x9494, symBinAddr: 0x10000C1A0, symSize: 0x54 }
  - { offsetInCU: 0x3C410, offset: 0x3C410, size: 0x8, addend: 0x0, symName: __ZNKSt3__19basic_iosIcNS_11char_traitsIcEEE5rdbufB8ue170006Ev, symObjAddr: 0x94E8, symBinAddr: 0x10000C1F4, symSize: 0x24 }
  - { offsetInCU: 0x3C438, offset: 0x3C438, size: 0x8, addend: 0x0, symName: __ZNKSt3__18ios_base5rdbufB8ue170006Ev, symObjAddr: 0x950C, symBinAddr: 0x10000C218, symSize: 0x18 }
  - { offsetInCU: 0x3C45E, offset: 0x3C45E, size: 0x8, addend: 0x0, symName: __ZNSt3__111char_traitsIcE11eq_int_typeB8ue170006Eii, symObjAddr: 0x9524, symBinAddr: 0x10000C230, symSize: 0x28 }
  - { offsetInCU: 0x3C491, offset: 0x3C491, size: 0x8, addend: 0x0, symName: __ZNSt3__111char_traitsIcE3eofB8ue170006Ev, symObjAddr: 0x954C, symBinAddr: 0x10000C258, symSize: 0x8 }
  - { offsetInCU: 0x3C4A5, offset: 0x3C4A5, size: 0x8, addend: 0x0, symName: __ZNKSt3__19basic_iosIcNS_11char_traitsIcEEE5widenB8ue170006Ec, symObjAddr: 0x9554, symBinAddr: 0x10000C260, symSize: 0x84 }
  - { offsetInCU: 0x3C511, offset: 0x3C511, size: 0x8, addend: 0x0, symName: __ZNKSt3__15ctypeIcE5widenB8ue170006Ec, symObjAddr: 0x9604, symBinAddr: 0x10000C310, symSize: 0x38 }
  - { offsetInCU: 0x3C546, offset: 0x3C546, size: 0x8, addend: 0x0, symName: __ZNSt3__18ios_base8setstateB8ue170006Ej, symObjAddr: 0x963C, symBinAddr: 0x10000C348, symSize: 0x34 }
  - { offsetInCU: 0x3C57D, offset: 0x3C57D, size: 0x8, addend: 0x0, symName: __ZNSt3__112basic_stringIcNS_11char_traitsIcEENS_9allocatorIcEEEC2B8ue170006Emc, symObjAddr: 0x9694, symBinAddr: 0x10000C3A0, symSize: 0x4C }
  - { offsetInCU: 0x3C5C5, offset: 0x3C5C5, size: 0x8, addend: 0x0, symName: __ZNSt3__117__compressed_pairINS_12basic_stringIcNS_11char_traitsIcEENS_9allocatorIcEEE5__repES5_EC1B8ue170006INS_18__default_init_tagESA_EEOT_OT0_, symObjAddr: 0x96E0, symBinAddr: 0x10000C3EC, symSize: 0x3C }
  - { offsetInCU: 0x3C61D, offset: 0x3C61D, size: 0x8, addend: 0x0, symName: __ZNSt3__117__compressed_pairINS_12basic_stringIcNS_11char_traitsIcEENS_9allocatorIcEEE5__repES5_EC2B8ue170006INS_18__default_init_tagESA_EEOT_OT0_, symObjAddr: 0x971C, symBinAddr: 0x10000C428, symSize: 0x3C }
  - { offsetInCU: 0x3C675, offset: 0x3C675, size: 0x8, addend: 0x0, symName: __ZNSt3__122__compressed_pair_elemINS_12basic_stringIcNS_11char_traitsIcEENS_9allocatorIcEEE5__repELi0ELb0EEC2B8ue170006ENS_18__default_init_tagE, symObjAddr: 0x9758, symBinAddr: 0x10000C464, symSize: 0x14 }
  - { offsetInCU: 0x3C6AA, offset: 0x3C6AA, size: 0x8, addend: 0x0, symName: __ZNSt3__122__compressed_pair_elemINS_9allocatorIcEELi1ELb1EEC2B8ue170006ENS_18__default_init_tagE, symObjAddr: 0x976C, symBinAddr: 0x10000C478, symSize: 0x2C }
  - { offsetInCU: 0x3C6DF, offset: 0x3C6DF, size: 0x8, addend: 0x0, symName: __ZNSt3__19allocatorIcEC2B8ue170006Ev, symObjAddr: 0x9798, symBinAddr: 0x10000C4A4, symSize: 0x2C }
  - { offsetInCU: 0x3C709, offset: 0x3C709, size: 0x8, addend: 0x0, symName: __ZNSt3__116__non_trivial_ifILb1ENS_9allocatorIcEEEC2B8ue170006Ev, symObjAddr: 0x97C4, symBinAddr: 0x10000C4D0, symSize: 0x14 }
  - { offsetInCU: 0x3C733, offset: 0x3C733, size: 0x8, addend: 0x0, symName: __ZNKSt3__112basic_stringIcNS_11char_traitsIcEENS_9allocatorIcEEE4dataB8ue170006Ev, symObjAddr: 0x97D8, symBinAddr: 0x10000C4E4, symSize: 0x28 }
  - { offsetInCU: 0x3C759, offset: 0x3C759, size: 0x8, addend: 0x0, symName: __ZNKSt3__112basic_stringIcNS_11char_traitsIcEENS_9allocatorIcEEE4sizeB8ue170006Ev, symObjAddr: 0x9800, symBinAddr: 0x10000C50C, symSize: 0x54 }
  - { offsetInCU: 0x3C77F, offset: 0x3C77F, size: 0x8, addend: 0x0, symName: __ZNKSt3__112basic_stringIcNS_11char_traitsIcEENS_9allocatorIcEEE13__get_pointerB8ue170006Ev, symObjAddr: 0x9868, symBinAddr: 0x10000C574, symSize: 0x54 }
  - { offsetInCU: 0x3C7A5, offset: 0x3C7A5, size: 0x8, addend: 0x0, symName: __ZNKSt3__112basic_stringIcNS_11char_traitsIcEENS_9allocatorIcEEE18__get_long_pointerB8ue170006Ev, symObjAddr: 0x98BC, symBinAddr: 0x10000C5C8, symSize: 0x28 }
  - { offsetInCU: 0x3C7CB, offset: 0x3C7CB, size: 0x8, addend: 0x0, symName: __ZNKSt3__112basic_stringIcNS_11char_traitsIcEENS_9allocatorIcEEE19__get_short_pointerB8ue170006Ev, symObjAddr: 0x98E4, symBinAddr: 0x10000C5F0, symSize: 0x28 }
  - { offsetInCU: 0x3C7F1, offset: 0x3C7F1, size: 0x8, addend: 0x0, symName: __ZNSt3__114pointer_traitsIPKcE10pointer_toB8ue170006ERS1_, symObjAddr: 0x990C, symBinAddr: 0x10000C618, symSize: 0x14 }
  - { offsetInCU: 0x3C814, offset: 0x3C814, size: 0x8, addend: 0x0, symName: __ZNKSt3__112basic_stringIcNS_11char_traitsIcEENS_9allocatorIcEEE15__get_long_sizeB8ue170006Ev, symObjAddr: 0x9920, symBinAddr: 0x10000C62C, symSize: 0x28 }
  - { offsetInCU: 0x3C83A, offset: 0x3C83A, size: 0x8, addend: 0x0, symName: __ZNKSt3__112basic_stringIcNS_11char_traitsIcEENS_9allocatorIcEEE16__get_short_sizeB8ue170006Ev, symObjAddr: 0x9948, symBinAddr: 0x10000C654, symSize: 0x34 }
  - { offsetInCU: 0x3C860, offset: 0x3C860, size: 0x8, addend: 0x0, symName: __ZNSt3__16__treeINS_12__value_typeIPKcP13ProfilerStatsEENS_19__map_value_compareIS3_S6_NS_4lessIS3_EELb1EEENS_9allocatorIS6_EEE5beginB8ue170006Ev, symObjAddr: 0x997C, symBinAddr: 0x10000C688, symSize: 0x34 }
  - { offsetInCU: 0x3C886, offset: 0x3C886, size: 0x8, addend: 0x0, symName: __ZNSt3__115__tree_iteratorINS_12__value_typeIPKcP13ProfilerStatsEEPNS_11__tree_nodeIS6_PvEElEppB8ue170006Ev, symObjAddr: 0x99B0, symBinAddr: 0x10000C6BC, symSize: 0x38 }
  - { offsetInCU: 0x3C8AC, offset: 0x3C8AC, size: 0x8, addend: 0x0, symName: __ZNSt3__19basic_iosIcNS_11char_traitsIcEEEC2B8ue170006Ev, symObjAddr: 0x9AA8, symBinAddr: 0x10000C7B4, symSize: 0x44 }
  - { offsetInCU: 0x3C8D6, offset: 0x3C8D6, size: 0x8, addend: 0x0, symName: __ZNSt3__113basic_ostreamIcNS_11char_traitsIcEEEC2B8ue170006EPNS_15basic_streambufIcS2_EE, symObjAddr: 0x9AEC, symBinAddr: 0x10000C7F8, symSize: 0x60 }
  - { offsetInCU: 0x3C91B, offset: 0x3C91B, size: 0x8, addend: 0x0, symName: __ZNSt3__18ios_baseC2B8ue170006Ev, symObjAddr: 0x9B4C, symBinAddr: 0x10000C858, symSize: 0x24 }
  - { offsetInCU: 0x3C945, offset: 0x3C945, size: 0x8, addend: 0x0, symName: __ZNSt3__19basic_iosIcNS_11char_traitsIcEEE4initB8ue170006EPNS_15basic_streambufIcS2_EE, symObjAddr: 0x9B70, symBinAddr: 0x10000C87C, symSize: 0x44 }
  - { offsetInCU: 0x3C97C, offset: 0x3C97C, size: 0x8, addend: 0x0, symName: __ZNKSt3__113basic_filebufIcNS_11char_traitsIcEEE7is_openEv, symObjAddr: 0x9BB4, symBinAddr: 0x10000C8C0, symSize: 0x24 }
  - { offsetInCU: 0x3C9A4, offset: 0x3C9A4, size: 0x8, addend: 0x0, symName: __ZN8nlohmann16json_abi_v3_11_310basic_jsonINS0_11ordered_mapENSt3__16vectorENS3_12basic_stringIcNS3_11char_traitsIcEENS3_9allocatorIcEEEEbxydS8_NS0_14adl_serializerENS4_IhNS8_IhEEEEvEC1ENS0_6detail7value_tE, symObjAddr: 0x9BD8, symBinAddr: 0x10000C8E4, symSize: 0x34 }
  - { offsetInCU: 0x3C9DD, offset: 0x3C9DD, size: 0x8, addend: 0x0, symName: __ZNK8nlohmann16json_abi_v3_11_310basic_jsonINS0_11ordered_mapENSt3__16vectorENS3_12basic_stringIcNS3_11char_traitsIcEENS3_9allocatorIcEEEEbxydS8_NS0_14adl_serializerENS4_IhNS8_IhEEEEvE16assert_invariantEb, symObjAddr: 0x9C0C, symBinAddr: 0x10000C918, symSize: 0x1F0 }
  - { offsetInCU: 0x3CA12, offset: 0x3CA12, size: 0x8, addend: 0x0, symName: __ZN8nlohmann16json_abi_v3_11_310basic_jsonINS0_11ordered_mapENSt3__16vectorENS3_12basic_stringIcNS3_11char_traitsIcEENS3_9allocatorIcEEEEbxydS8_NS0_14adl_serializerENS4_IhNS8_IhEEEEvEC2ENS0_6detail7value_tE, symObjAddr: 0x9DFC, symBinAddr: 0x10000CB08, symSize: 0x44 }
  - { offsetInCU: 0x3CA4B, offset: 0x3CA4B, size: 0x8, addend: 0x0, symName: __ZN8nlohmann16json_abi_v3_11_310basic_jsonINS0_11ordered_mapENSt3__16vectorENS3_12basic_stringIcNS3_11char_traitsIcEENS3_9allocatorIcEEEEbxydS8_NS0_14adl_serializerENS4_IhNS8_IhEEEEvE4dataC1ENS0_6detail7value_tE, symObjAddr: 0x9E40, symBinAddr: 0x10000CB4C, symSize: 0x34 }
  - { offsetInCU: 0x3CA84, offset: 0x3CA84, size: 0x8, addend: 0x0, symName: __ZN8nlohmann16json_abi_v3_11_310basic_jsonINS0_11ordered_mapENSt3__16vectorENS3_12basic_stringIcNS3_11char_traitsIcEENS3_9allocatorIcEEEEbxydS8_NS0_14adl_serializerENS4_IhNS8_IhEEEEvE4dataC2ENS0_6detail7value_tE, symObjAddr: 0x9E74, symBinAddr: 0x10000CB80, symSize: 0x40 }
  - { offsetInCU: 0x3CABD, offset: 0x3CABD, size: 0x8, addend: 0x0, symName: __ZN8nlohmann16json_abi_v3_11_310basic_jsonINS0_11ordered_mapENSt3__16vectorENS3_12basic_stringIcNS3_11char_traitsIcEENS3_9allocatorIcEEEEbxydS8_NS0_14adl_serializerENS4_IhNS8_IhEEEEvE10json_valueC1ENS0_6detail7value_tE, symObjAddr: 0x9EB4, symBinAddr: 0x10000CBC0, symSize: 0x34 }
  - { offsetInCU: 0x3CAF6, offset: 0x3CAF6, size: 0x8, addend: 0x0, symName: __ZN8nlohmann16json_abi_v3_11_310basic_jsonINS0_11ordered_mapENSt3__16vectorENS3_12basic_stringIcNS3_11char_traitsIcEENS3_9allocatorIcEEEEbxydS8_NS0_14adl_serializerENS4_IhNS8_IhEEEEvE10json_valueC2ENS0_6detail7value_tE, symObjAddr: 0x9EE8, symBinAddr: 0x10000CBF4, symSize: 0x1DC }
  - { offsetInCU: 0x3CB2F, offset: 0x3CB2F, size: 0x8, addend: 0x0, symName: __ZN8nlohmann16json_abi_v3_11_310basic_jsonINS0_11ordered_mapENSt3__16vectorENS3_12basic_stringIcNS3_11char_traitsIcEENS3_9allocatorIcEEEEbxydS8_NS0_14adl_serializerENS4_IhNS8_IhEEEEvE6createINS2_ISA_SE_NS3_4lessIvEENS8_INS3_4pairIKSA_SE_EEEEEEJEEEPT_DpOT0_, symObjAddr: 0xA0EC, symBinAddr: 0x10000CDF8, symSize: 0xEC }
  - { offsetInCU: 0x3CBA8, offset: 0x3CBA8, size: 0x8, addend: 0x0, symName: __ZN8nlohmann16json_abi_v3_11_310basic_jsonINS0_11ordered_mapENSt3__16vectorENS3_12basic_stringIcNS3_11char_traitsIcEENS3_9allocatorIcEEEEbxydS8_NS0_14adl_serializerENS4_IhNS8_IhEEEEvE6createINS4_ISE_NS8_ISE_EEEEJEEEPT_DpOT0_, symObjAddr: 0xA1D8, symBinAddr: 0x10000CEE4, symSize: 0xEC }
  - { offsetInCU: 0x3CC3B, offset: 0x3CC3B, size: 0x8, addend: 0x0, symName: __ZN8nlohmann16json_abi_v3_11_310basic_jsonINS0_11ordered_mapENSt3__16vectorENS3_12basic_stringIcNS3_11char_traitsIcEENS3_9allocatorIcEEEEbxydS8_NS0_14adl_serializerENS4_IhNS8_IhEEEEvE6createISA_JRA1_KcEEEPT_DpOT0_, symObjAddr: 0xA2C4, symBinAddr: 0x10000CFD0, symSize: 0xF4 }
  - { offsetInCU: 0x3CCC9, offset: 0x3CCC9, size: 0x8, addend: 0x0, symName: __ZN8nlohmann16json_abi_v3_11_310basic_jsonINS0_11ordered_mapENSt3__16vectorENS3_12basic_stringIcNS3_11char_traitsIcEENS3_9allocatorIcEEEEbxydS8_NS0_14adl_serializerENS4_IhNS8_IhEEEEvE6createINS0_27byte_container_with_subtypeISD_EEJEEEPT_DpOT0_, symObjAddr: 0xA3B8, symBinAddr: 0x10000D0C4, symSize: 0xEC }
  - { offsetInCU: 0x3CD73, offset: 0x3CD73, size: 0x8, addend: 0x0, symName: __ZN8nlohmann16json_abi_v3_11_36detail11other_error6createIDnLi0EEES2_iRKNSt3__112basic_stringIcNS4_11char_traitsIcEENS4_9allocatorIcEEEET_, symObjAddr: 0xA4A4, symBinAddr: 0x10000D1B0, symSize: 0x130 }
  - { offsetInCU: 0x3CDD8, offset: 0x3CDD8, size: 0x8, addend: 0x0, symName: __ZNSt3__112basic_stringIcNS_11char_traitsIcEENS_9allocatorIcEEEC1B8ue170006ILi0EEEPKc, symObjAddr: 0xA5D4, symBinAddr: 0x10000D2E0, symSize: 0x34 }
  - { offsetInCU: 0x3CE17, offset: 0x3CE17, size: 0x8, addend: 0x0, symName: __ZN8nlohmann16json_abi_v3_11_36detail11other_errorD1Ev, symObjAddr: 0xA608, symBinAddr: 0x10000D314, symSize: 0x2C }
  - { offsetInCU: 0x3CE6A, offset: 0x3CE6A, size: 0x8, addend: 0x0, symName: __ZNSt3__19allocatorIN8nlohmann16json_abi_v3_11_311ordered_mapINS_12basic_stringIcNS_11char_traitsIcEENS0_IcEEEENS2_10basic_jsonIS3_NS_6vectorES8_bxydS0_NS2_14adl_serializerENSA_IhNS0_IhEEEEvEENS_4lessIvEENS0_INS_4pairIKS8_SE_EEEEEEEC1B8ue170006Ev, symObjAddr: 0xA634, symBinAddr: 0x10000D340, symSize: 0x2C }
  - { offsetInCU: 0x3CE9A, offset: 0x3CE9A, size: 0x8, addend: 0x0, symName: __ZNSt3__116allocator_traitsINS_9allocatorIN8nlohmann16json_abi_v3_11_311ordered_mapINS_12basic_stringIcNS_11char_traitsIcEENS1_IcEEEENS3_10basic_jsonIS4_NS_6vectorES9_bxydS1_NS3_14adl_serializerENSB_IhNS1_IhEEEEvEENS_4lessIvEENS1_INS_4pairIKS9_SF_EEEEEEEEE8allocateB8ue170006ERSN_m, symObjAddr: 0xA660, symBinAddr: 0x10000D36C, symSize: 0x2C }
  - { offsetInCU: 0x3CF6A, offset: 0x3CF6A, size: 0x8, addend: 0x0, symName: __ZNSt3__110unique_ptrIN8nlohmann16json_abi_v3_11_311ordered_mapINS_12basic_stringIcNS_11char_traitsIcEENS_9allocatorIcEEEENS2_10basic_jsonIS3_NS_6vectorES9_bxydS7_NS2_14adl_serializerENSB_IhNS7_IhEEEEvEENS_4lessIvEENS7_INS_4pairIKS9_SF_EEEEEEZNSF_6createISM_JEEEPT_DpOT0_EUlPSM_E_EC1B8ue170006ILb1EvEEST_NS_16__dependent_typeINS_27__unique_ptr_deleter_sfinaeISU_EEXT_EE15__lval_ref_typeE, symObjAddr: 0xA68C, symBinAddr: 0x10000D398, symSize: 0x3C }
  - { offsetInCU: 0x3CFBB, offset: 0x3CFBB, size: 0x8, addend: 0x0, symName: __ZNSt3__116allocator_traitsINS_9allocatorIN8nlohmann16json_abi_v3_11_311ordered_mapINS_12basic_stringIcNS_11char_traitsIcEENS1_IcEEEENS3_10basic_jsonIS4_NS_6vectorES9_bxydS1_NS3_14adl_serializerENSB_IhNS1_IhEEEEvEENS_4lessIvEENS1_INS_4pairIKS9_SF_EEEEEEEEE9constructB8ue170006ISM_JEvEEvRSN_PT_DpOT0_, symObjAddr: 0xA6C8, symBinAddr: 0x10000D3D4, symSize: 0x2C }
  - { offsetInCU: 0x3CFFD, offset: 0x3CFFD, size: 0x8, addend: 0x0, symName: __ZNKSt3__110unique_ptrIN8nlohmann16json_abi_v3_11_311ordered_mapINS_12basic_stringIcNS_11char_traitsIcEENS_9allocatorIcEEEENS2_10basic_jsonIS3_NS_6vectorES9_bxydS7_NS2_14adl_serializerENSB_IhNS7_IhEEEEvEENS_4lessIvEENS7_INS_4pairIKS9_SF_EEEEEEZNSF_6createISM_JEEEPT_DpOT0_EUlPSM_E_E3getB8ue170006Ev, symObjAddr: 0xA6F4, symBinAddr: 0x10000D400, symSize: 0x28 }
  - { offsetInCU: 0x3D023, offset: 0x3D023, size: 0x8, addend: 0x0, symName: __ZNSt3__110unique_ptrIN8nlohmann16json_abi_v3_11_311ordered_mapINS_12basic_stringIcNS_11char_traitsIcEENS_9allocatorIcEEEENS2_10basic_jsonIS3_NS_6vectorES9_bxydS7_NS2_14adl_serializerENSB_IhNS7_IhEEEEvEENS_4lessIvEENS7_INS_4pairIKS9_SF_EEEEEEZNSF_6createISM_JEEEPT_DpOT0_EUlPSM_E_E7releaseB8ue170006Ev, symObjAddr: 0xA748, symBinAddr: 0x10000D454, symSize: 0x44 }
  - { offsetInCU: 0x3D058, offset: 0x3D058, size: 0x8, addend: 0x0, symName: __ZNSt3__110unique_ptrIN8nlohmann16json_abi_v3_11_311ordered_mapINS_12basic_stringIcNS_11char_traitsIcEENS_9allocatorIcEEEENS2_10basic_jsonIS3_NS_6vectorES9_bxydS7_NS2_14adl_serializerENSB_IhNS7_IhEEEEvEENS_4lessIvEENS7_INS_4pairIKS9_SF_EEEEEEZNSF_6createISM_JEEEPT_DpOT0_EUlPSM_E_ED1B8ue170006Ev, symObjAddr: 0xA78C, symBinAddr: 0x10000D498, symSize: 0x2C }
  - { offsetInCU: 0x3D082, offset: 0x3D082, size: 0x8, addend: 0x0, symName: __ZNSt3__19allocatorIN8nlohmann16json_abi_v3_11_311ordered_mapINS_12basic_stringIcNS_11char_traitsIcEENS0_IcEEEENS2_10basic_jsonIS3_NS_6vectorES8_bxydS0_NS2_14adl_serializerENSA_IhNS0_IhEEEEvEENS_4lessIvEENS0_INS_4pairIKS8_SE_EEEEEEEC2B8ue170006Ev, symObjAddr: 0xA7B8, symBinAddr: 0x10000D4C4, symSize: 0x2C }
  - { offsetInCU: 0x3D0AC, offset: 0x3D0AC, size: 0x8, addend: 0x0, symName: __ZNSt3__116__non_trivial_ifILb1ENS_9allocatorIN8nlohmann16json_abi_v3_11_311ordered_mapINS_12basic_stringIcNS_11char_traitsIcEENS1_IcEEEENS3_10basic_jsonIS4_NS_6vectorES9_bxydS1_NS3_14adl_serializerENSB_IhNS1_IhEEEEvEENS_4lessIvEENS1_INS_4pairIKS9_SF_EEEEEEEEEC2B8ue170006Ev, symObjAddr: 0xA7E4, symBinAddr: 0x10000D4F0, symSize: 0x14 }
  - { offsetInCU: 0x3D0D6, offset: 0x3D0D6, size: 0x8, addend: 0x0, symName: __ZNSt3__19allocatorIN8nlohmann16json_abi_v3_11_311ordered_mapINS_12basic_stringIcNS_11char_traitsIcEENS0_IcEEEENS2_10basic_jsonIS3_NS_6vectorES8_bxydS0_NS2_14adl_serializerENSA_IhNS0_IhEEEEvEENS_4lessIvEENS0_INS_4pairIKS8_SE_EEEEEEE8allocateB8ue170006Em, symObjAddr: 0xA7F8, symBinAddr: 0x10000D504, symSize: 0x58 }
  - { offsetInCU: 0x3D116, offset: 0x3D116, size: 0x8, addend: 0x0, symName: __ZNSt3__116allocator_traitsINS_9allocatorIN8nlohmann16json_abi_v3_11_311ordered_mapINS_12basic_stringIcNS_11char_traitsIcEENS1_IcEEEENS3_10basic_jsonIS4_NS_6vectorES9_bxydS1_NS3_14adl_serializerENSB_IhNS1_IhEEEEvEENS_4lessIvEENS1_INS_4pairIKS9_SF_EEEEEEEEE8max_sizeB8ue170006ISN_vEEmRKSN_, symObjAddr: 0xA850, symBinAddr: 0x10000D55C, symSize: 0x24 }
  - { offsetInCU: 0x3D144, offset: 0x3D144, size: 0x8, addend: 0x0, symName: __ZNKSt3__19allocatorIN8nlohmann16json_abi_v3_11_311ordered_mapINS_12basic_stringIcNS_11char_traitsIcEENS0_IcEEEENS2_10basic_jsonIS3_NS_6vectorES8_bxydS0_NS2_14adl_serializerENSA_IhNS0_IhEEEEvEENS_4lessIvEENS0_INS_4pairIKS8_SE_EEEEEEE8max_sizeB8ue170006Ev, symObjAddr: 0xA874, symBinAddr: 0x10000D580, symSize: 0x14 }
  - { offsetInCU: 0x3D16A, offset: 0x3D16A, size: 0x8, addend: 0x0, symName: __ZNSt3__110unique_ptrIN8nlohmann16json_abi_v3_11_311ordered_mapINS_12basic_stringIcNS_11char_traitsIcEENS_9allocatorIcEEEENS2_10basic_jsonIS3_NS_6vectorES9_bxydS7_NS2_14adl_serializerENSB_IhNS7_IhEEEEvEENS_4lessIvEENS7_INS_4pairIKS9_SF_EEEEEEZNSF_6createISM_JEEEPT_DpOT0_EUlPSM_E_EC2B8ue170006ILb1EvEEST_NS_16__dependent_typeINS_27__unique_ptr_deleter_sfinaeISU_EEXT_EE15__lval_ref_typeE, symObjAddr: 0xA888, symBinAddr: 0x10000D594, symSize: 0x48 }
  - { offsetInCU: 0x3D1BB, offset: 0x3D1BB, size: 0x8, addend: 0x0, symName: __ZNSt3__117__compressed_pairIPN8nlohmann16json_abi_v3_11_311ordered_mapINS_12basic_stringIcNS_11char_traitsIcEENS_9allocatorIcEEEENS2_10basic_jsonIS3_NS_6vectorES9_bxydS7_NS2_14adl_serializerENSB_IhNS7_IhEEEEvEENS_4lessIvEENS7_INS_4pairIKS9_SF_EEEEEEZNSF_6createISM_JEEEPT_DpOT0_EUlSN_E_EC1B8ue170006IRSN_RKSU_EEOSP_OT0_, symObjAddr: 0xA8D0, symBinAddr: 0x10000D5DC, symSize: 0x3C }
  - { offsetInCU: 0x3D213, offset: 0x3D213, size: 0x8, addend: 0x0, symName: __ZNSt3__117__compressed_pairIPN8nlohmann16json_abi_v3_11_311ordered_mapINS_12basic_stringIcNS_11char_traitsIcEENS_9allocatorIcEEEENS2_10basic_jsonIS3_NS_6vectorES9_bxydS7_NS2_14adl_serializerENSB_IhNS7_IhEEEEvEENS_4lessIvEENS7_INS_4pairIKS9_SF_EEEEEEZNSF_6createISM_JEEEPT_DpOT0_EUlSN_E_EC2B8ue170006IRSN_RKSU_EEOSP_OT0_, symObjAddr: 0xA90C, symBinAddr: 0x10000D618, symSize: 0x48 }
  - { offsetInCU: 0x3D26B, offset: 0x3D26B, size: 0x8, addend: 0x0, symName: __ZNSt3__122__compressed_pair_elemIPN8nlohmann16json_abi_v3_11_311ordered_mapINS_12basic_stringIcNS_11char_traitsIcEENS_9allocatorIcEEEENS2_10basic_jsonIS3_NS_6vectorES9_bxydS7_NS2_14adl_serializerENSB_IhNS7_IhEEEEvEENS_4lessIvEENS7_INS_4pairIKS9_SF_EEEEEELi0ELb0EEC2B8ue170006IRSN_vEEOT_, symObjAddr: 0xA954, symBinAddr: 0x10000D660, symSize: 0x24 }
  - { offsetInCU: 0x3D2AD, offset: 0x3D2AD, size: 0x8, addend: 0x0, symName: __ZNSt3__122__compressed_pair_elemIZN8nlohmann16json_abi_v3_11_310basic_jsonINS2_11ordered_mapENS_6vectorENS_12basic_stringIcNS_11char_traitsIcEENS_9allocatorIcEEEEbxydS9_NS2_14adl_serializerENS5_IhNS9_IhEEEEvE6createINS4_ISB_SF_NS_4lessIvEENS9_INS_4pairIKSB_SF_EEEEEEJEEEPT_DpOT0_EUlPSN_E_Li1ELb0EEC2B8ue170006IRKSU_vEEOSO_, symObjAddr: 0xA978, symBinAddr: 0x10000D684, symSize: 0x24 }
  - { offsetInCU: 0x3D2EF, offset: 0x3D2EF, size: 0x8, addend: 0x0, symName: __ZNSt3__19allocatorIN8nlohmann16json_abi_v3_11_311ordered_mapINS_12basic_stringIcNS_11char_traitsIcEENS0_IcEEEENS2_10basic_jsonIS3_NS_6vectorES8_bxydS0_NS2_14adl_serializerENSA_IhNS0_IhEEEEvEENS_4lessIvEENS0_INS_4pairIKS8_SE_EEEEEEE9constructB8ue170006ISL_JEEEvPT_DpOT0_, symObjAddr: 0xA99C, symBinAddr: 0x10000D6A8, symSize: 0x28 }
  - { offsetInCU: 0x3D331, offset: 0x3D331, size: 0x8, addend: 0x0, symName: __ZN8nlohmann16json_abi_v3_11_311ordered_mapINSt3__112basic_stringIcNS2_11char_traitsIcEENS2_9allocatorIcEEEENS0_10basic_jsonIS1_NS2_6vectorES8_bxydS6_NS0_14adl_serializerENSA_IhNS6_IhEEEEvEENS2_4lessIvEENS6_INS2_4pairIKS8_SE_EEEEEC1Ev, symObjAddr: 0xA9C4, symBinAddr: 0x10000D6D0, symSize: 0x2C }
  - { offsetInCU: 0x3D35B, offset: 0x3D35B, size: 0x8, addend: 0x0, symName: __ZN8nlohmann16json_abi_v3_11_311ordered_mapINSt3__112basic_stringIcNS2_11char_traitsIcEENS2_9allocatorIcEEEENS0_10basic_jsonIS1_NS2_6vectorES8_bxydS6_NS0_14adl_serializerENSA_IhNS6_IhEEEEvEENS2_4lessIvEENS6_INS2_4pairIKS8_SE_EEEEEC2Ev, symObjAddr: 0xA9F0, symBinAddr: 0x10000D6FC, symSize: 0x2C }
  - { offsetInCU: 0x3D385, offset: 0x3D385, size: 0x8, addend: 0x0, symName: __ZNSt3__16vectorINS_4pairIKNS_12basic_stringIcNS_11char_traitsIcEENS_9allocatorIcEEEEN8nlohmann16json_abi_v3_11_310basic_jsonINSA_11ordered_mapES0_S7_bxydS5_NSA_14adl_serializerENS0_IhNS5_IhEEEEvEEEENS5_ISH_EEEC2B8ue170006Ev, symObjAddr: 0xAA1C, symBinAddr: 0x10000D728, symSize: 0x4C }
  - { offsetInCU: 0x3D3AF, offset: 0x3D3AF, size: 0x8, addend: 0x0, symName: __ZNSt3__117__compressed_pairIPNS_4pairIKNS_12basic_stringIcNS_11char_traitsIcEENS_9allocatorIcEEEEN8nlohmann16json_abi_v3_11_310basic_jsonINSA_11ordered_mapENS_6vectorES7_bxydS5_NSA_14adl_serializerENSD_IhNS5_IhEEEEvEEEENS5_ISI_EEEC1B8ue170006IDnNS_18__default_init_tagEEEOT_OT0_, symObjAddr: 0xAA68, symBinAddr: 0x10000D774, symSize: 0x3C }
  - { offsetInCU: 0x3D407, offset: 0x3D407, size: 0x8, addend: 0x0, symName: __ZNSt3__117__compressed_pairIPNS_4pairIKNS_12basic_stringIcNS_11char_traitsIcEENS_9allocatorIcEEEEN8nlohmann16json_abi_v3_11_310basic_jsonINSA_11ordered_mapENS_6vectorES7_bxydS5_NSA_14adl_serializerENSD_IhNS5_IhEEEEvEEEENS5_ISI_EEEC2B8ue170006IDnNS_18__default_init_tagEEEOT_OT0_, symObjAddr: 0xAAA4, symBinAddr: 0x10000D7B0, symSize: 0x40 }
  - { offsetInCU: 0x3D45F, offset: 0x3D45F, size: 0x8, addend: 0x0, symName: __ZNSt3__122__compressed_pair_elemIPNS_4pairIKNS_12basic_stringIcNS_11char_traitsIcEENS_9allocatorIcEEEEN8nlohmann16json_abi_v3_11_310basic_jsonINSA_11ordered_mapENS_6vectorES7_bxydS5_NSA_14adl_serializerENSD_IhNS5_IhEEEEvEEEELi0ELb0EEC2B8ue170006IDnvEEOT_, symObjAddr: 0xAAE4, symBinAddr: 0x10000D7F0, symSize: 0x1C }
  - { offsetInCU: 0x3D4A1, offset: 0x3D4A1, size: 0x8, addend: 0x0, symName: __ZNSt3__122__compressed_pair_elemINS_9allocatorINS_4pairIKNS_12basic_stringIcNS_11char_traitsIcEENS1_IcEEEEN8nlohmann16json_abi_v3_11_310basic_jsonINSA_11ordered_mapENS_6vectorES7_bxydS1_NSA_14adl_serializerENSD_IhNS1_IhEEEEvEEEEEELi1ELb1EEC2B8ue170006ENS_18__default_init_tagE, symObjAddr: 0xAB00, symBinAddr: 0x10000D80C, symSize: 0x2C }
  - { offsetInCU: 0x3D4D6, offset: 0x3D4D6, size: 0x8, addend: 0x0, symName: __ZNSt3__19allocatorINS_4pairIKNS_12basic_stringIcNS_11char_traitsIcEENS0_IcEEEEN8nlohmann16json_abi_v3_11_310basic_jsonINS9_11ordered_mapENS_6vectorES6_bxydS0_NS9_14adl_serializerENSC_IhNS0_IhEEEEvEEEEEC2B8ue170006Ev, symObjAddr: 0xAB2C, symBinAddr: 0x10000D838, symSize: 0x2C }
  - { offsetInCU: 0x3D500, offset: 0x3D500, size: 0x8, addend: 0x0, symName: __ZNSt3__116__non_trivial_ifILb1ENS_9allocatorINS_4pairIKNS_12basic_stringIcNS_11char_traitsIcEENS1_IcEEEEN8nlohmann16json_abi_v3_11_310basic_jsonINSA_11ordered_mapENS_6vectorES7_bxydS1_NSA_14adl_serializerENSD_IhNS1_IhEEEEvEEEEEEEC2B8ue170006Ev, symObjAddr: 0xAB58, symBinAddr: 0x10000D864, symSize: 0x14 }
  - { offsetInCU: 0x3D52A, offset: 0x3D52A, size: 0x8, addend: 0x0, symName: __ZNKSt3__117__compressed_pairIPN8nlohmann16json_abi_v3_11_311ordered_mapINS_12basic_stringIcNS_11char_traitsIcEENS_9allocatorIcEEEENS2_10basic_jsonIS3_NS_6vectorES9_bxydS7_NS2_14adl_serializerENSB_IhNS7_IhEEEEvEENS_4lessIvEENS7_INS_4pairIKS9_SF_EEEEEEZNSF_6createISM_JEEEPT_DpOT0_EUlSN_E_E5firstB8ue170006Ev, symObjAddr: 0xAB6C, symBinAddr: 0x10000D878, symSize: 0x24 }
  - { offsetInCU: 0x3D550, offset: 0x3D550, size: 0x8, addend: 0x0, symName: __ZNKSt3__122__compressed_pair_elemIPN8nlohmann16json_abi_v3_11_311ordered_mapINS_12basic_stringIcNS_11char_traitsIcEENS_9allocatorIcEEEENS2_10basic_jsonIS3_NS_6vectorES9_bxydS7_NS2_14adl_serializerENSB_IhNS7_IhEEEEvEENS_4lessIvEENS7_INS_4pairIKS9_SF_EEEEEELi0ELb0EE5__getB8ue170006Ev, symObjAddr: 0xAB90, symBinAddr: 0x10000D89C, symSize: 0x14 }
  - { offsetInCU: 0x3D576, offset: 0x3D576, size: 0x8, addend: 0x0, symName: __ZNKSt3__110unique_ptrIN8nlohmann16json_abi_v3_11_311ordered_mapINS_12basic_stringIcNS_11char_traitsIcEENS_9allocatorIcEEEENS2_10basic_jsonIS3_NS_6vectorES9_bxydS7_NS2_14adl_serializerENSB_IhNS7_IhEEEEvEENS_4lessIvEENS7_INS_4pairIKS9_SF_EEEEEEZNSF_6createISM_JEEEPT_DpOT0_EUlPSM_E_EcvbB8ue170006Ev, symObjAddr: 0xABA4, symBinAddr: 0x10000D8B0, symSize: 0x34 }
  - { offsetInCU: 0x3D59C, offset: 0x3D59C, size: 0x8, addend: 0x0, symName: __ZNSt3__117__compressed_pairIPN8nlohmann16json_abi_v3_11_311ordered_mapINS_12basic_stringIcNS_11char_traitsIcEENS_9allocatorIcEEEENS2_10basic_jsonIS3_NS_6vectorES9_bxydS7_NS2_14adl_serializerENSB_IhNS7_IhEEEEvEENS_4lessIvEENS7_INS_4pairIKS9_SF_EEEEEEZNSF_6createISM_JEEEPT_DpOT0_EUlSN_E_E5firstB8ue170006Ev, symObjAddr: 0xABD8, symBinAddr: 0x10000D8E4, symSize: 0x24 }
  - { offsetInCU: 0x3D5C2, offset: 0x3D5C2, size: 0x8, addend: 0x0, symName: __ZNSt3__122__compressed_pair_elemIPN8nlohmann16json_abi_v3_11_311ordered_mapINS_12basic_stringIcNS_11char_traitsIcEENS_9allocatorIcEEEENS2_10basic_jsonIS3_NS_6vectorES9_bxydS7_NS2_14adl_serializerENSB_IhNS7_IhEEEEvEENS_4lessIvEENS7_INS_4pairIKS9_SF_EEEEEELi0ELb0EE5__getB8ue170006Ev, symObjAddr: 0xABFC, symBinAddr: 0x10000D908, symSize: 0x14 }
  - { offsetInCU: 0x3D5E8, offset: 0x3D5E8, size: 0x8, addend: 0x0, symName: __ZNSt3__110unique_ptrIN8nlohmann16json_abi_v3_11_311ordered_mapINS_12basic_stringIcNS_11char_traitsIcEENS_9allocatorIcEEEENS2_10basic_jsonIS3_NS_6vectorES9_bxydS7_NS2_14adl_serializerENSB_IhNS7_IhEEEEvEENS_4lessIvEENS7_INS_4pairIKS9_SF_EEEEEEZNSF_6createISM_JEEEPT_DpOT0_EUlPSM_E_ED2B8ue170006Ev, symObjAddr: 0xAC10, symBinAddr: 0x10000D91C, symSize: 0x30 }
  - { offsetInCU: 0x3D612, offset: 0x3D612, size: 0x8, addend: 0x0, symName: __ZNSt3__110unique_ptrIN8nlohmann16json_abi_v3_11_311ordered_mapINS_12basic_stringIcNS_11char_traitsIcEENS_9allocatorIcEEEENS2_10basic_jsonIS3_NS_6vectorES9_bxydS7_NS2_14adl_serializerENSB_IhNS7_IhEEEEvEENS_4lessIvEENS7_INS_4pairIKS9_SF_EEEEEEZNSF_6createISM_JEEEPT_DpOT0_EUlPSM_E_E5resetB8ue170006EST_, symObjAddr: 0xAC40, symBinAddr: 0x10000D94C, symSize: 0x80 }
  - { offsetInCU: 0x3D656, offset: 0x3D656, size: 0x8, addend: 0x0, symName: __ZNSt3__117__compressed_pairIPN8nlohmann16json_abi_v3_11_311ordered_mapINS_12basic_stringIcNS_11char_traitsIcEENS_9allocatorIcEEEENS2_10basic_jsonIS3_NS_6vectorES9_bxydS7_NS2_14adl_serializerENSB_IhNS7_IhEEEEvEENS_4lessIvEENS7_INS_4pairIKS9_SF_EEEEEEZNSF_6createISM_JEEEPT_DpOT0_EUlSN_E_E6secondB8ue170006Ev, symObjAddr: 0xACC0, symBinAddr: 0x10000D9CC, symSize: 0x28 }
  - { offsetInCU: 0x3D681, offset: 0x3D681, size: 0x8, addend: 0x0, symName: __ZZN8nlohmann16json_abi_v3_11_310basic_jsonINS0_11ordered_mapENSt3__16vectorENS3_12basic_stringIcNS3_11char_traitsIcEENS3_9allocatorIcEEEEbxydS8_NS0_14adl_serializerENS4_IhNS8_IhEEEEvE6createINS2_ISA_SE_NS3_4lessIvEENS8_INS3_4pairIKSA_SE_EEEEEEJEEEPT_DpOT0_ENKUlPSM_E_clESS_, symObjAddr: 0xACE8, symBinAddr: 0x10000D9F4, symSize: 0x34 }
  - { offsetInCU: 0x3D6BA, offset: 0x3D6BA, size: 0x8, addend: 0x0, symName: __ZNSt3__122__compressed_pair_elemIZN8nlohmann16json_abi_v3_11_310basic_jsonINS2_11ordered_mapENS_6vectorENS_12basic_stringIcNS_11char_traitsIcEENS_9allocatorIcEEEEbxydS9_NS2_14adl_serializerENS5_IhNS9_IhEEEEvE6createINS4_ISB_SF_NS_4lessIvEENS9_INS_4pairIKSB_SF_EEEEEEJEEEPT_DpOT0_EUlPSN_E_Li1ELb0EE5__getB8ue170006Ev, symObjAddr: 0xAD1C, symBinAddr: 0x10000DA28, symSize: 0x14 }
  - { offsetInCU: 0x3D6E0, offset: 0x3D6E0, size: 0x8, addend: 0x0, symName: __ZNSt3__116allocator_traitsINS_9allocatorIN8nlohmann16json_abi_v3_11_311ordered_mapINS_12basic_stringIcNS_11char_traitsIcEENS1_IcEEEENS3_10basic_jsonIS4_NS_6vectorES9_bxydS1_NS3_14adl_serializerENSB_IhNS1_IhEEEEvEENS_4lessIvEENS1_INS_4pairIKS9_SF_EEEEEEEEE10deallocateB8ue170006ERSN_PSM_m, symObjAddr: 0xAD30, symBinAddr: 0x10000DA3C, symSize: 0x34 }
  - { offsetInCU: 0x3D722, offset: 0x3D722, size: 0x8, addend: 0x0, symName: __ZNSt3__19allocatorIN8nlohmann16json_abi_v3_11_311ordered_mapINS_12basic_stringIcNS_11char_traitsIcEENS0_IcEEEENS2_10basic_jsonIS3_NS_6vectorES8_bxydS0_NS2_14adl_serializerENSA_IhNS0_IhEEEEvEENS_4lessIvEENS0_INS_4pairIKS8_SE_EEEEEEE10deallocateB8ue170006EPSL_m, symObjAddr: 0xAD64, symBinAddr: 0x10000DA70, symSize: 0x40 }
  - { offsetInCU: 0x3D77E, offset: 0x3D77E, size: 0x8, addend: 0x0, symName: __ZNSt3__19allocatorINS_6vectorIN8nlohmann16json_abi_v3_11_310basic_jsonINS3_11ordered_mapES1_NS_12basic_stringIcNS_11char_traitsIcEENS0_IcEEEEbxydS0_NS3_14adl_serializerENS1_IhNS0_IhEEEEvEENS0_ISE_EEEEEC1B8ue170006Ev, symObjAddr: 0xADA4, symBinAddr: 0x10000DAB0, symSize: 0x2C }
  - { offsetInCU: 0x3D7AE, offset: 0x3D7AE, size: 0x8, addend: 0x0, symName: __ZNSt3__116allocator_traitsINS_9allocatorINS_6vectorIN8nlohmann16json_abi_v3_11_310basic_jsonINS4_11ordered_mapES2_NS_12basic_stringIcNS_11char_traitsIcEENS1_IcEEEEbxydS1_NS4_14adl_serializerENS2_IhNS1_IhEEEEvEENS1_ISF_EEEEEEE8allocateB8ue170006ERSI_m, symObjAddr: 0xADD0, symBinAddr: 0x10000DADC, symSize: 0x2C }
  - { offsetInCU: 0x3D87E, offset: 0x3D87E, size: 0x8, addend: 0x0, symName: __ZNSt3__110unique_ptrINS_6vectorIN8nlohmann16json_abi_v3_11_310basic_jsonINS3_11ordered_mapES1_NS_12basic_stringIcNS_11char_traitsIcEENS_9allocatorIcEEEEbxydS9_NS3_14adl_serializerENS1_IhNS9_IhEEEEvEENS9_ISF_EEEEZNSF_6createISH_JEEEPT_DpOT0_EUlPSH_E_EC1B8ue170006ILb1EvEESO_NS_16__dependent_typeINS_27__unique_ptr_deleter_sfinaeISP_EEXT_EE15__lval_ref_typeE, symObjAddr: 0xADFC, symBinAddr: 0x10000DB08, symSize: 0x3C }
  - { offsetInCU: 0x3D8CF, offset: 0x3D8CF, size: 0x8, addend: 0x0, symName: __ZNSt3__116allocator_traitsINS_9allocatorINS_6vectorIN8nlohmann16json_abi_v3_11_310basic_jsonINS4_11ordered_mapES2_NS_12basic_stringIcNS_11char_traitsIcEENS1_IcEEEEbxydS1_NS4_14adl_serializerENS2_IhNS1_IhEEEEvEENS1_ISF_EEEEEEE9constructB8ue170006ISH_JEvEEvRSI_PT_DpOT0_, symObjAddr: 0xAE38, symBinAddr: 0x10000DB44, symSize: 0x2C }
  - { offsetInCU: 0x3D911, offset: 0x3D911, size: 0x8, addend: 0x0, symName: __ZNKSt3__110unique_ptrINS_6vectorIN8nlohmann16json_abi_v3_11_310basic_jsonINS3_11ordered_mapES1_NS_12basic_stringIcNS_11char_traitsIcEENS_9allocatorIcEEEEbxydS9_NS3_14adl_serializerENS1_IhNS9_IhEEEEvEENS9_ISF_EEEEZNSF_6createISH_JEEEPT_DpOT0_EUlPSH_E_E3getB8ue170006Ev, symObjAddr: 0xAE64, symBinAddr: 0x10000DB70, symSize: 0x28 }
  - { offsetInCU: 0x3D937, offset: 0x3D937, size: 0x8, addend: 0x0, symName: __ZNSt3__110unique_ptrINS_6vectorIN8nlohmann16json_abi_v3_11_310basic_jsonINS3_11ordered_mapES1_NS_12basic_stringIcNS_11char_traitsIcEENS_9allocatorIcEEEEbxydS9_NS3_14adl_serializerENS1_IhNS9_IhEEEEvEENS9_ISF_EEEEZNSF_6createISH_JEEEPT_DpOT0_EUlPSH_E_E7releaseB8ue170006Ev, symObjAddr: 0xAEB8, symBinAddr: 0x10000DBC4, symSize: 0x44 }
  - { offsetInCU: 0x3D96C, offset: 0x3D96C, size: 0x8, addend: 0x0, symName: __ZNSt3__110unique_ptrINS_6vectorIN8nlohmann16json_abi_v3_11_310basic_jsonINS3_11ordered_mapES1_NS_12basic_stringIcNS_11char_traitsIcEENS_9allocatorIcEEEEbxydS9_NS3_14adl_serializerENS1_IhNS9_IhEEEEvEENS9_ISF_EEEEZNSF_6createISH_JEEEPT_DpOT0_EUlPSH_E_ED1B8ue170006Ev, symObjAddr: 0xAEFC, symBinAddr: 0x10000DC08, symSize: 0x2C }
  - { offsetInCU: 0x3D996, offset: 0x3D996, size: 0x8, addend: 0x0, symName: __ZNSt3__19allocatorINS_6vectorIN8nlohmann16json_abi_v3_11_310basic_jsonINS3_11ordered_mapES1_NS_12basic_stringIcNS_11char_traitsIcEENS0_IcEEEEbxydS0_NS3_14adl_serializerENS1_IhNS0_IhEEEEvEENS0_ISE_EEEEEC2B8ue170006Ev, symObjAddr: 0xAF28, symBinAddr: 0x10000DC34, symSize: 0x2C }
  - { offsetInCU: 0x3D9C0, offset: 0x3D9C0, size: 0x8, addend: 0x0, symName: __ZNSt3__116__non_trivial_ifILb1ENS_9allocatorINS_6vectorIN8nlohmann16json_abi_v3_11_310basic_jsonINS4_11ordered_mapES2_NS_12basic_stringIcNS_11char_traitsIcEENS1_IcEEEEbxydS1_NS4_14adl_serializerENS2_IhNS1_IhEEEEvEENS1_ISF_EEEEEEEC2B8ue170006Ev, symObjAddr: 0xAF54, symBinAddr: 0x10000DC60, symSize: 0x14 }
  - { offsetInCU: 0x3D9EA, offset: 0x3D9EA, size: 0x8, addend: 0x0, symName: __ZNSt3__19allocatorINS_6vectorIN8nlohmann16json_abi_v3_11_310basic_jsonINS3_11ordered_mapES1_NS_12basic_stringIcNS_11char_traitsIcEENS0_IcEEEEbxydS0_NS3_14adl_serializerENS1_IhNS0_IhEEEEvEENS0_ISE_EEEEE8allocateB8ue170006Em, symObjAddr: 0xAF68, symBinAddr: 0x10000DC74, symSize: 0x5C }
  - { offsetInCU: 0x3DA2A, offset: 0x3DA2A, size: 0x8, addend: 0x0, symName: __ZNSt3__116allocator_traitsINS_9allocatorINS_6vectorIN8nlohmann16json_abi_v3_11_310basic_jsonINS4_11ordered_mapES2_NS_12basic_stringIcNS_11char_traitsIcEENS1_IcEEEEbxydS1_NS4_14adl_serializerENS2_IhNS1_IhEEEEvEENS1_ISF_EEEEEEE8max_sizeB8ue170006ISI_vEEmRKSI_, symObjAddr: 0xAFC4, symBinAddr: 0x10000DCD0, symSize: 0x24 }
  - { offsetInCU: 0x3DA58, offset: 0x3DA58, size: 0x8, addend: 0x0, symName: __ZNKSt3__19allocatorINS_6vectorIN8nlohmann16json_abi_v3_11_310basic_jsonINS3_11ordered_mapES1_NS_12basic_stringIcNS_11char_traitsIcEENS0_IcEEEEbxydS0_NS3_14adl_serializerENS1_IhNS0_IhEEEEvEENS0_ISE_EEEEE8max_sizeB8ue170006Ev, symObjAddr: 0xAFE8, symBinAddr: 0x10000DCF4, symSize: 0x18 }
  - { offsetInCU: 0x3DA7E, offset: 0x3DA7E, size: 0x8, addend: 0x0, symName: __ZNSt3__110unique_ptrINS_6vectorIN8nlohmann16json_abi_v3_11_310basic_jsonINS3_11ordered_mapES1_NS_12basic_stringIcNS_11char_traitsIcEENS_9allocatorIcEEEEbxydS9_NS3_14adl_serializerENS1_IhNS9_IhEEEEvEENS9_ISF_EEEEZNSF_6createISH_JEEEPT_DpOT0_EUlPSH_E_EC2B8ue170006ILb1EvEESO_NS_16__dependent_typeINS_27__unique_ptr_deleter_sfinaeISP_EEXT_EE15__lval_ref_typeE, symObjAddr: 0xB000, symBinAddr: 0x10000DD0C, symSize: 0x48 }
  - { offsetInCU: 0x3DACF, offset: 0x3DACF, size: 0x8, addend: 0x0, symName: __ZNSt3__117__compressed_pairIPNS_6vectorIN8nlohmann16json_abi_v3_11_310basic_jsonINS3_11ordered_mapES1_NS_12basic_stringIcNS_11char_traitsIcEENS_9allocatorIcEEEEbxydS9_NS3_14adl_serializerENS1_IhNS9_IhEEEEvEENS9_ISF_EEEEZNSF_6createISH_JEEEPT_DpOT0_EUlSI_E_EC1B8ue170006IRSI_RKSP_EEOSK_OT0_, symObjAddr: 0xB048, symBinAddr: 0x10000DD54, symSize: 0x3C }
  - { offsetInCU: 0x3DB27, offset: 0x3DB27, size: 0x8, addend: 0x0, symName: __ZNSt3__117__compressed_pairIPNS_6vectorIN8nlohmann16json_abi_v3_11_310basic_jsonINS3_11ordered_mapES1_NS_12basic_stringIcNS_11char_traitsIcEENS_9allocatorIcEEEEbxydS9_NS3_14adl_serializerENS1_IhNS9_IhEEEEvEENS9_ISF_EEEEZNSF_6createISH_JEEEPT_DpOT0_EUlSI_E_EC2B8ue170006IRSI_RKSP_EEOSK_OT0_, symObjAddr: 0xB084, symBinAddr: 0x10000DD90, symSize: 0x48 }
  - { offsetInCU: 0x3DB7F, offset: 0x3DB7F, size: 0x8, addend: 0x0, symName: __ZNSt3__122__compressed_pair_elemIPNS_6vectorIN8nlohmann16json_abi_v3_11_310basic_jsonINS3_11ordered_mapES1_NS_12basic_stringIcNS_11char_traitsIcEENS_9allocatorIcEEEEbxydS9_NS3_14adl_serializerENS1_IhNS9_IhEEEEvEENS9_ISF_EEEELi0ELb0EEC2B8ue170006IRSI_vEEOT_, symObjAddr: 0xB0CC, symBinAddr: 0x10000DDD8, symSize: 0x24 }
  - { offsetInCU: 0x3DBC1, offset: 0x3DBC1, size: 0x8, addend: 0x0, symName: __ZNSt3__122__compressed_pair_elemIZN8nlohmann16json_abi_v3_11_310basic_jsonINS2_11ordered_mapENS_6vectorENS_12basic_stringIcNS_11char_traitsIcEENS_9allocatorIcEEEEbxydS9_NS2_14adl_serializerENS5_IhNS9_IhEEEEvE6createINS5_ISF_NS9_ISF_EEEEJEEEPT_DpOT0_EUlPSI_E_Li1ELb0EEC2B8ue170006IRKSP_vEEOSJ_, symObjAddr: 0xB0F0, symBinAddr: 0x10000DDFC, symSize: 0x24 }
  - { offsetInCU: 0x3DC03, offset: 0x3DC03, size: 0x8, addend: 0x0, symName: __ZNSt3__19allocatorINS_6vectorIN8nlohmann16json_abi_v3_11_310basic_jsonINS3_11ordered_mapES1_NS_12basic_stringIcNS_11char_traitsIcEENS0_IcEEEEbxydS0_NS3_14adl_serializerENS1_IhNS0_IhEEEEvEENS0_ISE_EEEEE9constructB8ue170006ISG_JEEEvPT_DpOT0_, symObjAddr: 0xB114, symBinAddr: 0x10000DE20, symSize: 0x28 }
  - { offsetInCU: 0x3DC45, offset: 0x3DC45, size: 0x8, addend: 0x0, symName: __ZNSt3__16vectorIN8nlohmann16json_abi_v3_11_310basic_jsonINS2_11ordered_mapES0_NS_12basic_stringIcNS_11char_traitsIcEENS_9allocatorIcEEEEbxydS8_NS2_14adl_serializerENS0_IhNS8_IhEEEEvEENS8_ISE_EEEC1B8ue170006Ev, symObjAddr: 0xB13C, symBinAddr: 0x10000DE48, symSize: 0x2C }
  - { offsetInCU: 0x3DC6F, offset: 0x3DC6F, size: 0x8, addend: 0x0, symName: __ZNSt3__16vectorIN8nlohmann16json_abi_v3_11_310basic_jsonINS2_11ordered_mapES0_NS_12basic_stringIcNS_11char_traitsIcEENS_9allocatorIcEEEEbxydS8_NS2_14adl_serializerENS0_IhNS8_IhEEEEvEENS8_ISE_EEEC2B8ue170006Ev, symObjAddr: 0xB168, symBinAddr: 0x10000DE74, symSize: 0x4C }
  - { offsetInCU: 0x3DC99, offset: 0x3DC99, size: 0x8, addend: 0x0, symName: __ZNSt3__117__compressed_pairIPN8nlohmann16json_abi_v3_11_310basic_jsonINS2_11ordered_mapENS_6vectorENS_12basic_stringIcNS_11char_traitsIcEENS_9allocatorIcEEEEbxydS9_NS2_14adl_serializerENS5_IhNS9_IhEEEEvEENS9_ISF_EEEC1B8ue170006IDnNS_18__default_init_tagEEEOT_OT0_, symObjAddr: 0xB1B4, symBinAddr: 0x10000DEC0, symSize: 0x3C }
  - { offsetInCU: 0x3DCF1, offset: 0x3DCF1, size: 0x8, addend: 0x0, symName: __ZNSt3__117__compressed_pairIPN8nlohmann16json_abi_v3_11_310basic_jsonINS2_11ordered_mapENS_6vectorENS_12basic_stringIcNS_11char_traitsIcEENS_9allocatorIcEEEEbxydS9_NS2_14adl_serializerENS5_IhNS9_IhEEEEvEENS9_ISF_EEEC2B8ue170006IDnNS_18__default_init_tagEEEOT_OT0_, symObjAddr: 0xB1F0, symBinAddr: 0x10000DEFC, symSize: 0x40 }
  - { offsetInCU: 0x3DD49, offset: 0x3DD49, size: 0x8, addend: 0x0, symName: __ZNSt3__122__compressed_pair_elemIPN8nlohmann16json_abi_v3_11_310basic_jsonINS2_11ordered_mapENS_6vectorENS_12basic_stringIcNS_11char_traitsIcEENS_9allocatorIcEEEEbxydS9_NS2_14adl_serializerENS5_IhNS9_IhEEEEvEELi0ELb0EEC2B8ue170006IDnvEEOT_, symObjAddr: 0xB230, symBinAddr: 0x10000DF3C, symSize: 0x1C }
  - { offsetInCU: 0x3DD8B, offset: 0x3DD8B, size: 0x8, addend: 0x0, symName: __ZNSt3__122__compressed_pair_elemINS_9allocatorIN8nlohmann16json_abi_v3_11_310basic_jsonINS3_11ordered_mapENS_6vectorENS_12basic_stringIcNS_11char_traitsIcEENS1_IcEEEEbxydS1_NS3_14adl_serializerENS6_IhNS1_IhEEEEvEEEELi1ELb1EEC2B8ue170006ENS_18__default_init_tagE, symObjAddr: 0xB24C, symBinAddr: 0x10000DF58, symSize: 0x2C }
  - { offsetInCU: 0x3DDC0, offset: 0x3DDC0, size: 0x8, addend: 0x0, symName: __ZNSt3__19allocatorIN8nlohmann16json_abi_v3_11_310basic_jsonINS2_11ordered_mapENS_6vectorENS_12basic_stringIcNS_11char_traitsIcEENS0_IcEEEEbxydS0_NS2_14adl_serializerENS5_IhNS0_IhEEEEvEEEC2B8ue170006Ev, symObjAddr: 0xB278, symBinAddr: 0x10000DF84, symSize: 0x2C }
  - { offsetInCU: 0x3DDEA, offset: 0x3DDEA, size: 0x8, addend: 0x0, symName: __ZNSt3__116__non_trivial_ifILb1ENS_9allocatorIN8nlohmann16json_abi_v3_11_310basic_jsonINS3_11ordered_mapENS_6vectorENS_12basic_stringIcNS_11char_traitsIcEENS1_IcEEEEbxydS1_NS3_14adl_serializerENS6_IhNS1_IhEEEEvEEEEEC2B8ue170006Ev, symObjAddr: 0xB2A4, symBinAddr: 0x10000DFB0, symSize: 0x14 }
  - { offsetInCU: 0x3DE14, offset: 0x3DE14, size: 0x8, addend: 0x0, symName: __ZNKSt3__117__compressed_pairIPNS_6vectorIN8nlohmann16json_abi_v3_11_310basic_jsonINS3_11ordered_mapES1_NS_12basic_stringIcNS_11char_traitsIcEENS_9allocatorIcEEEEbxydS9_NS3_14adl_serializerENS1_IhNS9_IhEEEEvEENS9_ISF_EEEEZNSF_6createISH_JEEEPT_DpOT0_EUlSI_E_E5firstB8ue170006Ev, symObjAddr: 0xB2B8, symBinAddr: 0x10000DFC4, symSize: 0x24 }
  - { offsetInCU: 0x3DE3A, offset: 0x3DE3A, size: 0x8, addend: 0x0, symName: __ZNKSt3__122__compressed_pair_elemIPNS_6vectorIN8nlohmann16json_abi_v3_11_310basic_jsonINS3_11ordered_mapES1_NS_12basic_stringIcNS_11char_traitsIcEENS_9allocatorIcEEEEbxydS9_NS3_14adl_serializerENS1_IhNS9_IhEEEEvEENS9_ISF_EEEELi0ELb0EE5__getB8ue170006Ev, symObjAddr: 0xB2DC, symBinAddr: 0x10000DFE8, symSize: 0x14 }
  - { offsetInCU: 0x3DE60, offset: 0x3DE60, size: 0x8, addend: 0x0, symName: __ZNKSt3__110unique_ptrINS_6vectorIN8nlohmann16json_abi_v3_11_310basic_jsonINS3_11ordered_mapES1_NS_12basic_stringIcNS_11char_traitsIcEENS_9allocatorIcEEEEbxydS9_NS3_14adl_serializerENS1_IhNS9_IhEEEEvEENS9_ISF_EEEEZNSF_6createISH_JEEEPT_DpOT0_EUlPSH_E_EcvbB8ue170006Ev, symObjAddr: 0xB2F0, symBinAddr: 0x10000DFFC, symSize: 0x34 }
  - { offsetInCU: 0x3DE86, offset: 0x3DE86, size: 0x8, addend: 0x0, symName: __ZNSt3__117__compressed_pairIPNS_6vectorIN8nlohmann16json_abi_v3_11_310basic_jsonINS3_11ordered_mapES1_NS_12basic_stringIcNS_11char_traitsIcEENS_9allocatorIcEEEEbxydS9_NS3_14adl_serializerENS1_IhNS9_IhEEEEvEENS9_ISF_EEEEZNSF_6createISH_JEEEPT_DpOT0_EUlSI_E_E5firstB8ue170006Ev, symObjAddr: 0xB324, symBinAddr: 0x10000E030, symSize: 0x24 }
  - { offsetInCU: 0x3DEAC, offset: 0x3DEAC, size: 0x8, addend: 0x0, symName: __ZNSt3__122__compressed_pair_elemIPNS_6vectorIN8nlohmann16json_abi_v3_11_310basic_jsonINS3_11ordered_mapES1_NS_12basic_stringIcNS_11char_traitsIcEENS_9allocatorIcEEEEbxydS9_NS3_14adl_serializerENS1_IhNS9_IhEEEEvEENS9_ISF_EEEELi0ELb0EE5__getB8ue170006Ev, symObjAddr: 0xB348, symBinAddr: 0x10000E054, symSize: 0x14 }
  - { offsetInCU: 0x3DED2, offset: 0x3DED2, size: 0x8, addend: 0x0, symName: __ZNSt3__110unique_ptrINS_6vectorIN8nlohmann16json_abi_v3_11_310basic_jsonINS3_11ordered_mapES1_NS_12basic_stringIcNS_11char_traitsIcEENS_9allocatorIcEEEEbxydS9_NS3_14adl_serializerENS1_IhNS9_IhEEEEvEENS9_ISF_EEEEZNSF_6createISH_JEEEPT_DpOT0_EUlPSH_E_ED2B8ue170006Ev, symObjAddr: 0xB35C, symBinAddr: 0x10000E068, symSize: 0x30 }
  - { offsetInCU: 0x3DEFC, offset: 0x3DEFC, size: 0x8, addend: 0x0, symName: __ZNSt3__110unique_ptrINS_6vectorIN8nlohmann16json_abi_v3_11_310basic_jsonINS3_11ordered_mapES1_NS_12basic_stringIcNS_11char_traitsIcEENS_9allocatorIcEEEEbxydS9_NS3_14adl_serializerENS1_IhNS9_IhEEEEvEENS9_ISF_EEEEZNSF_6createISH_JEEEPT_DpOT0_EUlPSH_E_E5resetB8ue170006ESO_, symObjAddr: 0xB38C, symBinAddr: 0x10000E098, symSize: 0x80 }
  - { offsetInCU: 0x3DF40, offset: 0x3DF40, size: 0x8, addend: 0x0, symName: __ZNSt3__117__compressed_pairIPNS_6vectorIN8nlohmann16json_abi_v3_11_310basic_jsonINS3_11ordered_mapES1_NS_12basic_stringIcNS_11char_traitsIcEENS_9allocatorIcEEEEbxydS9_NS3_14adl_serializerENS1_IhNS9_IhEEEEvEENS9_ISF_EEEEZNSF_6createISH_JEEEPT_DpOT0_EUlSI_E_E6secondB8ue170006Ev, symObjAddr: 0xB40C, symBinAddr: 0x10000E118, symSize: 0x28 }
  - { offsetInCU: 0x3DF6B, offset: 0x3DF6B, size: 0x8, addend: 0x0, symName: __ZZN8nlohmann16json_abi_v3_11_310basic_jsonINS0_11ordered_mapENSt3__16vectorENS3_12basic_stringIcNS3_11char_traitsIcEENS3_9allocatorIcEEEEbxydS8_NS0_14adl_serializerENS4_IhNS8_IhEEEEvE6createINS4_ISE_NS8_ISE_EEEEJEEEPT_DpOT0_ENKUlPSH_E_clESN_, symObjAddr: 0xB434, symBinAddr: 0x10000E140, symSize: 0x34 }
  - { offsetInCU: 0x3DFA4, offset: 0x3DFA4, size: 0x8, addend: 0x0, symName: __ZNSt3__122__compressed_pair_elemIZN8nlohmann16json_abi_v3_11_310basic_jsonINS2_11ordered_mapENS_6vectorENS_12basic_stringIcNS_11char_traitsIcEENS_9allocatorIcEEEEbxydS9_NS2_14adl_serializerENS5_IhNS9_IhEEEEvE6createINS5_ISF_NS9_ISF_EEEEJEEEPT_DpOT0_EUlPSI_E_Li1ELb0EE5__getB8ue170006Ev, symObjAddr: 0xB468, symBinAddr: 0x10000E174, symSize: 0x14 }
  - { offsetInCU: 0x3DFCA, offset: 0x3DFCA, size: 0x8, addend: 0x0, symName: __ZNSt3__116allocator_traitsINS_9allocatorINS_6vectorIN8nlohmann16json_abi_v3_11_310basic_jsonINS4_11ordered_mapES2_NS_12basic_stringIcNS_11char_traitsIcEENS1_IcEEEEbxydS1_NS4_14adl_serializerENS2_IhNS1_IhEEEEvEENS1_ISF_EEEEEEE10deallocateB8ue170006ERSI_PSH_m, symObjAddr: 0xB47C, symBinAddr: 0x10000E188, symSize: 0x34 }
  - { offsetInCU: 0x3E00C, offset: 0x3E00C, size: 0x8, addend: 0x0, symName: __ZNSt3__19allocatorINS_6vectorIN8nlohmann16json_abi_v3_11_310basic_jsonINS3_11ordered_mapES1_NS_12basic_stringIcNS_11char_traitsIcEENS0_IcEEEEbxydS0_NS3_14adl_serializerENS1_IhNS0_IhEEEEvEENS0_ISE_EEEEE10deallocateB8ue170006EPSG_m, symObjAddr: 0xB4B0, symBinAddr: 0x10000E1BC, symSize: 0x44 }
  - { offsetInCU: 0x3E04E, offset: 0x3E04E, size: 0x8, addend: 0x0, symName: __ZNSt3__19allocatorINS_12basic_stringIcNS_11char_traitsIcEENS0_IcEEEEEC1B8ue170006Ev, symObjAddr: 0xB4F4, symBinAddr: 0x10000E200, symSize: 0x2C }
  - { offsetInCU: 0x3E078, offset: 0x3E078, size: 0x8, addend: 0x0, symName: __ZNSt3__116allocator_traitsINS_9allocatorINS_12basic_stringIcNS_11char_traitsIcEENS1_IcEEEEEEE8allocateB8ue170006ERS7_m, symObjAddr: 0xB520, symBinAddr: 0x10000E22C, symSize: 0x2C }
  - { offsetInCU: 0x3E11B, offset: 0x3E11B, size: 0x8, addend: 0x0, symName: __ZNSt3__110unique_ptrINS_12basic_stringIcNS_11char_traitsIcEENS_9allocatorIcEEEEZN8nlohmann16json_abi_v3_11_310basic_jsonINS8_11ordered_mapENS_6vectorES6_bxydS4_NS8_14adl_serializerENSB_IhNS4_IhEEEEvE6createIS6_JRA1_KcEEEPT_DpOT0_EUlPS6_E_EC1B8ue170006ILb1EvEESP_NS_16__dependent_typeINS_27__unique_ptr_deleter_sfinaeISQ_EEXT_EE15__lval_ref_typeE, symObjAddr: 0xB54C, symBinAddr: 0x10000E258, symSize: 0x3C }
  - { offsetInCU: 0x3E16C, offset: 0x3E16C, size: 0x8, addend: 0x0, symName: __ZNSt3__116allocator_traitsINS_9allocatorINS_12basic_stringIcNS_11char_traitsIcEENS1_IcEEEEEEE9constructB8ue170006IS6_JRA1_KcEvEEvRS7_PT_DpOT0_, symObjAddr: 0xB588, symBinAddr: 0x10000E294, symSize: 0x34 }
  - { offsetInCU: 0x3E1C3, offset: 0x3E1C3, size: 0x8, addend: 0x0, symName: __ZNKSt3__110unique_ptrINS_12basic_stringIcNS_11char_traitsIcEENS_9allocatorIcEEEEZN8nlohmann16json_abi_v3_11_310basic_jsonINS8_11ordered_mapENS_6vectorES6_bxydS4_NS8_14adl_serializerENSB_IhNS4_IhEEEEvE6createIS6_JRA1_KcEEEPT_DpOT0_EUlPS6_E_E3getB8ue170006Ev, symObjAddr: 0xB5BC, symBinAddr: 0x10000E2C8, symSize: 0x28 }
  - { offsetInCU: 0x3E1E9, offset: 0x3E1E9, size: 0x8, addend: 0x0, symName: __ZNSt3__110unique_ptrINS_12basic_stringIcNS_11char_traitsIcEENS_9allocatorIcEEEEZN8nlohmann16json_abi_v3_11_310basic_jsonINS8_11ordered_mapENS_6vectorES6_bxydS4_NS8_14adl_serializerENSB_IhNS4_IhEEEEvE6createIS6_JRA1_KcEEEPT_DpOT0_EUlPS6_E_E7releaseB8ue170006Ev, symObjAddr: 0xB610, symBinAddr: 0x10000E31C, symSize: 0x44 }
  - { offsetInCU: 0x3E21E, offset: 0x3E21E, size: 0x8, addend: 0x0, symName: __ZNSt3__110unique_ptrINS_12basic_stringIcNS_11char_traitsIcEENS_9allocatorIcEEEEZN8nlohmann16json_abi_v3_11_310basic_jsonINS8_11ordered_mapENS_6vectorES6_bxydS4_NS8_14adl_serializerENSB_IhNS4_IhEEEEvE6createIS6_JRA1_KcEEEPT_DpOT0_EUlPS6_E_ED1B8ue170006Ev, symObjAddr: 0xB654, symBinAddr: 0x10000E360, symSize: 0x2C }
  - { offsetInCU: 0x3E248, offset: 0x3E248, size: 0x8, addend: 0x0, symName: __ZNSt3__19allocatorINS_12basic_stringIcNS_11char_traitsIcEENS0_IcEEEEEC2B8ue170006Ev, symObjAddr: 0xB680, symBinAddr: 0x10000E38C, symSize: 0x2C }
  - { offsetInCU: 0x3E272, offset: 0x3E272, size: 0x8, addend: 0x0, symName: __ZNSt3__116__non_trivial_ifILb1ENS_9allocatorINS_12basic_stringIcNS_11char_traitsIcEENS1_IcEEEEEEEC2B8ue170006Ev, symObjAddr: 0xB6AC, symBinAddr: 0x10000E3B8, symSize: 0x14 }
  - { offsetInCU: 0x3E29C, offset: 0x3E29C, size: 0x8, addend: 0x0, symName: __ZNSt3__19allocatorINS_12basic_stringIcNS_11char_traitsIcEENS0_IcEEEEE8allocateB8ue170006Em, symObjAddr: 0xB6C0, symBinAddr: 0x10000E3CC, symSize: 0x5C }
  - { offsetInCU: 0x3E2DC, offset: 0x3E2DC, size: 0x8, addend: 0x0, symName: __ZNSt3__116allocator_traitsINS_9allocatorINS_12basic_stringIcNS_11char_traitsIcEENS1_IcEEEEEEE8max_sizeB8ue170006IS7_vEEmRKS7_, symObjAddr: 0xB71C, symBinAddr: 0x10000E428, symSize: 0x24 }
  - { offsetInCU: 0x3E30A, offset: 0x3E30A, size: 0x8, addend: 0x0, symName: __ZNKSt3__19allocatorINS_12basic_stringIcNS_11char_traitsIcEENS0_IcEEEEE8max_sizeB8ue170006Ev, symObjAddr: 0xB740, symBinAddr: 0x10000E44C, symSize: 0x18 }
  - { offsetInCU: 0x3E330, offset: 0x3E330, size: 0x8, addend: 0x0, symName: __ZNSt3__110unique_ptrINS_12basic_stringIcNS_11char_traitsIcEENS_9allocatorIcEEEEZN8nlohmann16json_abi_v3_11_310basic_jsonINS8_11ordered_mapENS_6vectorES6_bxydS4_NS8_14adl_serializerENSB_IhNS4_IhEEEEvE6createIS6_JRA1_KcEEEPT_DpOT0_EUlPS6_E_EC2B8ue170006ILb1EvEESP_NS_16__dependent_typeINS_27__unique_ptr_deleter_sfinaeISQ_EEXT_EE15__lval_ref_typeE, symObjAddr: 0xB758, symBinAddr: 0x10000E464, symSize: 0x48 }
  - { offsetInCU: 0x3E387, offset: 0x3E387, size: 0x8, addend: 0x0, symName: __ZNSt3__117__compressed_pairIPNS_12basic_stringIcNS_11char_traitsIcEENS_9allocatorIcEEEEZN8nlohmann16json_abi_v3_11_310basic_jsonINS9_11ordered_mapENS_6vectorES6_bxydS4_NS9_14adl_serializerENSC_IhNS4_IhEEEEvE6createIS6_JRA1_KcEEEPT_DpOT0_EUlS7_E_EC1B8ue170006IRS7_RKSQ_EEOSL_OT0_, symObjAddr: 0xB7A0, symBinAddr: 0x10000E4AC, symSize: 0x3C }
  - { offsetInCU: 0x3E3DF, offset: 0x3E3DF, size: 0x8, addend: 0x0, symName: __ZNSt3__117__compressed_pairIPNS_12basic_stringIcNS_11char_traitsIcEENS_9allocatorIcEEEEZN8nlohmann16json_abi_v3_11_310basic_jsonINS9_11ordered_mapENS_6vectorES6_bxydS4_NS9_14adl_serializerENSC_IhNS4_IhEEEEvE6createIS6_JRA1_KcEEEPT_DpOT0_EUlS7_E_EC2B8ue170006IRS7_RKSQ_EEOSL_OT0_, symObjAddr: 0xB7DC, symBinAddr: 0x10000E4E8, symSize: 0x48 }
  - { offsetInCU: 0x3E437, offset: 0x3E437, size: 0x8, addend: 0x0, symName: __ZNSt3__122__compressed_pair_elemIPNS_12basic_stringIcNS_11char_traitsIcEENS_9allocatorIcEEEELi0ELb0EEC2B8ue170006IRS7_vEEOT_, symObjAddr: 0xB824, symBinAddr: 0x10000E530, symSize: 0x24 }
  - { offsetInCU: 0x3E479, offset: 0x3E479, size: 0x8, addend: 0x0, symName: __ZNSt3__122__compressed_pair_elemIZN8nlohmann16json_abi_v3_11_310basic_jsonINS2_11ordered_mapENS_6vectorENS_12basic_stringIcNS_11char_traitsIcEENS_9allocatorIcEEEEbxydS9_NS2_14adl_serializerENS5_IhNS9_IhEEEEvE6createISB_JRA1_KcEEEPT_DpOT0_EUlPSB_E_Li1ELb0EEC2B8ue170006IRKSQ_vEEOSK_, symObjAddr: 0xB848, symBinAddr: 0x10000E554, symSize: 0x24 }
  - { offsetInCU: 0x3E4BB, offset: 0x3E4BB, size: 0x8, addend: 0x0, symName: __ZNSt3__19allocatorINS_12basic_stringIcNS_11char_traitsIcEENS0_IcEEEEE9constructB8ue170006IS5_JRA1_KcEEEvPT_DpOT0_, symObjAddr: 0xB86C, symBinAddr: 0x10000E578, symSize: 0x30 }
  - { offsetInCU: 0x3E511, offset: 0x3E511, size: 0x8, addend: 0x0, symName: __ZNKSt3__117__compressed_pairIPNS_12basic_stringIcNS_11char_traitsIcEENS_9allocatorIcEEEEZN8nlohmann16json_abi_v3_11_310basic_jsonINS9_11ordered_mapENS_6vectorES6_bxydS4_NS9_14adl_serializerENSC_IhNS4_IhEEEEvE6createIS6_JRA1_KcEEEPT_DpOT0_EUlS7_E_E5firstB8ue170006Ev, symObjAddr: 0xB89C, symBinAddr: 0x10000E5A8, symSize: 0x24 }
  - { offsetInCU: 0x3E537, offset: 0x3E537, size: 0x8, addend: 0x0, symName: __ZNKSt3__122__compressed_pair_elemIPNS_12basic_stringIcNS_11char_traitsIcEENS_9allocatorIcEEEELi0ELb0EE5__getB8ue170006Ev, symObjAddr: 0xB8C0, symBinAddr: 0x10000E5CC, symSize: 0x14 }
  - { offsetInCU: 0x3E55D, offset: 0x3E55D, size: 0x8, addend: 0x0, symName: __ZNKSt3__110unique_ptrINS_12basic_stringIcNS_11char_traitsIcEENS_9allocatorIcEEEEZN8nlohmann16json_abi_v3_11_310basic_jsonINS8_11ordered_mapENS_6vectorES6_bxydS4_NS8_14adl_serializerENSB_IhNS4_IhEEEEvE6createIS6_JRA1_KcEEEPT_DpOT0_EUlPS6_E_EcvbB8ue170006Ev, symObjAddr: 0xB8D4, symBinAddr: 0x10000E5E0, symSize: 0x34 }
  - { offsetInCU: 0x3E583, offset: 0x3E583, size: 0x8, addend: 0x0, symName: __ZNSt3__117__compressed_pairIPNS_12basic_stringIcNS_11char_traitsIcEENS_9allocatorIcEEEEZN8nlohmann16json_abi_v3_11_310basic_jsonINS9_11ordered_mapENS_6vectorES6_bxydS4_NS9_14adl_serializerENSC_IhNS4_IhEEEEvE6createIS6_JRA1_KcEEEPT_DpOT0_EUlS7_E_E5firstB8ue170006Ev, symObjAddr: 0xB908, symBinAddr: 0x10000E614, symSize: 0x24 }
  - { offsetInCU: 0x3E5A9, offset: 0x3E5A9, size: 0x8, addend: 0x0, symName: __ZNSt3__122__compressed_pair_elemIPNS_12basic_stringIcNS_11char_traitsIcEENS_9allocatorIcEEEELi0ELb0EE5__getB8ue170006Ev, symObjAddr: 0xB92C, symBinAddr: 0x10000E638, symSize: 0x14 }
  - { offsetInCU: 0x3E5CF, offset: 0x3E5CF, size: 0x8, addend: 0x0, symName: __ZNSt3__110unique_ptrINS_12basic_stringIcNS_11char_traitsIcEENS_9allocatorIcEEEEZN8nlohmann16json_abi_v3_11_310basic_jsonINS8_11ordered_mapENS_6vectorES6_bxydS4_NS8_14adl_serializerENSB_IhNS4_IhEEEEvE6createIS6_JRA1_KcEEEPT_DpOT0_EUlPS6_E_ED2B8ue170006Ev, symObjAddr: 0xB940, symBinAddr: 0x10000E64C, symSize: 0x30 }
  - { offsetInCU: 0x3E5F9, offset: 0x3E5F9, size: 0x8, addend: 0x0, symName: __ZNSt3__110unique_ptrINS_12basic_stringIcNS_11char_traitsIcEENS_9allocatorIcEEEEZN8nlohmann16json_abi_v3_11_310basic_jsonINS8_11ordered_mapENS_6vectorES6_bxydS4_NS8_14adl_serializerENSB_IhNS4_IhEEEEvE6createIS6_JRA1_KcEEEPT_DpOT0_EUlPS6_E_E5resetB8ue170006ESP_, symObjAddr: 0xB970, symBinAddr: 0x10000E67C, symSize: 0x80 }
  - { offsetInCU: 0x3E63D, offset: 0x3E63D, size: 0x8, addend: 0x0, symName: __ZNSt3__117__compressed_pairIPNS_12basic_stringIcNS_11char_traitsIcEENS_9allocatorIcEEEEZN8nlohmann16json_abi_v3_11_310basic_jsonINS9_11ordered_mapENS_6vectorES6_bxydS4_NS9_14adl_serializerENSC_IhNS4_IhEEEEvE6createIS6_JRA1_KcEEEPT_DpOT0_EUlS7_E_E6secondB8ue170006Ev, symObjAddr: 0xB9F0, symBinAddr: 0x10000E6FC, symSize: 0x28 }
  - { offsetInCU: 0x3E668, offset: 0x3E668, size: 0x8, addend: 0x0, symName: __ZZN8nlohmann16json_abi_v3_11_310basic_jsonINS0_11ordered_mapENSt3__16vectorENS3_12basic_stringIcNS3_11char_traitsIcEENS3_9allocatorIcEEEEbxydS8_NS0_14adl_serializerENS4_IhNS8_IhEEEEvE6createISA_JRA1_KcEEEPT_DpOT0_ENKUlPSA_E_clESO_, symObjAddr: 0xBA18, symBinAddr: 0x10000E724, symSize: 0x34 }
  - { offsetInCU: 0x3E6A1, offset: 0x3E6A1, size: 0x8, addend: 0x0, symName: __ZNSt3__122__compressed_pair_elemIZN8nlohmann16json_abi_v3_11_310basic_jsonINS2_11ordered_mapENS_6vectorENS_12basic_stringIcNS_11char_traitsIcEENS_9allocatorIcEEEEbxydS9_NS2_14adl_serializerENS5_IhNS9_IhEEEEvE6createISB_JRA1_KcEEEPT_DpOT0_EUlPSB_E_Li1ELb0EE5__getB8ue170006Ev, symObjAddr: 0xBA4C, symBinAddr: 0x10000E758, symSize: 0x14 }
  - { offsetInCU: 0x3E6C7, offset: 0x3E6C7, size: 0x8, addend: 0x0, symName: __ZNSt3__116allocator_traitsINS_9allocatorINS_12basic_stringIcNS_11char_traitsIcEENS1_IcEEEEEEE10deallocateB8ue170006ERS7_PS6_m, symObjAddr: 0xBA60, symBinAddr: 0x10000E76C, symSize: 0x34 }
  - { offsetInCU: 0x3E709, offset: 0x3E709, size: 0x8, addend: 0x0, symName: __ZNSt3__19allocatorINS_12basic_stringIcNS_11char_traitsIcEENS0_IcEEEEE10deallocateB8ue170006EPS5_m, symObjAddr: 0xBA94, symBinAddr: 0x10000E7A0, symSize: 0x44 }
  - { offsetInCU: 0x3E76B, offset: 0x3E76B, size: 0x8, addend: 0x0, symName: __ZNSt3__19allocatorIN8nlohmann16json_abi_v3_11_327byte_container_with_subtypeINS_6vectorIhNS0_IhEEEEEEEC1B8ue170006Ev, symObjAddr: 0xBAD8, symBinAddr: 0x10000E7E4, symSize: 0x2C }
  - { offsetInCU: 0x3E79B, offset: 0x3E79B, size: 0x8, addend: 0x0, symName: __ZNSt3__116allocator_traitsINS_9allocatorIN8nlohmann16json_abi_v3_11_327byte_container_with_subtypeINS_6vectorIhNS1_IhEEEEEEEEE8allocateB8ue170006ERS9_m, symObjAddr: 0xBB04, symBinAddr: 0x10000E810, symSize: 0x2C }
  - { offsetInCU: 0x3E86B, offset: 0x3E86B, size: 0x8, addend: 0x0, symName: __ZNSt3__110unique_ptrIN8nlohmann16json_abi_v3_11_327byte_container_with_subtypeINS_6vectorIhNS_9allocatorIhEEEEEEZNS2_10basic_jsonINS2_11ordered_mapES4_NS_12basic_stringIcNS_11char_traitsIcEENS5_IcEEEEbxydS5_NS2_14adl_serializerES7_vE6createIS8_JEEEPT_DpOT0_EUlPS8_E_EC1B8ue170006ILb1EvEESO_NS_16__dependent_typeINS_27__unique_ptr_deleter_sfinaeISP_EEXT_EE15__lval_ref_typeE, symObjAddr: 0xBB30, symBinAddr: 0x10000E83C, symSize: 0x3C }
  - { offsetInCU: 0x3E8BC, offset: 0x3E8BC, size: 0x8, addend: 0x0, symName: __ZNSt3__116allocator_traitsINS_9allocatorIN8nlohmann16json_abi_v3_11_327byte_container_with_subtypeINS_6vectorIhNS1_IhEEEEEEEEE9constructB8ue170006IS8_JEvEEvRS9_PT_DpOT0_, symObjAddr: 0xBB6C, symBinAddr: 0x10000E878, symSize: 0x2C }
  - { offsetInCU: 0x3E8FE, offset: 0x3E8FE, size: 0x8, addend: 0x0, symName: __ZNKSt3__110unique_ptrIN8nlohmann16json_abi_v3_11_327byte_container_with_subtypeINS_6vectorIhNS_9allocatorIhEEEEEEZNS2_10basic_jsonINS2_11ordered_mapES4_NS_12basic_stringIcNS_11char_traitsIcEENS5_IcEEEEbxydS5_NS2_14adl_serializerES7_vE6createIS8_JEEEPT_DpOT0_EUlPS8_E_E3getB8ue170006Ev, symObjAddr: 0xBB98, symBinAddr: 0x10000E8A4, symSize: 0x28 }
  - { offsetInCU: 0x3E924, offset: 0x3E924, size: 0x8, addend: 0x0, symName: __ZNSt3__110unique_ptrIN8nlohmann16json_abi_v3_11_327byte_container_with_subtypeINS_6vectorIhNS_9allocatorIhEEEEEEZNS2_10basic_jsonINS2_11ordered_mapES4_NS_12basic_stringIcNS_11char_traitsIcEENS5_IcEEEEbxydS5_NS2_14adl_serializerES7_vE6createIS8_JEEEPT_DpOT0_EUlPS8_E_E7releaseB8ue170006Ev, symObjAddr: 0xBBEC, symBinAddr: 0x10000E8F8, symSize: 0x44 }
  - { offsetInCU: 0x3E959, offset: 0x3E959, size: 0x8, addend: 0x0, symName: __ZNSt3__110unique_ptrIN8nlohmann16json_abi_v3_11_327byte_container_with_subtypeINS_6vectorIhNS_9allocatorIhEEEEEEZNS2_10basic_jsonINS2_11ordered_mapES4_NS_12basic_stringIcNS_11char_traitsIcEENS5_IcEEEEbxydS5_NS2_14adl_serializerES7_vE6createIS8_JEEEPT_DpOT0_EUlPS8_E_ED1B8ue170006Ev, symObjAddr: 0xBC30, symBinAddr: 0x10000E93C, symSize: 0x2C }
  - { offsetInCU: 0x3E983, offset: 0x3E983, size: 0x8, addend: 0x0, symName: __ZNSt3__19allocatorIN8nlohmann16json_abi_v3_11_327byte_container_with_subtypeINS_6vectorIhNS0_IhEEEEEEEC2B8ue170006Ev, symObjAddr: 0xBC5C, symBinAddr: 0x10000E968, symSize: 0x2C }
  - { offsetInCU: 0x3E9AD, offset: 0x3E9AD, size: 0x8, addend: 0x0, symName: __ZNSt3__116__non_trivial_ifILb1ENS_9allocatorIN8nlohmann16json_abi_v3_11_327byte_container_with_subtypeINS_6vectorIhNS1_IhEEEEEEEEEC2B8ue170006Ev, symObjAddr: 0xBC88, symBinAddr: 0x10000E994, symSize: 0x14 }
  - { offsetInCU: 0x3E9D7, offset: 0x3E9D7, size: 0x8, addend: 0x0, symName: __ZNSt3__19allocatorIN8nlohmann16json_abi_v3_11_327byte_container_with_subtypeINS_6vectorIhNS0_IhEEEEEEE8allocateB8ue170006Em, symObjAddr: 0xBC9C, symBinAddr: 0x10000E9A8, symSize: 0x5C }
  - { offsetInCU: 0x3EA17, offset: 0x3EA17, size: 0x8, addend: 0x0, symName: __ZNSt3__116allocator_traitsINS_9allocatorIN8nlohmann16json_abi_v3_11_327byte_container_with_subtypeINS_6vectorIhNS1_IhEEEEEEEEE8max_sizeB8ue170006IS9_vEEmRKS9_, symObjAddr: 0xBCF8, symBinAddr: 0x10000EA04, symSize: 0x24 }
  - { offsetInCU: 0x3EA45, offset: 0x3EA45, size: 0x8, addend: 0x0, symName: __ZNKSt3__19allocatorIN8nlohmann16json_abi_v3_11_327byte_container_with_subtypeINS_6vectorIhNS0_IhEEEEEEE8max_sizeB8ue170006Ev, symObjAddr: 0xBD1C, symBinAddr: 0x10000EA28, symSize: 0x18 }
  - { offsetInCU: 0x3EA6B, offset: 0x3EA6B, size: 0x8, addend: 0x0, symName: __ZNSt3__110unique_ptrIN8nlohmann16json_abi_v3_11_327byte_container_with_subtypeINS_6vectorIhNS_9allocatorIhEEEEEEZNS2_10basic_jsonINS2_11ordered_mapES4_NS_12basic_stringIcNS_11char_traitsIcEENS5_IcEEEEbxydS5_NS2_14adl_serializerES7_vE6createIS8_JEEEPT_DpOT0_EUlPS8_E_EC2B8ue170006ILb1EvEESO_NS_16__dependent_typeINS_27__unique_ptr_deleter_sfinaeISP_EEXT_EE15__lval_ref_typeE, symObjAddr: 0xBD34, symBinAddr: 0x10000EA40, symSize: 0x48 }
  - { offsetInCU: 0x3EABC, offset: 0x3EABC, size: 0x8, addend: 0x0, symName: __ZNSt3__117__compressed_pairIPN8nlohmann16json_abi_v3_11_327byte_container_with_subtypeINS_6vectorIhNS_9allocatorIhEEEEEEZNS2_10basic_jsonINS2_11ordered_mapES4_NS_12basic_stringIcNS_11char_traitsIcEENS5_IcEEEEbxydS5_NS2_14adl_serializerES7_vE6createIS8_JEEEPT_DpOT0_EUlS9_E_EC1B8ue170006IRS9_RKSP_EEOSK_OT0_, symObjAddr: 0xBD7C, symBinAddr: 0x10000EA88, symSize: 0x3C }
  - { offsetInCU: 0x3EB14, offset: 0x3EB14, size: 0x8, addend: 0x0, symName: __ZNSt3__117__compressed_pairIPN8nlohmann16json_abi_v3_11_327byte_container_with_subtypeINS_6vectorIhNS_9allocatorIhEEEEEEZNS2_10basic_jsonINS2_11ordered_mapES4_NS_12basic_stringIcNS_11char_traitsIcEENS5_IcEEEEbxydS5_NS2_14adl_serializerES7_vE6createIS8_JEEEPT_DpOT0_EUlS9_E_EC2B8ue170006IRS9_RKSP_EEOSK_OT0_, symObjAddr: 0xBDB8, symBinAddr: 0x10000EAC4, symSize: 0x48 }
  - { offsetInCU: 0x3EB6C, offset: 0x3EB6C, size: 0x8, addend: 0x0, symName: __ZNSt3__122__compressed_pair_elemIPN8nlohmann16json_abi_v3_11_327byte_container_with_subtypeINS_6vectorIhNS_9allocatorIhEEEEEELi0ELb0EEC2B8ue170006IRS9_vEEOT_, symObjAddr: 0xBE00, symBinAddr: 0x10000EB0C, symSize: 0x24 }
  - { offsetInCU: 0x3EBAE, offset: 0x3EBAE, size: 0x8, addend: 0x0, symName: __ZNSt3__122__compressed_pair_elemIZN8nlohmann16json_abi_v3_11_310basic_jsonINS2_11ordered_mapENS_6vectorENS_12basic_stringIcNS_11char_traitsIcEENS_9allocatorIcEEEEbxydS9_NS2_14adl_serializerENS5_IhNS9_IhEEEEvE6createINS2_27byte_container_with_subtypeISE_EEJEEEPT_DpOT0_EUlPSI_E_Li1ELb0EEC2B8ue170006IRKSP_vEEOSJ_, symObjAddr: 0xBE24, symBinAddr: 0x10000EB30, symSize: 0x24 }
  - { offsetInCU: 0x3EBF0, offset: 0x3EBF0, size: 0x8, addend: 0x0, symName: __ZNSt3__19allocatorIN8nlohmann16json_abi_v3_11_327byte_container_with_subtypeINS_6vectorIhNS0_IhEEEEEEE9constructB8ue170006IS7_JEEEvPT_DpOT0_, symObjAddr: 0xBE48, symBinAddr: 0x10000EB54, symSize: 0x28 }
  - { offsetInCU: 0x3EC32, offset: 0x3EC32, size: 0x8, addend: 0x0, symName: __ZN8nlohmann16json_abi_v3_11_327byte_container_with_subtypeINSt3__16vectorIhNS2_9allocatorIhEEEEEC1Ev, symObjAddr: 0xBE70, symBinAddr: 0x10000EB7C, symSize: 0x2C }
  - { offsetInCU: 0x3EC5C, offset: 0x3EC5C, size: 0x8, addend: 0x0, symName: __ZN8nlohmann16json_abi_v3_11_327byte_container_with_subtypeINSt3__16vectorIhNS2_9allocatorIhEEEEEC2Ev, symObjAddr: 0xBE9C, symBinAddr: 0x10000EBA8, symSize: 0x34 }
  - { offsetInCU: 0x3EC86, offset: 0x3EC86, size: 0x8, addend: 0x0, symName: __ZNSt3__16vectorIhNS_9allocatorIhEEEC2B8ue170006Ev, symObjAddr: 0xBED0, symBinAddr: 0x10000EBDC, symSize: 0x4C }
  - { offsetInCU: 0x3ECB0, offset: 0x3ECB0, size: 0x8, addend: 0x0, symName: __ZNSt3__117__compressed_pairIPhNS_9allocatorIhEEEC1B8ue170006IDnNS_18__default_init_tagEEEOT_OT0_, symObjAddr: 0xBF1C, symBinAddr: 0x10000EC28, symSize: 0x3C }
  - { offsetInCU: 0x3ED08, offset: 0x3ED08, size: 0x8, addend: 0x0, symName: __ZNSt3__117__compressed_pairIPhNS_9allocatorIhEEEC2B8ue170006IDnNS_18__default_init_tagEEEOT_OT0_, symObjAddr: 0xBF58, symBinAddr: 0x10000EC64, symSize: 0x40 }
  - { offsetInCU: 0x3ED60, offset: 0x3ED60, size: 0x8, addend: 0x0, symName: __ZNSt3__122__compressed_pair_elemIPhLi0ELb0EEC2B8ue170006IDnvEEOT_, symObjAddr: 0xBF98, symBinAddr: 0x10000ECA4, symSize: 0x1C }
  - { offsetInCU: 0x3EDA2, offset: 0x3EDA2, size: 0x8, addend: 0x0, symName: __ZNSt3__122__compressed_pair_elemINS_9allocatorIhEELi1ELb1EEC2B8ue170006ENS_18__default_init_tagE, symObjAddr: 0xBFB4, symBinAddr: 0x10000ECC0, symSize: 0x2C }
  - { offsetInCU: 0x3EDD7, offset: 0x3EDD7, size: 0x8, addend: 0x0, symName: __ZNSt3__19allocatorIhEC2B8ue170006Ev, symObjAddr: 0xBFE0, symBinAddr: 0x10000ECEC, symSize: 0x2C }
  - { offsetInCU: 0x3EE01, offset: 0x3EE01, size: 0x8, addend: 0x0, symName: __ZNSt3__116__non_trivial_ifILb1ENS_9allocatorIhEEEC2B8ue170006Ev, symObjAddr: 0xC00C, symBinAddr: 0x10000ED18, symSize: 0x14 }
  - { offsetInCU: 0x3EE2B, offset: 0x3EE2B, size: 0x8, addend: 0x0, symName: __ZNKSt3__117__compressed_pairIPN8nlohmann16json_abi_v3_11_327byte_container_with_subtypeINS_6vectorIhNS_9allocatorIhEEEEEEZNS2_10basic_jsonINS2_11ordered_mapES4_NS_12basic_stringIcNS_11char_traitsIcEENS5_IcEEEEbxydS5_NS2_14adl_serializerES7_vE6createIS8_JEEEPT_DpOT0_EUlS9_E_E5firstB8ue170006Ev, symObjAddr: 0xC020, symBinAddr: 0x10000ED2C, symSize: 0x24 }
  - { offsetInCU: 0x3EE51, offset: 0x3EE51, size: 0x8, addend: 0x0, symName: __ZNKSt3__122__compressed_pair_elemIPN8nlohmann16json_abi_v3_11_327byte_container_with_subtypeINS_6vectorIhNS_9allocatorIhEEEEEELi0ELb0EE5__getB8ue170006Ev, symObjAddr: 0xC044, symBinAddr: 0x10000ED50, symSize: 0x14 }
  - { offsetInCU: 0x3EE77, offset: 0x3EE77, size: 0x8, addend: 0x0, symName: __ZNKSt3__110unique_ptrIN8nlohmann16json_abi_v3_11_327byte_container_with_subtypeINS_6vectorIhNS_9allocatorIhEEEEEEZNS2_10basic_jsonINS2_11ordered_mapES4_NS_12basic_stringIcNS_11char_traitsIcEENS5_IcEEEEbxydS5_NS2_14adl_serializerES7_vE6createIS8_JEEEPT_DpOT0_EUlPS8_E_EcvbB8ue170006Ev, symObjAddr: 0xC058, symBinAddr: 0x10000ED64, symSize: 0x34 }
  - { offsetInCU: 0x3EE9D, offset: 0x3EE9D, size: 0x8, addend: 0x0, symName: __ZNSt3__117__compressed_pairIPN8nlohmann16json_abi_v3_11_327byte_container_with_subtypeINS_6vectorIhNS_9allocatorIhEEEEEEZNS2_10basic_jsonINS2_11ordered_mapES4_NS_12basic_stringIcNS_11char_traitsIcEENS5_IcEEEEbxydS5_NS2_14adl_serializerES7_vE6createIS8_JEEEPT_DpOT0_EUlS9_E_E5firstB8ue170006Ev, symObjAddr: 0xC08C, symBinAddr: 0x10000ED98, symSize: 0x24 }
  - { offsetInCU: 0x3EEC3, offset: 0x3EEC3, size: 0x8, addend: 0x0, symName: __ZNSt3__122__compressed_pair_elemIPN8nlohmann16json_abi_v3_11_327byte_container_with_subtypeINS_6vectorIhNS_9allocatorIhEEEEEELi0ELb0EE5__getB8ue170006Ev, symObjAddr: 0xC0B0, symBinAddr: 0x10000EDBC, symSize: 0x14 }
  - { offsetInCU: 0x3EEE9, offset: 0x3EEE9, size: 0x8, addend: 0x0, symName: __ZNSt3__110unique_ptrIN8nlohmann16json_abi_v3_11_327byte_container_with_subtypeINS_6vectorIhNS_9allocatorIhEEEEEEZNS2_10basic_jsonINS2_11ordered_mapES4_NS_12basic_stringIcNS_11char_traitsIcEENS5_IcEEEEbxydS5_NS2_14adl_serializerES7_vE6createIS8_JEEEPT_DpOT0_EUlPS8_E_ED2B8ue170006Ev, symObjAddr: 0xC0C4, symBinAddr: 0x10000EDD0, symSize: 0x30 }
  - { offsetInCU: 0x3EF13, offset: 0x3EF13, size: 0x8, addend: 0x0, symName: __ZNSt3__110unique_ptrIN8nlohmann16json_abi_v3_11_327byte_container_with_subtypeINS_6vectorIhNS_9allocatorIhEEEEEEZNS2_10basic_jsonINS2_11ordered_mapES4_NS_12basic_stringIcNS_11char_traitsIcEENS5_IcEEEEbxydS5_NS2_14adl_serializerES7_vE6createIS8_JEEEPT_DpOT0_EUlPS8_E_E5resetB8ue170006ESO_, symObjAddr: 0xC0F4, symBinAddr: 0x10000EE00, symSize: 0x80 }
  - { offsetInCU: 0x3EF57, offset: 0x3EF57, size: 0x8, addend: 0x0, symName: __ZNSt3__117__compressed_pairIPN8nlohmann16json_abi_v3_11_327byte_container_with_subtypeINS_6vectorIhNS_9allocatorIhEEEEEEZNS2_10basic_jsonINS2_11ordered_mapES4_NS_12basic_stringIcNS_11char_traitsIcEENS5_IcEEEEbxydS5_NS2_14adl_serializerES7_vE6createIS8_JEEEPT_DpOT0_EUlS9_E_E6secondB8ue170006Ev, symObjAddr: 0xC174, symBinAddr: 0x10000EE80, symSize: 0x28 }
  - { offsetInCU: 0x3EF82, offset: 0x3EF82, size: 0x8, addend: 0x0, symName: __ZZN8nlohmann16json_abi_v3_11_310basic_jsonINS0_11ordered_mapENSt3__16vectorENS3_12basic_stringIcNS3_11char_traitsIcEENS3_9allocatorIcEEEEbxydS8_NS0_14adl_serializerENS4_IhNS8_IhEEEEvE6createINS0_27byte_container_with_subtypeISD_EEJEEEPT_DpOT0_ENKUlPSH_E_clESN_, symObjAddr: 0xC19C, symBinAddr: 0x10000EEA8, symSize: 0x34 }
  - { offsetInCU: 0x3EFBB, offset: 0x3EFBB, size: 0x8, addend: 0x0, symName: __ZNSt3__122__compressed_pair_elemIZN8nlohmann16json_abi_v3_11_310basic_jsonINS2_11ordered_mapENS_6vectorENS_12basic_stringIcNS_11char_traitsIcEENS_9allocatorIcEEEEbxydS9_NS2_14adl_serializerENS5_IhNS9_IhEEEEvE6createINS2_27byte_container_with_subtypeISE_EEJEEEPT_DpOT0_EUlPSI_E_Li1ELb0EE5__getB8ue170006Ev, symObjAddr: 0xC1D0, symBinAddr: 0x10000EEDC, symSize: 0x14 }
  - { offsetInCU: 0x3EFE1, offset: 0x3EFE1, size: 0x8, addend: 0x0, symName: __ZNSt3__116allocator_traitsINS_9allocatorIN8nlohmann16json_abi_v3_11_327byte_container_with_subtypeINS_6vectorIhNS1_IhEEEEEEEEE10deallocateB8ue170006ERS9_PS8_m, symObjAddr: 0xC1E4, symBinAddr: 0x10000EEF0, symSize: 0x34 }
  - { offsetInCU: 0x3F023, offset: 0x3F023, size: 0x8, addend: 0x0, symName: __ZNSt3__19allocatorIN8nlohmann16json_abi_v3_11_327byte_container_with_subtypeINS_6vectorIhNS0_IhEEEEEEE10deallocateB8ue170006EPS7_m, symObjAddr: 0xC218, symBinAddr: 0x10000EF24, symSize: 0x44 }
  - { offsetInCU: 0x3F065, offset: 0x3F065, size: 0x8, addend: 0x0, symName: __ZN8nlohmann16json_abi_v3_11_36detail9exception4nameERKNSt3__112basic_stringIcNS3_11char_traitsIcEENS3_9allocatorIcEEEEi, symObjAddr: 0xC334, symBinAddr: 0x10000F040, symSize: 0xA0 }
  - { offsetInCU: 0x3F098, offset: 0x3F098, size: 0x8, addend: 0x0, symName: __ZN8nlohmann16json_abi_v3_11_36detail9exception11diagnosticsEDn, symObjAddr: 0xC3D4, symBinAddr: 0x10000F0E0, symSize: 0x3C }
  - { offsetInCU: 0x3F0B9, offset: 0x3F0B9, size: 0x8, addend: 0x0, symName: __ZNKSt3__112basic_stringIcNS_11char_traitsIcEENS_9allocatorIcEEE5c_strB8ue170006Ev, symObjAddr: 0xC410, symBinAddr: 0x10000F11C, symSize: 0x24 }
  - { offsetInCU: 0x3F0DF, offset: 0x3F0DF, size: 0x8, addend: 0x0, symName: __ZN8nlohmann16json_abi_v3_11_36detail11other_errorC1EiPKc, symObjAddr: 0xC434, symBinAddr: 0x10000F140, symSize: 0x3C }
  - { offsetInCU: 0x3F127, offset: 0x3F127, size: 0x8, addend: 0x0, symName: __ZNSt3__112basic_stringIcNS_11char_traitsIcEENS_9allocatorIcEEEC1B8ue170006Ev, symObjAddr: 0xC470, symBinAddr: 0x10000F17C, symSize: 0x2C }
  - { offsetInCU: 0x3F151, offset: 0x3F151, size: 0x8, addend: 0x0, symName: __ZNSt3__112basic_stringIcNS_11char_traitsIcEENS_9allocatorIcEEEC2B8ue170006Ev, symObjAddr: 0xC528, symBinAddr: 0x10000F234, symSize: 0x48 }
  - { offsetInCU: 0x3F17B, offset: 0x3F17B, size: 0x8, addend: 0x0, symName: __ZNSt3__112basic_stringIcNS_11char_traitsIcEENS_9allocatorIcEEE14__default_initB8ue170006Ev, symObjAddr: 0xC570, symBinAddr: 0x10000F27C, symSize: 0x40 }
  - { offsetInCU: 0x3F1A1, offset: 0x3F1A1, size: 0x8, addend: 0x0, symName: __ZNSt3__112basic_stringIcNS_11char_traitsIcEENS_9allocatorIcEEE6appendB8ue170006ERKS5_, symObjAddr: 0xC630, symBinAddr: 0x10000F33C, symSize: 0x4C }
  - { offsetInCU: 0x3F1D6, offset: 0x3F1D6, size: 0x8, addend: 0x0, symName: __ZNSt3__112basic_stringIcNS_11char_traitsIcEENS_9allocatorIcEEEpLB8ue170006Ec, symObjAddr: 0xCA2C, symBinAddr: 0x10000F738, symSize: 0x34 }
  - { offsetInCU: 0x3F20B, offset: 0x3F20B, size: 0x8, addend: 0x0, symName: __ZN8nlohmann16json_abi_v3_11_36detail11other_errorC2EiPKc, symObjAddr: 0xCAD0, symBinAddr: 0x10000F7DC, symSize: 0x54 }
  - { offsetInCU: 0x3F253, offset: 0x3F253, size: 0x8, addend: 0x0, symName: __ZN8nlohmann16json_abi_v3_11_36detail9exceptionC2EiPKc, symObjAddr: 0xCB24, symBinAddr: 0x10000F830, symSize: 0x8C }
  - { offsetInCU: 0x3F29B, offset: 0x3F29B, size: 0x8, addend: 0x0, symName: __ZN8nlohmann16json_abi_v3_11_36detail11other_errorD0Ev, symObjAddr: 0xCBB0, symBinAddr: 0x10000F8BC, symSize: 0x30 }
  - { offsetInCU: 0x3F2C8, offset: 0x3F2C8, size: 0x8, addend: 0x0, symName: __ZNK8nlohmann16json_abi_v3_11_36detail9exception4whatEv, symObjAddr: 0xCBE0, symBinAddr: 0x10000F8EC, symSize: 0x28 }
  - { offsetInCU: 0x3F2EE, offset: 0x3F2EE, size: 0x8, addend: 0x0, symName: __ZNSt9exceptionC2B8ue170006Ev, symObjAddr: 0xCC08, symBinAddr: 0x10000F914, symSize: 0x24 }
  - { offsetInCU: 0x3F318, offset: 0x3F318, size: 0x8, addend: 0x0, symName: __ZN8nlohmann16json_abi_v3_11_36detail9exceptionD1Ev, symObjAddr: 0xCC2C, symBinAddr: 0x10000F938, symSize: 0x2C }
  - { offsetInCU: 0x3F345, offset: 0x3F345, size: 0x8, addend: 0x0, symName: __ZN8nlohmann16json_abi_v3_11_36detail9exceptionD0Ev, symObjAddr: 0xCC58, symBinAddr: 0x10000F964, symSize: 0x30 }
  - { offsetInCU: 0x3F372, offset: 0x3F372, size: 0x8, addend: 0x0, symName: __ZN8nlohmann16json_abi_v3_11_36detail9exceptionD2Ev, symObjAddr: 0xCC88, symBinAddr: 0x10000F994, symSize: 0x48 }
  - { offsetInCU: 0x3F39F, offset: 0x3F39F, size: 0x8, addend: 0x0, symName: __ZNSt3__112basic_stringIcNS_11char_traitsIcEENS_9allocatorIcEEEC2B8ue170006ILi0EEEPKc, symObjAddr: 0xCCD0, symBinAddr: 0x10000F9DC, symSize: 0x58 }
  - { offsetInCU: 0x3F3DE, offset: 0x3F3DE, size: 0x8, addend: 0x0, symName: __ZN8nlohmann16json_abi_v3_11_36detail11other_errorD2Ev, symObjAddr: 0xCD28, symBinAddr: 0x10000FA34, symSize: 0x2C }
  - { offsetInCU: 0x3F40B, offset: 0x3F40B, size: 0x8, addend: 0x0, symName: __ZN8nlohmann16json_abi_v3_11_310basic_jsonINS0_11ordered_mapENSt3__16vectorENS3_12basic_stringIcNS3_11char_traitsIcEENS3_9allocatorIcEEEEbxydS8_NS0_14adl_serializerENS4_IhNS8_IhEEEEvED2Ev, symObjAddr: 0xCD54, symBinAddr: 0x10000FA60, symSize: 0x3C }
  - { offsetInCU: 0x3F435, offset: 0x3F435, size: 0x8, addend: 0x0, symName: __ZN8nlohmann16json_abi_v3_11_310basic_jsonINS0_11ordered_mapENSt3__16vectorENS3_12basic_stringIcNS3_11char_traitsIcEENS3_9allocatorIcEEEEbxydS8_NS0_14adl_serializerENS4_IhNS8_IhEEEEvE4dataD1Ev, symObjAddr: 0xCD90, symBinAddr: 0x10000FA9C, symSize: 0x2C }
  - { offsetInCU: 0x3F45F, offset: 0x3F45F, size: 0x8, addend: 0x0, symName: __ZN8nlohmann16json_abi_v3_11_310basic_jsonINS0_11ordered_mapENSt3__16vectorENS3_12basic_stringIcNS3_11char_traitsIcEENS3_9allocatorIcEEEEbxydS8_NS0_14adl_serializerENS4_IhNS8_IhEEEEvE4dataD2Ev, symObjAddr: 0xCDBC, symBinAddr: 0x10000FAC8, symSize: 0x3C }
  - { offsetInCU: 0x3F489, offset: 0x3F489, size: 0x8, addend: 0x0, symName: __ZN8nlohmann16json_abi_v3_11_310basic_jsonINS0_11ordered_mapENSt3__16vectorENS3_12basic_stringIcNS3_11char_traitsIcEENS3_9allocatorIcEEEEbxydS8_NS0_14adl_serializerENS4_IhNS8_IhEEEEvE10json_value7destroyENS0_6detail7value_tE, symObjAddr: 0xCDF8, symBinAddr: 0x10000FB04, symSize: 0x4E0 }
  - { offsetInCU: 0x3F60D, offset: 0x3F60D, size: 0x8, addend: 0x0, symName: __ZNSt3__16vectorIN8nlohmann16json_abi_v3_11_310basic_jsonINS2_11ordered_mapES0_NS_12basic_stringIcNS_11char_traitsIcEENS_9allocatorIcEEEEbxydS8_NS2_14adl_serializerENS0_IhNS8_IhEEEEvEENS8_ISE_EEE7reserveEm, symObjAddr: 0xD300, symBinAddr: 0x10001000C, symSize: 0xE8 }
  - { offsetInCU: 0x3F669, offset: 0x3F669, size: 0x8, addend: 0x0, symName: __ZNKSt3__16vectorIN8nlohmann16json_abi_v3_11_310basic_jsonINS2_11ordered_mapES0_NS_12basic_stringIcNS_11char_traitsIcEENS_9allocatorIcEEEEbxydS8_NS2_14adl_serializerENS0_IhNS8_IhEEEEvEENS8_ISE_EEE4sizeB8ue170006Ev, symObjAddr: 0xD3E8, symBinAddr: 0x1000100F4, symSize: 0x28 }
  - { offsetInCU: 0x3F68F, offset: 0x3F68F, size: 0x8, addend: 0x0, symName: __ZNSt3__16vectorIN8nlohmann16json_abi_v3_11_310basic_jsonINS2_11ordered_mapES0_NS_12basic_stringIcNS_11char_traitsIcEENS_9allocatorIcEEEEbxydS8_NS2_14adl_serializerENS0_IhNS8_IhEEEEvEENS8_ISE_EEE5beginB8ue170006Ev, symObjAddr: 0xD470, symBinAddr: 0x10001017C, symSize: 0x30 }
  - { offsetInCU: 0x3F6B7, offset: 0x3F6B7, size: 0x8, addend: 0x0, symName: __ZNSt3__16vectorIN8nlohmann16json_abi_v3_11_310basic_jsonINS2_11ordered_mapES0_NS_12basic_stringIcNS_11char_traitsIcEENS_9allocatorIcEEEEbxydS8_NS2_14adl_serializerENS0_IhNS8_IhEEEEvEENS8_ISE_EEE3endB8ue170006Ev, symObjAddr: 0xD4A0, symBinAddr: 0x1000101AC, symSize: 0x30 }
  - { offsetInCU: 0x3F6DF, offset: 0x3F6DF, size: 0x8, addend: 0x0, symName: __ZNKSt3__16vectorINS_4pairIKNS_12basic_stringIcNS_11char_traitsIcEENS_9allocatorIcEEEEN8nlohmann16json_abi_v3_11_310basic_jsonINSA_11ordered_mapES0_S7_bxydS5_NSA_14adl_serializerENS0_IhNS5_IhEEEEvEEEENS5_ISH_EEE4sizeB8ue170006Ev, symObjAddr: 0xD4FC, symBinAddr: 0x100010208, symSize: 0x28 }
  - { offsetInCU: 0x3F705, offset: 0x3F705, size: 0x8, addend: 0x0, symName: __ZNSt3__16vectorINS_4pairIKNS_12basic_stringIcNS_11char_traitsIcEENS_9allocatorIcEEEEN8nlohmann16json_abi_v3_11_310basic_jsonINSA_11ordered_mapES0_S7_bxydS5_NSA_14adl_serializerENS0_IhNS5_IhEEEEvEEEENS5_ISH_EEE5beginB8ue170006Ev, symObjAddr: 0xD524, symBinAddr: 0x100010230, symSize: 0x30 }
  - { offsetInCU: 0x3F72D, offset: 0x3F72D, size: 0x8, addend: 0x0, symName: __ZNSt3__16vectorINS_4pairIKNS_12basic_stringIcNS_11char_traitsIcEENS_9allocatorIcEEEEN8nlohmann16json_abi_v3_11_310basic_jsonINSA_11ordered_mapES0_S7_bxydS5_NSA_14adl_serializerENS0_IhNS5_IhEEEEvEEEENS5_ISH_EEE3endB8ue170006Ev, symObjAddr: 0xD554, symBinAddr: 0x100010260, symSize: 0x30 }
  - { offsetInCU: 0x3F755, offset: 0x3F755, size: 0x8, addend: 0x0, symName: __ZNKSt3__111__wrap_iterIPNS_4pairIKNS_12basic_stringIcNS_11char_traitsIcEENS_9allocatorIcEEEEN8nlohmann16json_abi_v3_11_310basic_jsonINSA_11ordered_mapENS_6vectorES7_bxydS5_NSA_14adl_serializerENSD_IhNS5_IhEEEEvEEEEEdeB8ue170006Ev, symObjAddr: 0xD5B8, symBinAddr: 0x1000102C4, symSize: 0x18 }
  - { offsetInCU: 0x3F77B, offset: 0x3F77B, size: 0x8, addend: 0x0, symName: __ZNSt3__16vectorIN8nlohmann16json_abi_v3_11_310basic_jsonINS2_11ordered_mapES0_NS_12basic_stringIcNS_11char_traitsIcEENS_9allocatorIcEEEEbxydS8_NS2_14adl_serializerENS0_IhNS8_IhEEEEvEENS8_ISE_EEE9push_backB8ue170006EOSE_, symObjAddr: 0xD5D0, symBinAddr: 0x1000102DC, symSize: 0x6C }
  - { offsetInCU: 0x3F7B2, offset: 0x3F7B2, size: 0x8, addend: 0x0, symName: __ZNSt3__111__wrap_iterIPNS_4pairIKNS_12basic_stringIcNS_11char_traitsIcEENS_9allocatorIcEEEEN8nlohmann16json_abi_v3_11_310basic_jsonINSA_11ordered_mapENS_6vectorES7_bxydS5_NSA_14adl_serializerENSD_IhNS5_IhEEEEvEEEEEppB8ue170006Ev, symObjAddr: 0xD63C, symBinAddr: 0x100010348, symSize: 0x20 }
  - { offsetInCU: 0x3F7D8, offset: 0x3F7D8, size: 0x8, addend: 0x0, symName: __ZNKSt3__16vectorIN8nlohmann16json_abi_v3_11_310basic_jsonINS2_11ordered_mapES0_NS_12basic_stringIcNS_11char_traitsIcEENS_9allocatorIcEEEEbxydS8_NS2_14adl_serializerENS0_IhNS8_IhEEEEvEENS8_ISE_EEE5emptyB8ue170006Ev, symObjAddr: 0xD65C, symBinAddr: 0x100010368, symSize: 0x28 }
  - { offsetInCU: 0x3F7FE, offset: 0x3F7FE, size: 0x8, addend: 0x0, symName: __ZNSt3__16vectorIN8nlohmann16json_abi_v3_11_310basic_jsonINS2_11ordered_mapES0_NS_12basic_stringIcNS_11char_traitsIcEENS_9allocatorIcEEEEbxydS8_NS2_14adl_serializerENS0_IhNS8_IhEEEEvEENS8_ISE_EEE4backB8ue170006Ev, symObjAddr: 0xD684, symBinAddr: 0x100010390, symSize: 0x1C }
  - { offsetInCU: 0x3F824, offset: 0x3F824, size: 0x8, addend: 0x0, symName: __ZN8nlohmann16json_abi_v3_11_310basic_jsonINS0_11ordered_mapENSt3__16vectorENS3_12basic_stringIcNS3_11char_traitsIcEENS3_9allocatorIcEEEEbxydS8_NS0_14adl_serializerENS4_IhNS8_IhEEEEvEC1EOSE_, symObjAddr: 0xD6A0, symBinAddr: 0x1000103AC, symSize: 0x34 }
  - { offsetInCU: 0x3F85D, offset: 0x3F85D, size: 0x8, addend: 0x0, symName: __ZNSt3__16vectorIN8nlohmann16json_abi_v3_11_310basic_jsonINS2_11ordered_mapES0_NS_12basic_stringIcNS_11char_traitsIcEENS_9allocatorIcEEEEbxydS8_NS2_14adl_serializerENS0_IhNS8_IhEEEEvEENS8_ISE_EEE8pop_backEv, symObjAddr: 0xD6D4, symBinAddr: 0x1000103E0, symSize: 0x2C }
  - { offsetInCU: 0x3F885, offset: 0x3F885, size: 0x8, addend: 0x0, symName: __ZNK8nlohmann16json_abi_v3_11_310basic_jsonINS0_11ordered_mapENSt3__16vectorENS3_12basic_stringIcNS3_11char_traitsIcEENS3_9allocatorIcEEEEbxydS8_NS0_14adl_serializerENS4_IhNS8_IhEEEEvE8is_arrayEv, symObjAddr: 0xD700, symBinAddr: 0x10001040C, symSize: 0x24 }
  - { offsetInCU: 0x3F8AB, offset: 0x3F8AB, size: 0x8, addend: 0x0, symName: __ZNSt3__16vectorIN8nlohmann16json_abi_v3_11_310basic_jsonINS2_11ordered_mapES0_NS_12basic_stringIcNS_11char_traitsIcEENS_9allocatorIcEEEEbxydS8_NS2_14adl_serializerENS0_IhNS8_IhEEEEvEENS8_ISE_EEE5clearB8ue170006Ev, symObjAddr: 0xD724, symBinAddr: 0x100010430, symSize: 0x44 }
  - { offsetInCU: 0x3F8E0, offset: 0x3F8E0, size: 0x8, addend: 0x0, symName: __ZNK8nlohmann16json_abi_v3_11_310basic_jsonINS0_11ordered_mapENSt3__16vectorENS3_12basic_stringIcNS3_11char_traitsIcEENS3_9allocatorIcEEEEbxydS8_NS0_14adl_serializerENS4_IhNS8_IhEEEEvE9is_objectEv, symObjAddr: 0xD768, symBinAddr: 0x100010474, symSize: 0x24 }
  - { offsetInCU: 0x3F906, offset: 0x3F906, size: 0x8, addend: 0x0, symName: __ZNSt3__16vectorINS_4pairIKNS_12basic_stringIcNS_11char_traitsIcEENS_9allocatorIcEEEEN8nlohmann16json_abi_v3_11_310basic_jsonINSA_11ordered_mapES0_S7_bxydS5_NSA_14adl_serializerENS0_IhNS5_IhEEEEvEEEENS5_ISH_EEE5clearB8ue170006Ev, symObjAddr: 0xD78C, symBinAddr: 0x100010498, symSize: 0x44 }
  - { offsetInCU: 0x3F93B, offset: 0x3F93B, size: 0x8, addend: 0x0, symName: __ZNSt3__16vectorIN8nlohmann16json_abi_v3_11_310basic_jsonINS2_11ordered_mapES0_NS_12basic_stringIcNS_11char_traitsIcEENS_9allocatorIcEEEEbxydS8_NS2_14adl_serializerENS0_IhNS8_IhEEEEvEENS8_ISE_EEED1B8ue170006Ev, symObjAddr: 0xD7D0, symBinAddr: 0x1000104DC, symSize: 0x2C }
  - { offsetInCU: 0x3F965, offset: 0x3F965, size: 0x8, addend: 0x0, symName: __ZNSt3__116allocator_traitsINS_9allocatorIN8nlohmann16json_abi_v3_11_311ordered_mapINS_12basic_stringIcNS_11char_traitsIcEENS1_IcEEEENS3_10basic_jsonIS4_NS_6vectorES9_bxydS1_NS3_14adl_serializerENSB_IhNS1_IhEEEEvEENS_4lessIvEENS1_INS_4pairIKS9_SF_EEEEEEEEE7destroyB8ue170006ISM_vEEvRSN_PT_, symObjAddr: 0xD7FC, symBinAddr: 0x100010508, symSize: 0x2C }
  - { offsetInCU: 0x3F9A2, offset: 0x3F9A2, size: 0x8, addend: 0x0, symName: __ZNSt3__116allocator_traitsINS_9allocatorINS_6vectorIN8nlohmann16json_abi_v3_11_310basic_jsonINS4_11ordered_mapES2_NS_12basic_stringIcNS_11char_traitsIcEENS1_IcEEEEbxydS1_NS4_14adl_serializerENS2_IhNS1_IhEEEEvEENS1_ISF_EEEEEEE7destroyB8ue170006ISH_vEEvRSI_PT_, symObjAddr: 0xD828, symBinAddr: 0x100010534, symSize: 0x2C }
  - { offsetInCU: 0x3F9DF, offset: 0x3F9DF, size: 0x8, addend: 0x0, symName: __ZNSt3__116allocator_traitsINS_9allocatorINS_12basic_stringIcNS_11char_traitsIcEENS1_IcEEEEEEE7destroyB8ue170006IS6_vEEvRS7_PT_, symObjAddr: 0xD854, symBinAddr: 0x100010560, symSize: 0x2C }
  - { offsetInCU: 0x3FA1C, offset: 0x3FA1C, size: 0x8, addend: 0x0, symName: __ZNSt3__116allocator_traitsINS_9allocatorIN8nlohmann16json_abi_v3_11_327byte_container_with_subtypeINS_6vectorIhNS1_IhEEEEEEEEE7destroyB8ue170006IS8_vEEvRS9_PT_, symObjAddr: 0xD880, symBinAddr: 0x10001058C, symSize: 0x2C }
  - { offsetInCU: 0x3FA59, offset: 0x3FA59, size: 0x8, addend: 0x0, symName: __ZNKSt3__16vectorIN8nlohmann16json_abi_v3_11_310basic_jsonINS2_11ordered_mapES0_NS_12basic_stringIcNS_11char_traitsIcEENS_9allocatorIcEEEEbxydS8_NS2_14adl_serializerENS0_IhNS8_IhEEEEvEENS8_ISE_EEE8capacityB8ue170006Ev, symObjAddr: 0xD8AC, symBinAddr: 0x1000105B8, symSize: 0x40 }
  - { offsetInCU: 0x3FA7F, offset: 0x3FA7F, size: 0x8, addend: 0x0, symName: __ZNKSt3__16vectorIN8nlohmann16json_abi_v3_11_310basic_jsonINS2_11ordered_mapES0_NS_12basic_stringIcNS_11char_traitsIcEENS_9allocatorIcEEEEbxydS8_NS2_14adl_serializerENS0_IhNS8_IhEEEEvEENS8_ISE_EEE8max_sizeEv, symObjAddr: 0xD8EC, symBinAddr: 0x1000105F8, symSize: 0x60 }
  - { offsetInCU: 0x3FAA7, offset: 0x3FAA7, size: 0x8, addend: 0x0, symName: __ZNKSt3__16vectorIN8nlohmann16json_abi_v3_11_310basic_jsonINS2_11ordered_mapES0_NS_12basic_stringIcNS_11char_traitsIcEENS_9allocatorIcEEEEbxydS8_NS2_14adl_serializerENS0_IhNS8_IhEEEEvEENS8_ISE_EEE20__throw_length_errorB8ue170006Ev, symObjAddr: 0xD94C, symBinAddr: 0x100010658, symSize: 0x1C }
  - { offsetInCU: 0x3FACD, offset: 0x3FACD, size: 0x8, addend: 0x0, symName: __ZNSt3__16vectorIN8nlohmann16json_abi_v3_11_310basic_jsonINS2_11ordered_mapES0_NS_12basic_stringIcNS_11char_traitsIcEENS_9allocatorIcEEEEbxydS8_NS2_14adl_serializerENS0_IhNS8_IhEEEEvEENS8_ISE_EEE7__allocB8ue170006Ev, symObjAddr: 0xD968, symBinAddr: 0x100010674, symSize: 0x28 }
  - { offsetInCU: 0x3FAF3, offset: 0x3FAF3, size: 0x8, addend: 0x0, symName: __ZNSt3__114__split_bufferIN8nlohmann16json_abi_v3_11_310basic_jsonINS2_11ordered_mapENS_6vectorENS_12basic_stringIcNS_11char_traitsIcEENS_9allocatorIcEEEEbxydS9_NS2_14adl_serializerENS5_IhNS9_IhEEEEvEERNS9_ISF_EEEC1EmmSH_, symObjAddr: 0xD990, symBinAddr: 0x10001069C, symSize: 0x44 }
  - { offsetInCU: 0x3FB49, offset: 0x3FB49, size: 0x8, addend: 0x0, symName: __ZNSt3__114__split_bufferIN8nlohmann16json_abi_v3_11_310basic_jsonINS2_11ordered_mapENS_6vectorENS_12basic_stringIcNS_11char_traitsIcEENS_9allocatorIcEEEEbxydS9_NS2_14adl_serializerENS5_IhNS9_IhEEEEvEERNS9_ISF_EEED1Ev, symObjAddr: 0xDAE4, symBinAddr: 0x1000107F0, symSize: 0x2C }
  - { offsetInCU: 0x3FB75, offset: 0x3FB75, size: 0x8, addend: 0x0, symName: __ZNKSt3__16vectorIN8nlohmann16json_abi_v3_11_310basic_jsonINS2_11ordered_mapES0_NS_12basic_stringIcNS_11char_traitsIcEENS_9allocatorIcEEEEbxydS8_NS2_14adl_serializerENS0_IhNS8_IhEEEEvEENS8_ISE_EEE9__end_capB8ue170006Ev, symObjAddr: 0xDB10, symBinAddr: 0x10001081C, symSize: 0x28 }
  - { offsetInCU: 0x3FB9B, offset: 0x3FB9B, size: 0x8, addend: 0x0, symName: __ZNKSt3__117__compressed_pairIPN8nlohmann16json_abi_v3_11_310basic_jsonINS2_11ordered_mapENS_6vectorENS_12basic_stringIcNS_11char_traitsIcEENS_9allocatorIcEEEEbxydS9_NS2_14adl_serializerENS5_IhNS9_IhEEEEvEENS9_ISF_EEE5firstB8ue170006Ev, symObjAddr: 0xDB38, symBinAddr: 0x100010844, symSize: 0x24 }
  - { offsetInCU: 0x3FBC1, offset: 0x3FBC1, size: 0x8, addend: 0x0, symName: __ZNKSt3__122__compressed_pair_elemIPN8nlohmann16json_abi_v3_11_310basic_jsonINS2_11ordered_mapENS_6vectorENS_12basic_stringIcNS_11char_traitsIcEENS_9allocatorIcEEEEbxydS9_NS2_14adl_serializerENS5_IhNS9_IhEEEEvEELi0ELb0EE5__getB8ue170006Ev, symObjAddr: 0xDB5C, symBinAddr: 0x100010868, symSize: 0x14 }
  - { offsetInCU: 0x3FBF3, offset: 0x3FBF3, size: 0x8, addend: 0x0, symName: __ZNSt3__116allocator_traitsINS_9allocatorIN8nlohmann16json_abi_v3_11_310basic_jsonINS3_11ordered_mapENS_6vectorENS_12basic_stringIcNS_11char_traitsIcEENS1_IcEEEEbxydS1_NS3_14adl_serializerENS6_IhNS1_IhEEEEvEEEEE8max_sizeB8ue170006ISG_vEEmRKSG_, symObjAddr: 0xDB70, symBinAddr: 0x10001087C, symSize: 0x24 }
  - { offsetInCU: 0x3FC21, offset: 0x3FC21, size: 0x8, addend: 0x0, symName: __ZNKSt3__16vectorIN8nlohmann16json_abi_v3_11_310basic_jsonINS2_11ordered_mapES0_NS_12basic_stringIcNS_11char_traitsIcEENS_9allocatorIcEEEEbxydS8_NS2_14adl_serializerENS0_IhNS8_IhEEEEvEENS8_ISE_EEE7__allocB8ue170006Ev, symObjAddr: 0xDB94, symBinAddr: 0x1000108A0, symSize: 0x28 }
  - { offsetInCU: 0x3FC47, offset: 0x3FC47, size: 0x8, addend: 0x0, symName: __ZNKSt3__19allocatorIN8nlohmann16json_abi_v3_11_310basic_jsonINS2_11ordered_mapENS_6vectorENS_12basic_stringIcNS_11char_traitsIcEENS0_IcEEEEbxydS0_NS2_14adl_serializerENS5_IhNS0_IhEEEEvEEE8max_sizeB8ue170006Ev, symObjAddr: 0xDBBC, symBinAddr: 0x1000108C8, symSize: 0x14 }
  - { offsetInCU: 0x3FC6D, offset: 0x3FC6D, size: 0x8, addend: 0x0, symName: __ZNKSt3__117__compressed_pairIPN8nlohmann16json_abi_v3_11_310basic_jsonINS2_11ordered_mapENS_6vectorENS_12basic_stringIcNS_11char_traitsIcEENS_9allocatorIcEEEEbxydS9_NS2_14adl_serializerENS5_IhNS9_IhEEEEvEENS9_ISF_EEE6secondB8ue170006Ev, symObjAddr: 0xDBD0, symBinAddr: 0x1000108DC, symSize: 0x24 }
  - { offsetInCU: 0x3FC93, offset: 0x3FC93, size: 0x8, addend: 0x0, symName: __ZNKSt3__122__compressed_pair_elemINS_9allocatorIN8nlohmann16json_abi_v3_11_310basic_jsonINS3_11ordered_mapENS_6vectorENS_12basic_stringIcNS_11char_traitsIcEENS1_IcEEEEbxydS1_NS3_14adl_serializerENS6_IhNS1_IhEEEEvEEEELi1ELb1EE5__getB8ue170006Ev, symObjAddr: 0xDBF4, symBinAddr: 0x100010900, symSize: 0x14 }
  - { offsetInCU: 0x3FCB9, offset: 0x3FCB9, size: 0x8, addend: 0x0, symName: __ZNSt3__117__compressed_pairIPN8nlohmann16json_abi_v3_11_310basic_jsonINS2_11ordered_mapENS_6vectorENS_12basic_stringIcNS_11char_traitsIcEENS_9allocatorIcEEEEbxydS9_NS2_14adl_serializerENS5_IhNS9_IhEEEEvEENS9_ISF_EEE6secondB8ue170006Ev, symObjAddr: 0xDC08, symBinAddr: 0x100010914, symSize: 0x24 }
  - { offsetInCU: 0x3FCDF, offset: 0x3FCDF, size: 0x8, addend: 0x0, symName: __ZNSt3__122__compressed_pair_elemINS_9allocatorIN8nlohmann16json_abi_v3_11_310basic_jsonINS3_11ordered_mapENS_6vectorENS_12basic_stringIcNS_11char_traitsIcEENS1_IcEEEEbxydS1_NS3_14adl_serializerENS6_IhNS1_IhEEEEvEEEELi1ELb1EE5__getB8ue170006Ev, symObjAddr: 0xDC2C, symBinAddr: 0x100010938, symSize: 0x14 }
  - { offsetInCU: 0x3FD05, offset: 0x3FD05, size: 0x8, addend: 0x0, symName: __ZNSt3__114__split_bufferIN8nlohmann16json_abi_v3_11_310basic_jsonINS2_11ordered_mapENS_6vectorENS_12basic_stringIcNS_11char_traitsIcEENS_9allocatorIcEEEEbxydS9_NS2_14adl_serializerENS5_IhNS9_IhEEEEvEERNS9_ISF_EEEC2EmmSH_, symObjAddr: 0xDC40, symBinAddr: 0x10001094C, symSize: 0xD4 }
  - { offsetInCU: 0x3FD78, offset: 0x3FD78, size: 0x8, addend: 0x0, symName: __ZNSt3__117__compressed_pairIPN8nlohmann16json_abi_v3_11_310basic_jsonINS2_11ordered_mapENS_6vectorENS_12basic_stringIcNS_11char_traitsIcEENS_9allocatorIcEEEEbxydS9_NS2_14adl_serializerENS5_IhNS9_IhEEEEvEERNS9_ISF_EEEC1B8ue170006IDnSI_EEOT_OT0_, symObjAddr: 0xDD14, symBinAddr: 0x100010A20, symSize: 0x3C }
  - { offsetInCU: 0x3FDD0, offset: 0x3FDD0, size: 0x8, addend: 0x0, symName: __ZNSt3__114__split_bufferIN8nlohmann16json_abi_v3_11_310basic_jsonINS2_11ordered_mapENS_6vectorENS_12basic_stringIcNS_11char_traitsIcEENS_9allocatorIcEEEEbxydS9_NS2_14adl_serializerENS5_IhNS9_IhEEEEvEERNS9_ISF_EEE7__allocB8ue170006Ev, symObjAddr: 0xDD90, symBinAddr: 0x100010A9C, symSize: 0x28 }
  - { offsetInCU: 0x3FDF6, offset: 0x3FDF6, size: 0x8, addend: 0x0, symName: __ZNSt3__114__split_bufferIN8nlohmann16json_abi_v3_11_310basic_jsonINS2_11ordered_mapENS_6vectorENS_12basic_stringIcNS_11char_traitsIcEENS_9allocatorIcEEEEbxydS9_NS2_14adl_serializerENS5_IhNS9_IhEEEEvEERNS9_ISF_EEE9__end_capB8ue170006Ev, symObjAddr: 0xDDB8, symBinAddr: 0x100010AC4, symSize: 0x28 }
  - { offsetInCU: 0x3FE1C, offset: 0x3FE1C, size: 0x8, addend: 0x0, symName: __ZNSt3__117__compressed_pairIPN8nlohmann16json_abi_v3_11_310basic_jsonINS2_11ordered_mapENS_6vectorENS_12basic_stringIcNS_11char_traitsIcEENS_9allocatorIcEEEEbxydS9_NS2_14adl_serializerENS5_IhNS9_IhEEEEvEERNS9_ISF_EEEC2B8ue170006IDnSI_EEOT_OT0_, symObjAddr: 0xDDE0, symBinAddr: 0x100010AEC, symSize: 0x48 }
  - { offsetInCU: 0x3FE74, offset: 0x3FE74, size: 0x8, addend: 0x0, symName: __ZNSt3__122__compressed_pair_elemIRNS_9allocatorIN8nlohmann16json_abi_v3_11_310basic_jsonINS3_11ordered_mapENS_6vectorENS_12basic_stringIcNS_11char_traitsIcEENS1_IcEEEEbxydS1_NS3_14adl_serializerENS6_IhNS1_IhEEEEvEEEELi1ELb0EEC2B8ue170006ISH_vEEOT_, symObjAddr: 0xDE28, symBinAddr: 0x100010B34, symSize: 0x20 }
  - { offsetInCU: 0x3FEB6, offset: 0x3FEB6, size: 0x8, addend: 0x0, symName: __ZNSt3__19allocatorIN8nlohmann16json_abi_v3_11_310basic_jsonINS2_11ordered_mapENS_6vectorENS_12basic_stringIcNS_11char_traitsIcEENS0_IcEEEEbxydS0_NS2_14adl_serializerENS5_IhNS0_IhEEEEvEEE8allocateB8ue170006Em, symObjAddr: 0xDE48, symBinAddr: 0x100010B54, symSize: 0x58 }
  - { offsetInCU: 0x3FEEA, offset: 0x3FEEA, size: 0x8, addend: 0x0, symName: __ZNSt3__117__compressed_pairIPN8nlohmann16json_abi_v3_11_310basic_jsonINS2_11ordered_mapENS_6vectorENS_12basic_stringIcNS_11char_traitsIcEENS_9allocatorIcEEEEbxydS9_NS2_14adl_serializerENS5_IhNS9_IhEEEEvEERNS9_ISF_EEE6secondB8ue170006Ev, symObjAddr: 0xDEA0, symBinAddr: 0x100010BAC, symSize: 0x28 }
  - { offsetInCU: 0x3FF10, offset: 0x3FF10, size: 0x8, addend: 0x0, symName: __ZNSt3__122__compressed_pair_elemIRNS_9allocatorIN8nlohmann16json_abi_v3_11_310basic_jsonINS3_11ordered_mapENS_6vectorENS_12basic_stringIcNS_11char_traitsIcEENS1_IcEEEEbxydS1_NS3_14adl_serializerENS6_IhNS1_IhEEEEvEEEELi1ELb0EE5__getB8ue170006Ev, symObjAddr: 0xDEC8, symBinAddr: 0x100010BD4, symSize: 0x18 }
  - { offsetInCU: 0x3FF36, offset: 0x3FF36, size: 0x8, addend: 0x0, symName: __ZNSt3__117__compressed_pairIPN8nlohmann16json_abi_v3_11_310basic_jsonINS2_11ordered_mapENS_6vectorENS_12basic_stringIcNS_11char_traitsIcEENS_9allocatorIcEEEEbxydS9_NS2_14adl_serializerENS5_IhNS9_IhEEEEvEERNS9_ISF_EEE5firstB8ue170006Ev, symObjAddr: 0xDEE0, symBinAddr: 0x100010BEC, symSize: 0x24 }
  - { offsetInCU: 0x3FF5C, offset: 0x3FF5C, size: 0x8, addend: 0x0, symName: __ZNSt3__122__compressed_pair_elemIPN8nlohmann16json_abi_v3_11_310basic_jsonINS2_11ordered_mapENS_6vectorENS_12basic_stringIcNS_11char_traitsIcEENS_9allocatorIcEEEEbxydS9_NS2_14adl_serializerENS5_IhNS9_IhEEEEvEELi0ELb0EE5__getB8ue170006Ev, symObjAddr: 0xDF04, symBinAddr: 0x100010C10, symSize: 0x14 }
  - { offsetInCU: 0x3FF82, offset: 0x3FF82, size: 0x8, addend: 0x0, symName: __ZNKSt3__16vectorIN8nlohmann16json_abi_v3_11_310basic_jsonINS2_11ordered_mapES0_NS_12basic_stringIcNS_11char_traitsIcEENS_9allocatorIcEEEEbxydS8_NS2_14adl_serializerENS0_IhNS8_IhEEEEvEENS8_ISE_EEE17__annotate_deleteB8ue170006Ev, symObjAddr: 0xDF18, symBinAddr: 0x100010C24, symSize: 0xB8 }
  - { offsetInCU: 0x3FFA8, offset: 0x3FFA8, size: 0x8, addend: 0x0, symName: __ZNSt3__116reverse_iteratorIPN8nlohmann16json_abi_v3_11_310basic_jsonINS2_11ordered_mapENS_6vectorENS_12basic_stringIcNS_11char_traitsIcEENS_9allocatorIcEEEEbxydS9_NS2_14adl_serializerENS5_IhNS9_IhEEEEvEEEC1B8ue170006ESG_, symObjAddr: 0xE0FC, symBinAddr: 0x100010E08, symSize: 0x34 }
  - { offsetInCU: 0x3FFE0, offset: 0x3FFE0, size: 0x8, addend: 0x0, symName: __ZNKSt3__116reverse_iteratorIPN8nlohmann16json_abi_v3_11_310basic_jsonINS2_11ordered_mapENS_6vectorENS_12basic_stringIcNS_11char_traitsIcEENS_9allocatorIcEEEEbxydS9_NS2_14adl_serializerENS5_IhNS9_IhEEEEvEEE4baseB8ue170006Ev, symObjAddr: 0xE130, symBinAddr: 0x100010E3C, symSize: 0x18 }
  - { offsetInCU: 0x40006, offset: 0x40006, size: 0x8, addend: 0x0, symName: __ZNSt3__16vectorIN8nlohmann16json_abi_v3_11_310basic_jsonINS2_11ordered_mapES0_NS_12basic_stringIcNS_11char_traitsIcEENS_9allocatorIcEEEEbxydS8_NS2_14adl_serializerENS0_IhNS8_IhEEEEvEENS8_ISE_EEE9__end_capB8ue170006Ev, symObjAddr: 0xE184, symBinAddr: 0x100010E90, symSize: 0x28 }
  - { offsetInCU: 0x4002C, offset: 0x4002C, size: 0x8, addend: 0x0, symName: __ZNKSt3__16vectorIN8nlohmann16json_abi_v3_11_310basic_jsonINS2_11ordered_mapES0_NS_12basic_stringIcNS_11char_traitsIcEENS_9allocatorIcEEEEbxydS8_NS2_14adl_serializerENS0_IhNS8_IhEEEEvEENS8_ISE_EEE14__annotate_newB8ue170006Em, symObjAddr: 0xE1AC, symBinAddr: 0x100010EB8, symSize: 0xAC }
  - { offsetInCU: 0x40061, offset: 0x40061, size: 0x8, addend: 0x0, symName: __ZNKSt3__16vectorIN8nlohmann16json_abi_v3_11_310basic_jsonINS2_11ordered_mapES0_NS_12basic_stringIcNS_11char_traitsIcEENS_9allocatorIcEEEEbxydS8_NS2_14adl_serializerENS0_IhNS8_IhEEEEvEENS8_ISE_EEE31__annotate_contiguous_containerB8ue170006EPKvSI_SI_SI_, symObjAddr: 0xE258, symBinAddr: 0x100010F64, symSize: 0x20 }
  - { offsetInCU: 0x400B7, offset: 0x400B7, size: 0x8, addend: 0x0, symName: __ZNKSt3__16vectorIN8nlohmann16json_abi_v3_11_310basic_jsonINS2_11ordered_mapES0_NS_12basic_stringIcNS_11char_traitsIcEENS_9allocatorIcEEEEbxydS8_NS2_14adl_serializerENS0_IhNS8_IhEEEEvEENS8_ISE_EEE4dataB8ue170006Ev, symObjAddr: 0xE278, symBinAddr: 0x100010F84, symSize: 0x28 }
  - { offsetInCU: 0x400DD, offset: 0x400DD, size: 0x8, addend: 0x0, symName: __ZNSt3__129_AllocatorDestroyRangeReverseINS_9allocatorIN8nlohmann16json_abi_v3_11_310basic_jsonINS3_11ordered_mapENS_6vectorENS_12basic_stringIcNS_11char_traitsIcEENS1_IcEEEEbxydS1_NS3_14adl_serializerENS6_IhNS1_IhEEEEvEEEENS_16reverse_iteratorIPSF_EEEC1B8ue170006ERSG_RSJ_SM_, symObjAddr: 0xE300, symBinAddr: 0x10001100C, symSize: 0x44 }
  - { offsetInCU: 0x40134, offset: 0x40134, size: 0x8, addend: 0x0, symName: __ZNSt3__116allocator_traitsINS_9allocatorIN8nlohmann16json_abi_v3_11_310basic_jsonINS3_11ordered_mapENS_6vectorENS_12basic_stringIcNS_11char_traitsIcEENS1_IcEEEEbxydS1_NS3_14adl_serializerENS6_IhNS1_IhEEEEvEEEEE9constructB8ue170006ISF_JSF_EvEEvRSG_PT_DpOT0_, symObjAddr: 0xE38C, symBinAddr: 0x100011098, symSize: 0x34 }
  - { offsetInCU: 0x4018B, offset: 0x4018B, size: 0x8, addend: 0x0, symName: __ZNKSt3__116reverse_iteratorIPN8nlohmann16json_abi_v3_11_310basic_jsonINS2_11ordered_mapENS_6vectorENS_12basic_stringIcNS_11char_traitsIcEENS_9allocatorIcEEEEbxydS9_NS2_14adl_serializerENS5_IhNS9_IhEEEEvEEEdeB8ue170006Ev, symObjAddr: 0xE3E4, symBinAddr: 0x1000110F0, symSize: 0x28 }
  - { offsetInCU: 0x401BF, offset: 0x401BF, size: 0x8, addend: 0x0, symName: __ZNSt3__116reverse_iteratorIPN8nlohmann16json_abi_v3_11_310basic_jsonINS2_11ordered_mapENS_6vectorENS_12basic_stringIcNS_11char_traitsIcEENS_9allocatorIcEEEEbxydS9_NS2_14adl_serializerENS5_IhNS9_IhEEEEvEEEppB8ue170006Ev, symObjAddr: 0xE40C, symBinAddr: 0x100011118, symSize: 0x20 }
  - { offsetInCU: 0x401E5, offset: 0x401E5, size: 0x8, addend: 0x0, symName: __ZNSt3__128__exception_guard_exceptionsINS_29_AllocatorDestroyRangeReverseINS_9allocatorIN8nlohmann16json_abi_v3_11_310basic_jsonINS4_11ordered_mapENS_6vectorENS_12basic_stringIcNS_11char_traitsIcEENS2_IcEEEEbxydS2_NS4_14adl_serializerENS7_IhNS2_IhEEEEvEEEENS_16reverse_iteratorIPSG_EEEEE10__completeB8ue170006Ev, symObjAddr: 0xE42C, symBinAddr: 0x100011138, symSize: 0x1C }
  - { offsetInCU: 0x4020B, offset: 0x4020B, size: 0x8, addend: 0x0, symName: __ZNSt3__128__exception_guard_exceptionsINS_29_AllocatorDestroyRangeReverseINS_9allocatorIN8nlohmann16json_abi_v3_11_310basic_jsonINS4_11ordered_mapENS_6vectorENS_12basic_stringIcNS_11char_traitsIcEENS2_IcEEEEbxydS2_NS4_14adl_serializerENS7_IhNS2_IhEEEEvEEEENS_16reverse_iteratorIPSG_EEEEED1B8ue170006Ev, symObjAddr: 0xE448, symBinAddr: 0x100011154, symSize: 0x2C }
  - { offsetInCU: 0x40235, offset: 0x40235, size: 0x8, addend: 0x0, symName: __ZNSt3__128__exception_guard_exceptionsINS_29_AllocatorDestroyRangeReverseINS_9allocatorIN8nlohmann16json_abi_v3_11_310basic_jsonINS4_11ordered_mapENS_6vectorENS_12basic_stringIcNS_11char_traitsIcEENS2_IcEEEEbxydS2_NS4_14adl_serializerENS7_IhNS2_IhEEEEvEEEENS_16reverse_iteratorIPSG_EEEEEC1B8ue170006ESL_, symObjAddr: 0xE474, symBinAddr: 0x100011180, symSize: 0x34 }
  - { offsetInCU: 0x4026E, offset: 0x4026E, size: 0x8, addend: 0x0, symName: __ZNSt3__128__exception_guard_exceptionsINS_29_AllocatorDestroyRangeReverseINS_9allocatorIN8nlohmann16json_abi_v3_11_310basic_jsonINS4_11ordered_mapENS_6vectorENS_12basic_stringIcNS_11char_traitsIcEENS2_IcEEEEbxydS2_NS4_14adl_serializerENS7_IhNS2_IhEEEEvEEEENS_16reverse_iteratorIPSG_EEEEEC2B8ue170006ESL_, symObjAddr: 0xE4A8, symBinAddr: 0x1000111B4, symSize: 0x30 }
  - { offsetInCU: 0x402A7, offset: 0x402A7, size: 0x8, addend: 0x0, symName: __ZNSt3__129_AllocatorDestroyRangeReverseINS_9allocatorIN8nlohmann16json_abi_v3_11_310basic_jsonINS3_11ordered_mapENS_6vectorENS_12basic_stringIcNS_11char_traitsIcEENS1_IcEEEEbxydS1_NS3_14adl_serializerENS6_IhNS1_IhEEEEvEEEENS_16reverse_iteratorIPSF_EEEC2B8ue170006ERSG_RSJ_SM_, symObjAddr: 0xE4D8, symBinAddr: 0x1000111E4, symSize: 0x38 }
  - { offsetInCU: 0x402FE, offset: 0x402FE, size: 0x8, addend: 0x0, symName: __ZNSt3__19allocatorIN8nlohmann16json_abi_v3_11_310basic_jsonINS2_11ordered_mapENS_6vectorENS_12basic_stringIcNS_11char_traitsIcEENS0_IcEEEEbxydS0_NS2_14adl_serializerENS5_IhNS0_IhEEEEvEEE9constructB8ue170006ISE_JSE_EEEvPT_DpOT0_, symObjAddr: 0xE510, symBinAddr: 0x10001121C, symSize: 0x30 }
  - { offsetInCU: 0x4035A, offset: 0x4035A, size: 0x8, addend: 0x0, symName: __ZNSt3__119__to_address_helperINS_16reverse_iteratorIPN8nlohmann16json_abi_v3_11_310basic_jsonINS3_11ordered_mapENS_6vectorENS_12basic_stringIcNS_11char_traitsIcEENS_9allocatorIcEEEEbxydSA_NS3_14adl_serializerENS6_IhNSA_IhEEEEvEEEEvE6__callB8ue170006ERKSI_, symObjAddr: 0xE540, symBinAddr: 0x10001124C, symSize: 0x38 }
  - { offsetInCU: 0x4037D, offset: 0x4037D, size: 0x8, addend: 0x0, symName: __ZNKSt3__116reverse_iteratorIPN8nlohmann16json_abi_v3_11_310basic_jsonINS2_11ordered_mapENS_6vectorENS_12basic_stringIcNS_11char_traitsIcEENS_9allocatorIcEEEEbxydS9_NS2_14adl_serializerENS5_IhNS9_IhEEEEvEEEptB8ue170006Ev, symObjAddr: 0xE578, symBinAddr: 0x100011284, symSize: 0x24 }
  - { offsetInCU: 0x403A3, offset: 0x403A3, size: 0x8, addend: 0x0, symName: __ZNSt3__128__exception_guard_exceptionsINS_29_AllocatorDestroyRangeReverseINS_9allocatorIN8nlohmann16json_abi_v3_11_310basic_jsonINS4_11ordered_mapENS_6vectorENS_12basic_stringIcNS_11char_traitsIcEENS2_IcEEEEbxydS2_NS4_14adl_serializerENS7_IhNS2_IhEEEEvEEEENS_16reverse_iteratorIPSG_EEEEED2B8ue170006Ev, symObjAddr: 0xE59C, symBinAddr: 0x1000112A8, symSize: 0x50 }
  - { offsetInCU: 0x403CD, offset: 0x403CD, size: 0x8, addend: 0x0, symName: __ZNKSt3__129_AllocatorDestroyRangeReverseINS_9allocatorIN8nlohmann16json_abi_v3_11_310basic_jsonINS3_11ordered_mapENS_6vectorENS_12basic_stringIcNS_11char_traitsIcEENS1_IcEEEEbxydS1_NS3_14adl_serializerENS6_IhNS1_IhEEEEvEEEENS_16reverse_iteratorIPSF_EEEclB8ue170006Ev, symObjAddr: 0xE5EC, symBinAddr: 0x1000112F8, symSize: 0xB4 }
  - { offsetInCU: 0x403F4, offset: 0x403F4, size: 0x8, addend: 0x0, symName: __ZNSt3__116reverse_iteratorINS0_IPN8nlohmann16json_abi_v3_11_310basic_jsonINS2_11ordered_mapENS_6vectorENS_12basic_stringIcNS_11char_traitsIcEENS_9allocatorIcEEEEbxydS9_NS2_14adl_serializerENS5_IhNS9_IhEEEEvEEEEEC1B8ue170006ESH_, symObjAddr: 0xE710, symBinAddr: 0x10001141C, symSize: 0x3C }
  - { offsetInCU: 0x4042C, offset: 0x4042C, size: 0x8, addend: 0x0, symName: __ZNSt3__116allocator_traitsINS_9allocatorIN8nlohmann16json_abi_v3_11_310basic_jsonINS3_11ordered_mapENS_6vectorENS_12basic_stringIcNS_11char_traitsIcEENS1_IcEEEEbxydS1_NS3_14adl_serializerENS6_IhNS1_IhEEEEvEEEEE7destroyB8ue170006ISF_vEEvRSG_PT_, symObjAddr: 0xE7AC, symBinAddr: 0x1000114B8, symSize: 0x2C }
  - { offsetInCU: 0x40469, offset: 0x40469, size: 0x8, addend: 0x0, symName: __ZNSt3__116reverse_iteratorINS0_IPN8nlohmann16json_abi_v3_11_310basic_jsonINS2_11ordered_mapENS_6vectorENS_12basic_stringIcNS_11char_traitsIcEENS_9allocatorIcEEEEbxydS9_NS2_14adl_serializerENS5_IhNS9_IhEEEEvEEEEEppB8ue170006Ev, symObjAddr: 0xE7FC, symBinAddr: 0x100011508, symSize: 0x30 }
  - { offsetInCU: 0x4048F, offset: 0x4048F, size: 0x8, addend: 0x0, symName: __ZNKSt3__116reverse_iteratorINS0_IPN8nlohmann16json_abi_v3_11_310basic_jsonINS2_11ordered_mapENS_6vectorENS_12basic_stringIcNS_11char_traitsIcEENS_9allocatorIcEEEEbxydS9_NS2_14adl_serializerENS5_IhNS9_IhEEEEvEEEEE4baseB8ue170006Ev, symObjAddr: 0xE82C, symBinAddr: 0x100011538, symSize: 0x24 }
  - { offsetInCU: 0x404B5, offset: 0x404B5, size: 0x8, addend: 0x0, symName: __ZNSt3__19allocatorIN8nlohmann16json_abi_v3_11_310basic_jsonINS2_11ordered_mapENS_6vectorENS_12basic_stringIcNS_11char_traitsIcEENS0_IcEEEEbxydS0_NS2_14adl_serializerENS5_IhNS0_IhEEEEvEEE7destroyB8ue170006EPSE_, symObjAddr: 0xE850, symBinAddr: 0x10001155C, symSize: 0x28 }
  - { offsetInCU: 0x404EF, offset: 0x404EF, size: 0x8, addend: 0x0, symName: __ZNSt3__119__to_address_helperINS_16reverse_iteratorINS1_IPN8nlohmann16json_abi_v3_11_310basic_jsonINS3_11ordered_mapENS_6vectorENS_12basic_stringIcNS_11char_traitsIcEENS_9allocatorIcEEEEbxydSA_NS3_14adl_serializerENS6_IhNSA_IhEEEEvEEEEEEvE6__callB8ue170006ERKSJ_, symObjAddr: 0xE878, symBinAddr: 0x100011584, symSize: 0x38 }
  - { offsetInCU: 0x40512, offset: 0x40512, size: 0x8, addend: 0x0, symName: __ZNKSt3__116reverse_iteratorINS0_IPN8nlohmann16json_abi_v3_11_310basic_jsonINS2_11ordered_mapENS_6vectorENS_12basic_stringIcNS_11char_traitsIcEENS_9allocatorIcEEEEbxydS9_NS2_14adl_serializerENS5_IhNS9_IhEEEEvEEEEEptB8ue170006Ev, symObjAddr: 0xE8B0, symBinAddr: 0x1000115BC, symSize: 0x24 }
  - { offsetInCU: 0x40538, offset: 0x40538, size: 0x8, addend: 0x0, symName: __ZNKSt3__116reverse_iteratorINS0_IPN8nlohmann16json_abi_v3_11_310basic_jsonINS2_11ordered_mapENS_6vectorENS_12basic_stringIcNS_11char_traitsIcEENS_9allocatorIcEEEEbxydS9_NS2_14adl_serializerENS5_IhNS9_IhEEEEvEEEEEdeB8ue170006Ev, symObjAddr: 0xE8D4, symBinAddr: 0x1000115E0, symSize: 0x34 }
  - { offsetInCU: 0x4056C, offset: 0x4056C, size: 0x8, addend: 0x0, symName: __ZNSt3__116reverse_iteratorIPN8nlohmann16json_abi_v3_11_310basic_jsonINS2_11ordered_mapENS_6vectorENS_12basic_stringIcNS_11char_traitsIcEENS_9allocatorIcEEEEbxydS9_NS2_14adl_serializerENS5_IhNS9_IhEEEEvEEEmmB8ue170006Ev, symObjAddr: 0xE908, symBinAddr: 0x100011614, symSize: 0x20 }
  - { offsetInCU: 0x40592, offset: 0x40592, size: 0x8, addend: 0x0, symName: __ZNSt3__116reverse_iteratorINS0_IPN8nlohmann16json_abi_v3_11_310basic_jsonINS2_11ordered_mapENS_6vectorENS_12basic_stringIcNS_11char_traitsIcEENS_9allocatorIcEEEEbxydS9_NS2_14adl_serializerENS5_IhNS9_IhEEEEvEEEEEC2B8ue170006ESH_, symObjAddr: 0xE928, symBinAddr: 0x100011634, symSize: 0x2C }
  - { offsetInCU: 0x405CA, offset: 0x405CA, size: 0x8, addend: 0x0, symName: __ZNSt3__116reverse_iteratorIPN8nlohmann16json_abi_v3_11_310basic_jsonINS2_11ordered_mapENS_6vectorENS_12basic_stringIcNS_11char_traitsIcEENS_9allocatorIcEEEEbxydS9_NS2_14adl_serializerENS5_IhNS9_IhEEEEvEEEC2B8ue170006ESG_, symObjAddr: 0xE954, symBinAddr: 0x100011660, symSize: 0x28 }
  - { offsetInCU: 0x40602, offset: 0x40602, size: 0x8, addend: 0x0, symName: __ZNSt3__117__compressed_pairIPN8nlohmann16json_abi_v3_11_310basic_jsonINS2_11ordered_mapENS_6vectorENS_12basic_stringIcNS_11char_traitsIcEENS_9allocatorIcEEEEbxydS9_NS2_14adl_serializerENS5_IhNS9_IhEEEEvEENS9_ISF_EEE5firstB8ue170006Ev, symObjAddr: 0xE97C, symBinAddr: 0x100011688, symSize: 0x24 }
  - { offsetInCU: 0x40628, offset: 0x40628, size: 0x8, addend: 0x0, symName: __ZNSt3__114__split_bufferIN8nlohmann16json_abi_v3_11_310basic_jsonINS2_11ordered_mapENS_6vectorENS_12basic_stringIcNS_11char_traitsIcEENS_9allocatorIcEEEEbxydS9_NS2_14adl_serializerENS5_IhNS9_IhEEEEvEERNS9_ISF_EEED2Ev, symObjAddr: 0xE9A0, symBinAddr: 0x1000116AC, symSize: 0x8C }
  - { offsetInCU: 0x40654, offset: 0x40654, size: 0x8, addend: 0x0, symName: __ZNSt3__114__split_bufferIN8nlohmann16json_abi_v3_11_310basic_jsonINS2_11ordered_mapENS_6vectorENS_12basic_stringIcNS_11char_traitsIcEENS_9allocatorIcEEEEbxydS9_NS2_14adl_serializerENS5_IhNS9_IhEEEEvEERNS9_ISF_EEE5clearB8ue170006Ev, symObjAddr: 0xEA2C, symBinAddr: 0x100011738, symSize: 0x28 }
  - { offsetInCU: 0x4067A, offset: 0x4067A, size: 0x8, addend: 0x0, symName: __ZNSt3__116allocator_traitsINS_9allocatorIN8nlohmann16json_abi_v3_11_310basic_jsonINS3_11ordered_mapENS_6vectorENS_12basic_stringIcNS_11char_traitsIcEENS1_IcEEEEbxydS1_NS3_14adl_serializerENS6_IhNS1_IhEEEEvEEEEE10deallocateB8ue170006ERSG_PSF_m, symObjAddr: 0xEA54, symBinAddr: 0x100011760, symSize: 0x34 }
  - { offsetInCU: 0x406BC, offset: 0x406BC, size: 0x8, addend: 0x0, symName: __ZNKSt3__114__split_bufferIN8nlohmann16json_abi_v3_11_310basic_jsonINS2_11ordered_mapENS_6vectorENS_12basic_stringIcNS_11char_traitsIcEENS_9allocatorIcEEEEbxydS9_NS2_14adl_serializerENS5_IhNS9_IhEEEEvEERNS9_ISF_EEE8capacityB8ue170006Ev, symObjAddr: 0xEA88, symBinAddr: 0x100011794, symSize: 0x40 }
  - { offsetInCU: 0x406E2, offset: 0x406E2, size: 0x8, addend: 0x0, symName: __ZNSt3__114__split_bufferIN8nlohmann16json_abi_v3_11_310basic_jsonINS2_11ordered_mapENS_6vectorENS_12basic_stringIcNS_11char_traitsIcEENS_9allocatorIcEEEEbxydS9_NS2_14adl_serializerENS5_IhNS9_IhEEEEvEERNS9_ISF_EEE17__destruct_at_endB8ue170006EPSF_, symObjAddr: 0xEAC8, symBinAddr: 0x1000117D4, symSize: 0x2C }
  - { offsetInCU: 0x40716, offset: 0x40716, size: 0x8, addend: 0x0, symName: __ZNSt3__114__split_bufferIN8nlohmann16json_abi_v3_11_310basic_jsonINS2_11ordered_mapENS_6vectorENS_12basic_stringIcNS_11char_traitsIcEENS_9allocatorIcEEEEbxydS9_NS2_14adl_serializerENS5_IhNS9_IhEEEEvEERNS9_ISF_EEE17__destruct_at_endB8ue170006EPSF_NS_17integral_constantIbLb0EEE, symObjAddr: 0xEAF4, symBinAddr: 0x100011800, symSize: 0x80 }
  - { offsetInCU: 0x40757, offset: 0x40757, size: 0x8, addend: 0x0, symName: __ZNSt3__19allocatorIN8nlohmann16json_abi_v3_11_310basic_jsonINS2_11ordered_mapENS_6vectorENS_12basic_stringIcNS_11char_traitsIcEENS0_IcEEEEbxydS0_NS2_14adl_serializerENS5_IhNS0_IhEEEEvEEE10deallocateB8ue170006EPSE_m, symObjAddr: 0xEB74, symBinAddr: 0x100011880, symSize: 0x40 }
  - { offsetInCU: 0x40799, offset: 0x40799, size: 0x8, addend: 0x0, symName: __ZNKSt3__114__split_bufferIN8nlohmann16json_abi_v3_11_310basic_jsonINS2_11ordered_mapENS_6vectorENS_12basic_stringIcNS_11char_traitsIcEENS_9allocatorIcEEEEbxydS9_NS2_14adl_serializerENS5_IhNS9_IhEEEEvEERNS9_ISF_EEE9__end_capB8ue170006Ev, symObjAddr: 0xEBB4, symBinAddr: 0x1000118C0, symSize: 0x28 }
  - { offsetInCU: 0x407BF, offset: 0x407BF, size: 0x8, addend: 0x0, symName: __ZNKSt3__117__compressed_pairIPN8nlohmann16json_abi_v3_11_310basic_jsonINS2_11ordered_mapENS_6vectorENS_12basic_stringIcNS_11char_traitsIcEENS_9allocatorIcEEEEbxydS9_NS2_14adl_serializerENS5_IhNS9_IhEEEEvEERNS9_ISF_EEE5firstB8ue170006Ev, symObjAddr: 0xEBDC, symBinAddr: 0x1000118E8, symSize: 0x24 }
  - { offsetInCU: 0x40802, offset: 0x40802, size: 0x8, addend: 0x0, symName: __ZNKSt3__111__move_loopINS_17_ClassicAlgPolicyEEclB8ue170006IPN8nlohmann16json_abi_v3_11_310basic_jsonINS5_11ordered_mapENS_6vectorENS_12basic_stringIcNS_11char_traitsIcEENS_9allocatorIcEEEEbxydSC_NS5_14adl_serializerENS8_IhNSC_IhEEEEvEESJ_NS_20back_insert_iteratorINS8_ISI_NSC_ISI_EEEEEEEENS_4pairIT_T1_EESP_T0_SQ_, symObjAddr: 0xEE10, symBinAddr: 0x100011B1C, symSize: 0x98 }
  - { offsetInCU: 0x40890, offset: 0x40890, size: 0x8, addend: 0x0, symName: __ZNSt3__14pairIPN8nlohmann16json_abi_v3_11_310basic_jsonINS2_11ordered_mapENS_6vectorENS_12basic_stringIcNS_11char_traitsIcEENS_9allocatorIcEEEEbxydS9_NS2_14adl_serializerENS5_IhNS9_IhEEEEvEESG_EC1B8ue170006ISG_SG_LPv0EEEOT_OT0_, symObjAddr: 0xF008, symBinAddr: 0x100011D14, symSize: 0x3C }
  - { offsetInCU: 0x408EE, offset: 0x408EE, size: 0x8, addend: 0x0, symName: __ZNSt3__14pairIPN8nlohmann16json_abi_v3_11_310basic_jsonINS2_11ordered_mapENS_6vectorENS_12basic_stringIcNS_11char_traitsIcEENS_9allocatorIcEEEEbxydS9_NS2_14adl_serializerENS5_IhNS9_IhEEEEvEESG_EC2B8ue170006ISG_SG_LPv0EEEOT_OT0_, symObjAddr: 0xF044, symBinAddr: 0x100011D50, symSize: 0x34 }
  - { offsetInCU: 0x4094C, offset: 0x4094C, size: 0x8, addend: 0x0, symName: __ZNSt3__118__unwrap_iter_implINS_11__wrap_iterIPN8nlohmann16json_abi_v3_11_310basic_jsonINS3_11ordered_mapENS_6vectorENS_12basic_stringIcNS_11char_traitsIcEENS_9allocatorIcEEEEbxydSA_NS3_14adl_serializerENS6_IhNSA_IhEEEEvEEEELb1EE8__unwrapB8ue170006ESI_, symObjAddr: 0xF078, symBinAddr: 0x100011D84, symSize: 0x28 }
  - { offsetInCU: 0x4097A, offset: 0x4097A, size: 0x8, addend: 0x0, symName: __ZNSt3__119__to_address_helperINS_11__wrap_iterIPN8nlohmann16json_abi_v3_11_310basic_jsonINS3_11ordered_mapENS_6vectorENS_12basic_stringIcNS_11char_traitsIcEENS_9allocatorIcEEEEbxydSA_NS3_14adl_serializerENS6_IhNSA_IhEEEEvEEEEvE6__callB8ue170006ERKSI_, symObjAddr: 0xF0C4, symBinAddr: 0x100011DD0, symSize: 0x30 }
  - { offsetInCU: 0x4099D, offset: 0x4099D, size: 0x8, addend: 0x0, symName: __ZNSt3__114pointer_traitsINS_11__wrap_iterIPN8nlohmann16json_abi_v3_11_310basic_jsonINS3_11ordered_mapENS_6vectorENS_12basic_stringIcNS_11char_traitsIcEENS_9allocatorIcEEEEbxydSA_NS3_14adl_serializerENS6_IhNSA_IhEEEEvEEEEE10to_addressB8ue170006ESI_, symObjAddr: 0xF0F4, symBinAddr: 0x100011E00, symSize: 0x2C }
  - { offsetInCU: 0x409C0, offset: 0x409C0, size: 0x8, addend: 0x0, symName: __ZNKSt3__111__wrap_iterIPN8nlohmann16json_abi_v3_11_310basic_jsonINS2_11ordered_mapENS_6vectorENS_12basic_stringIcNS_11char_traitsIcEENS_9allocatorIcEEEEbxydS9_NS2_14adl_serializerENS5_IhNS9_IhEEEEvEEE4baseB8ue170006Ev, symObjAddr: 0xF120, symBinAddr: 0x100011E2C, symSize: 0x18 }
  - { offsetInCU: 0x409E6, offset: 0x409E6, size: 0x8, addend: 0x0, symName: __ZNSt3__18_IterOpsINS_17_ClassicAlgPolicyEE11__iter_moveB8ue170006IRPN8nlohmann16json_abi_v3_11_310basic_jsonINS5_11ordered_mapENS_6vectorENS_12basic_stringIcNS_11char_traitsIcEENS_9allocatorIcEEEEbxydSC_NS5_14adl_serializerENS8_IhNSC_IhEEEEvEEEENS_9enable_ifIXsr12is_referenceIDTdeclsr3stdE7declvalIRT_EEEEE5valueEDTclsr3stdE4movedeclsr3stdE7declvalISN_EEEEE4typeEOSM_, symObjAddr: 0xF138, symBinAddr: 0x100011E44, symSize: 0x28 }
  - { offsetInCU: 0x40A12, offset: 0x40A12, size: 0x8, addend: 0x0, symName: __ZNSt3__120back_insert_iteratorINS_6vectorIN8nlohmann16json_abi_v3_11_310basic_jsonINS3_11ordered_mapES1_NS_12basic_stringIcNS_11char_traitsIcEENS_9allocatorIcEEEEbxydS9_NS3_14adl_serializerENS1_IhNS9_IhEEEEvEENS9_ISF_EEEEEdeB8ue170006Ev, symObjAddr: 0xF160, symBinAddr: 0x100011E6C, symSize: 0x14 }
  - { offsetInCU: 0x40A38, offset: 0x40A38, size: 0x8, addend: 0x0, symName: __ZNSt3__120back_insert_iteratorINS_6vectorIN8nlohmann16json_abi_v3_11_310basic_jsonINS3_11ordered_mapES1_NS_12basic_stringIcNS_11char_traitsIcEENS_9allocatorIcEEEEbxydS9_NS3_14adl_serializerENS1_IhNS9_IhEEEEvEENS9_ISF_EEEEEaSB8ue170006EOSF_, symObjAddr: 0xF174, symBinAddr: 0x100011E80, symSize: 0x38 }
  - { offsetInCU: 0x40A6C, offset: 0x40A6C, size: 0x8, addend: 0x0, symName: __ZNSt3__120back_insert_iteratorINS_6vectorIN8nlohmann16json_abi_v3_11_310basic_jsonINS3_11ordered_mapES1_NS_12basic_stringIcNS_11char_traitsIcEENS_9allocatorIcEEEEbxydS9_NS3_14adl_serializerENS1_IhNS9_IhEEEEvEENS9_ISF_EEEEEppB8ue170006Ev, symObjAddr: 0xF1AC, symBinAddr: 0x100011EB8, symSize: 0x14 }
  - { offsetInCU: 0x40A92, offset: 0x40A92, size: 0x8, addend: 0x0, symName: __ZNSt3__18_IterOpsINS_17_ClassicAlgPolicyEE25__validate_iter_referenceB8ue170006IRPN8nlohmann16json_abi_v3_11_310basic_jsonINS5_11ordered_mapENS_6vectorENS_12basic_stringIcNS_11char_traitsIcEENS_9allocatorIcEEEEbxydSC_NS5_14adl_serializerENS8_IhNSC_IhEEEEvEEEEvv, symObjAddr: 0xF1F8, symBinAddr: 0x100011F04, symSize: 0x4 }
  - { offsetInCU: 0x40AB6, offset: 0x40AB6, size: 0x8, addend: 0x0, symName: __ZNSt3__14pairIPN8nlohmann16json_abi_v3_11_310basic_jsonINS2_11ordered_mapENS_6vectorENS_12basic_stringIcNS_11char_traitsIcEENS_9allocatorIcEEEEbxydS9_NS2_14adl_serializerENS5_IhNS9_IhEEEEvEENS_20back_insert_iteratorINS5_ISF_NS9_ISF_EEEEEEEC1B8ue170006ISG_SK_LPv0EEEOT_OT0_, symObjAddr: 0xF1FC, symBinAddr: 0x100011F08, symSize: 0x3C }
  - { offsetInCU: 0x40B14, offset: 0x40B14, size: 0x8, addend: 0x0, symName: __ZNSt3__14pairIPN8nlohmann16json_abi_v3_11_310basic_jsonINS2_11ordered_mapENS_6vectorENS_12basic_stringIcNS_11char_traitsIcEENS_9allocatorIcEEEEbxydS9_NS2_14adl_serializerENS5_IhNS9_IhEEEEvEENS_20back_insert_iteratorINS5_ISF_NS9_ISF_EEEEEEEC2B8ue170006ISG_SK_LPv0EEEOT_OT0_, symObjAddr: 0xF238, symBinAddr: 0x100011F44, symSize: 0x34 }
  - { offsetInCU: 0x40B72, offset: 0x40B72, size: 0x8, addend: 0x0, symName: __ZNSt3__118__unwrap_iter_implINS_20back_insert_iteratorINS_6vectorIN8nlohmann16json_abi_v3_11_310basic_jsonINS4_11ordered_mapES2_NS_12basic_stringIcNS_11char_traitsIcEENS_9allocatorIcEEEEbxydSA_NS4_14adl_serializerENS2_IhNSA_IhEEEEvEENSA_ISG_EEEEEELb0EE8__unwrapB8ue170006ESJ_, symObjAddr: 0xF26C, symBinAddr: 0x100011F78, symSize: 0x1C }
  - { offsetInCU: 0x40BB8, offset: 0x40BB8, size: 0x8, addend: 0x0, symName: __ZNSt3__14pairINS_11__wrap_iterIPN8nlohmann16json_abi_v3_11_310basic_jsonINS3_11ordered_mapENS_6vectorENS_12basic_stringIcNS_11char_traitsIcEENS_9allocatorIcEEEEbxydSA_NS3_14adl_serializerENS6_IhNSA_IhEEEEvEEEENS_20back_insert_iteratorINS6_ISG_NSA_ISG_EEEEEEEC1B8ue170006ISI_SM_LPv0EEEOT_OT0_, symObjAddr: 0xF288, symBinAddr: 0x100011F94, symSize: 0x3C }
  - { offsetInCU: 0x40C16, offset: 0x40C16, size: 0x8, addend: 0x0, symName: __ZNSt3__14pairINS_11__wrap_iterIPN8nlohmann16json_abi_v3_11_310basic_jsonINS3_11ordered_mapENS_6vectorENS_12basic_stringIcNS_11char_traitsIcEENS_9allocatorIcEEEEbxydSA_NS3_14adl_serializerENS6_IhNSA_IhEEEEvEEEENS_20back_insert_iteratorINS6_ISG_NSA_ISG_EEEEEEEC2B8ue170006ISI_SM_LPv0EEEOT_OT0_, symObjAddr: 0xF2C4, symBinAddr: 0x100011FD0, symSize: 0x34 }
  - { offsetInCU: 0x40C74, offset: 0x40C74, size: 0x8, addend: 0x0, symName: __ZNSt3__118__unwrap_iter_implINS_11__wrap_iterIPN8nlohmann16json_abi_v3_11_310basic_jsonINS3_11ordered_mapENS_6vectorENS_12basic_stringIcNS_11char_traitsIcEENS_9allocatorIcEEEEbxydSA_NS3_14adl_serializerENS6_IhNSA_IhEEEEvEEEELb1EE8__rewrapB8ue170006ESI_SH_, symObjAddr: 0xF344, symBinAddr: 0x100012050, symSize: 0x5C }
  - { offsetInCU: 0x40CA5, offset: 0x40CA5, size: 0x8, addend: 0x0, symName: __ZNKSt3__111__wrap_iterIPN8nlohmann16json_abi_v3_11_310basic_jsonINS2_11ordered_mapENS_6vectorENS_12basic_stringIcNS_11char_traitsIcEENS_9allocatorIcEEEEbxydS9_NS2_14adl_serializerENS5_IhNS9_IhEEEEvEEEplB8ue170006El, symObjAddr: 0xF3A0, symBinAddr: 0x1000120AC, symSize: 0x3C }
  - { offsetInCU: 0x40CE7, offset: 0x40CE7, size: 0x8, addend: 0x0, symName: __ZNSt3__111__wrap_iterIPN8nlohmann16json_abi_v3_11_310basic_jsonINS2_11ordered_mapENS_6vectorENS_12basic_stringIcNS_11char_traitsIcEENS_9allocatorIcEEEEbxydS9_NS2_14adl_serializerENS5_IhNS9_IhEEEEvEEEpLB8ue170006El, symObjAddr: 0xF3DC, symBinAddr: 0x1000120E8, symSize: 0x28 }
  - { offsetInCU: 0x40D1B, offset: 0x40D1B, size: 0x8, addend: 0x0, symName: __ZNSt3__118__unwrap_iter_implINS_20back_insert_iteratorINS_6vectorIN8nlohmann16json_abi_v3_11_310basic_jsonINS4_11ordered_mapES2_NS_12basic_stringIcNS_11char_traitsIcEENS_9allocatorIcEEEEbxydSA_NS4_14adl_serializerENS2_IhNSA_IhEEEEvEENSA_ISG_EEEEEELb0EE8__rewrapB8ue170006ESJ_SJ_, symObjAddr: 0xF404, symBinAddr: 0x100012110, symSize: 0x20 }
  - { offsetInCU: 0x40D49, offset: 0x40D49, size: 0x8, addend: 0x0, symName: __ZNSt3__16vectorIN8nlohmann16json_abi_v3_11_310basic_jsonINS2_11ordered_mapES0_NS_12basic_stringIcNS_11char_traitsIcEENS_9allocatorIcEEEEbxydS8_NS2_14adl_serializerENS0_IhNS8_IhEEEEvEENS8_ISE_EEE11__make_iterB8ue170006EPSE_, symObjAddr: 0xF424, symBinAddr: 0x100012130, symSize: 0x30 }
  - { offsetInCU: 0x40D7E, offset: 0x40D7E, size: 0x8, addend: 0x0, symName: __ZNSt3__111__wrap_iterIPN8nlohmann16json_abi_v3_11_310basic_jsonINS2_11ordered_mapENS_6vectorENS_12basic_stringIcNS_11char_traitsIcEENS_9allocatorIcEEEEbxydS9_NS2_14adl_serializerENS5_IhNS9_IhEEEEvEEEC1B8ue170006ESG_, symObjAddr: 0xF454, symBinAddr: 0x100012160, symSize: 0x34 }
  - { offsetInCU: 0x40DB6, offset: 0x40DB6, size: 0x8, addend: 0x0, symName: __ZNSt3__111__wrap_iterIPN8nlohmann16json_abi_v3_11_310basic_jsonINS2_11ordered_mapENS_6vectorENS_12basic_stringIcNS_11char_traitsIcEENS_9allocatorIcEEEEbxydS9_NS2_14adl_serializerENS5_IhNS9_IhEEEEvEEEC2B8ue170006ESG_, symObjAddr: 0xF488, symBinAddr: 0x100012194, symSize: 0x20 }
  - { offsetInCU: 0x40DEE, offset: 0x40DEE, size: 0x8, addend: 0x0, symName: __ZNSt3__120back_insert_iteratorINS_6vectorIN8nlohmann16json_abi_v3_11_310basic_jsonINS3_11ordered_mapES1_NS_12basic_stringIcNS_11char_traitsIcEENS_9allocatorIcEEEEbxydS9_NS3_14adl_serializerENS1_IhNS9_IhEEEEvEENS9_ISF_EEEEEC1B8ue170006ERSH_, symObjAddr: 0xF4A8, symBinAddr: 0x1000121B4, symSize: 0x34 }
  - { offsetInCU: 0x40E26, offset: 0x40E26, size: 0x8, addend: 0x0, symName: __ZNSt3__120back_insert_iteratorINS_6vectorIN8nlohmann16json_abi_v3_11_310basic_jsonINS3_11ordered_mapES1_NS_12basic_stringIcNS_11char_traitsIcEENS_9allocatorIcEEEEbxydS9_NS3_14adl_serializerENS1_IhNS9_IhEEEEvEENS9_ISF_EEEEEC2B8ue170006ERSH_, symObjAddr: 0xF4DC, symBinAddr: 0x1000121E8, symSize: 0x20 }
  - { offsetInCU: 0x40E5E, offset: 0x40E5E, size: 0x8, addend: 0x0, symName: __ZNSt3__16vectorINS_4pairIKNS_12basic_stringIcNS_11char_traitsIcEENS_9allocatorIcEEEEN8nlohmann16json_abi_v3_11_310basic_jsonINSA_11ordered_mapES0_S7_bxydS5_NSA_14adl_serializerENS0_IhNS5_IhEEEEvEEEENS5_ISH_EEE11__make_iterB8ue170006EPSH_, symObjAddr: 0xF4FC, symBinAddr: 0x100012208, symSize: 0x30 }
  - { offsetInCU: 0x40E93, offset: 0x40E93, size: 0x8, addend: 0x0, symName: __ZNSt3__111__wrap_iterIPNS_4pairIKNS_12basic_stringIcNS_11char_traitsIcEENS_9allocatorIcEEEEN8nlohmann16json_abi_v3_11_310basic_jsonINSA_11ordered_mapENS_6vectorES7_bxydS5_NSA_14adl_serializerENSD_IhNS5_IhEEEEvEEEEEC1B8ue170006ESJ_, symObjAddr: 0xF52C, symBinAddr: 0x100012238, symSize: 0x34 }
  - { offsetInCU: 0x40ECB, offset: 0x40ECB, size: 0x8, addend: 0x0, symName: __ZNSt3__111__wrap_iterIPNS_4pairIKNS_12basic_stringIcNS_11char_traitsIcEENS_9allocatorIcEEEEN8nlohmann16json_abi_v3_11_310basic_jsonINSA_11ordered_mapENS_6vectorES7_bxydS5_NSA_14adl_serializerENSD_IhNS5_IhEEEEvEEEEEC2B8ue170006ESJ_, symObjAddr: 0xF560, symBinAddr: 0x10001226C, symSize: 0x20 }
  - { offsetInCU: 0x40F03, offset: 0x40F03, size: 0x8, addend: 0x0, symName: __ZNKSt3__111__wrap_iterIPNS_4pairIKNS_12basic_stringIcNS_11char_traitsIcEENS_9allocatorIcEEEEN8nlohmann16json_abi_v3_11_310basic_jsonINSA_11ordered_mapENS_6vectorES7_bxydS5_NSA_14adl_serializerENSD_IhNS5_IhEEEEvEEEEE4baseB8ue170006Ev, symObjAddr: 0xF5C8, symBinAddr: 0x1000122D4, symSize: 0x18 }
  - { offsetInCU: 0x40F29, offset: 0x40F29, size: 0x8, addend: 0x0, symName: __ZNSt3__16vectorIN8nlohmann16json_abi_v3_11_310basic_jsonINS2_11ordered_mapES0_NS_12basic_stringIcNS_11char_traitsIcEENS_9allocatorIcEEEEbxydS8_NS2_14adl_serializerENS0_IhNS8_IhEEEEvEENS8_ISE_EEE22__construct_one_at_endB8ue170006IJSE_EEEvDpOT_, symObjAddr: 0xF5E0, symBinAddr: 0x1000122EC, symSize: 0x90 }
  - { offsetInCU: 0x40F78, offset: 0x40F78, size: 0x8, addend: 0x0, symName: __ZNSt3__16vectorIN8nlohmann16json_abi_v3_11_310basic_jsonINS2_11ordered_mapES0_NS_12basic_stringIcNS_11char_traitsIcEENS_9allocatorIcEEEEbxydS8_NS2_14adl_serializerENS0_IhNS8_IhEEEEvEENS8_ISE_EEE21__push_back_slow_pathISE_EEvOT_, symObjAddr: 0xF670, symBinAddr: 0x10001237C, symSize: 0xD8 }
  - { offsetInCU: 0x40FF3, offset: 0x40FF3, size: 0x8, addend: 0x0, symName: __ZNSt3__16vectorIN8nlohmann16json_abi_v3_11_310basic_jsonINS2_11ordered_mapES0_NS_12basic_stringIcNS_11char_traitsIcEENS_9allocatorIcEEEEbxydS8_NS2_14adl_serializerENS0_IhNS8_IhEEEEvEENS8_ISE_EEE21_ConstructTransactionC1B8ue170006ERSG_m, symObjAddr: 0xF748, symBinAddr: 0x100012454, symSize: 0x3C }
  - { offsetInCU: 0x4103B, offset: 0x4103B, size: 0x8, addend: 0x0, symName: __ZNSt3__16vectorIN8nlohmann16json_abi_v3_11_310basic_jsonINS2_11ordered_mapES0_NS_12basic_stringIcNS_11char_traitsIcEENS_9allocatorIcEEEEbxydS8_NS2_14adl_serializerENS0_IhNS8_IhEEEEvEENS8_ISE_EEE21_ConstructTransactionD1B8ue170006Ev, symObjAddr: 0xF784, symBinAddr: 0x100012490, symSize: 0x2C }
  - { offsetInCU: 0x41065, offset: 0x41065, size: 0x8, addend: 0x0, symName: __ZNSt3__16vectorIN8nlohmann16json_abi_v3_11_310basic_jsonINS2_11ordered_mapES0_NS_12basic_stringIcNS_11char_traitsIcEENS_9allocatorIcEEEEbxydS8_NS2_14adl_serializerENS0_IhNS8_IhEEEEvEENS8_ISE_EEE21_ConstructTransactionC2B8ue170006ERSG_m, symObjAddr: 0xF7B0, symBinAddr: 0x1000124BC, symSize: 0x44 }
  - { offsetInCU: 0x410AD, offset: 0x410AD, size: 0x8, addend: 0x0, symName: __ZNSt3__16vectorIN8nlohmann16json_abi_v3_11_310basic_jsonINS2_11ordered_mapES0_NS_12basic_stringIcNS_11char_traitsIcEENS_9allocatorIcEEEEbxydS8_NS2_14adl_serializerENS0_IhNS8_IhEEEEvEENS8_ISE_EEE21_ConstructTransactionD2B8ue170006Ev, symObjAddr: 0xF7F4, symBinAddr: 0x100012500, symSize: 0x20 }
  - { offsetInCU: 0x410D7, offset: 0x410D7, size: 0x8, addend: 0x0, symName: __ZNKSt3__16vectorIN8nlohmann16json_abi_v3_11_310basic_jsonINS2_11ordered_mapES0_NS_12basic_stringIcNS_11char_traitsIcEENS_9allocatorIcEEEEbxydS8_NS2_14adl_serializerENS0_IhNS8_IhEEEEvEENS8_ISE_EEE11__recommendB8ue170006Em, symObjAddr: 0xF814, symBinAddr: 0x100012520, symSize: 0xB4 }
  - { offsetInCU: 0x4112C, offset: 0x4112C, size: 0x8, addend: 0x0, symName: __ZN8nlohmann16json_abi_v3_11_310basic_jsonINS0_11ordered_mapENSt3__16vectorENS3_12basic_stringIcNS3_11char_traitsIcEENS3_9allocatorIcEEEEbxydS8_NS0_14adl_serializerENS4_IhNS8_IhEEEEvEC2EOSE_, symObjAddr: 0xF8C8, symBinAddr: 0x1000125D4, symSize: 0x80 }
  - { offsetInCU: 0x41165, offset: 0x41165, size: 0x8, addend: 0x0, symName: __ZN8nlohmann16json_abi_v3_11_310basic_jsonINS0_11ordered_mapENSt3__16vectorENS3_12basic_stringIcNS3_11char_traitsIcEENS3_9allocatorIcEEEEbxydS8_NS0_14adl_serializerENS4_IhNS8_IhEEEEvE11set_parentsEv, symObjAddr: 0xF948, symBinAddr: 0x100012654, symSize: 0x10 }
  - { offsetInCU: 0x4118B, offset: 0x4118B, size: 0x8, addend: 0x0, symName: __ZNSt3__16vectorIN8nlohmann16json_abi_v3_11_310basic_jsonINS2_11ordered_mapES0_NS_12basic_stringIcNS_11char_traitsIcEENS_9allocatorIcEEEEbxydS8_NS2_14adl_serializerENS0_IhNS8_IhEEEEvEENS8_ISE_EEE17__destruct_at_endB8ue170006EPSE_, symObjAddr: 0xF958, symBinAddr: 0x100012664, symSize: 0x4C }
  - { offsetInCU: 0x411CF, offset: 0x411CF, size: 0x8, addend: 0x0, symName: __ZNSt3__16vectorIN8nlohmann16json_abi_v3_11_310basic_jsonINS2_11ordered_mapES0_NS_12basic_stringIcNS_11char_traitsIcEENS_9allocatorIcEEEEbxydS8_NS2_14adl_serializerENS0_IhNS8_IhEEEEvEENS8_ISE_EEE22__base_destruct_at_endB8ue170006EPSE_, symObjAddr: 0xF9A4, symBinAddr: 0x1000126B0, symSize: 0x8C }
  - { offsetInCU: 0x41213, offset: 0x41213, size: 0x8, addend: 0x0, symName: __ZNKSt3__16vectorIN8nlohmann16json_abi_v3_11_310basic_jsonINS2_11ordered_mapES0_NS_12basic_stringIcNS_11char_traitsIcEENS_9allocatorIcEEEEbxydS8_NS2_14adl_serializerENS0_IhNS8_IhEEEEvEENS8_ISE_EEE17__annotate_shrinkB8ue170006Em, symObjAddr: 0xFA30, symBinAddr: 0x10001273C, symSize: 0xB4 }
  - { offsetInCU: 0x41248, offset: 0x41248, size: 0x8, addend: 0x0, symName: __ZNSt3__16vectorIN8nlohmann16json_abi_v3_11_310basic_jsonINS2_11ordered_mapES0_NS_12basic_stringIcNS_11char_traitsIcEENS_9allocatorIcEEEEbxydS8_NS2_14adl_serializerENS0_IhNS8_IhEEEEvEENS8_ISE_EEE7__clearB8ue170006Ev, symObjAddr: 0xFAE4, symBinAddr: 0x1000127F0, symSize: 0x28 }
  - { offsetInCU: 0x4126E, offset: 0x4126E, size: 0x8, addend: 0x0, symName: __ZNSt3__16vectorINS_4pairIKNS_12basic_stringIcNS_11char_traitsIcEENS_9allocatorIcEEEEN8nlohmann16json_abi_v3_11_310basic_jsonINSA_11ordered_mapES0_S7_bxydS5_NSA_14adl_serializerENS0_IhNS5_IhEEEEvEEEENS5_ISH_EEE7__clearB8ue170006Ev, symObjAddr: 0xFB0C, symBinAddr: 0x100012818, symSize: 0x28 }
  - { offsetInCU: 0x41294, offset: 0x41294, size: 0x8, addend: 0x0, symName: __ZNKSt3__16vectorINS_4pairIKNS_12basic_stringIcNS_11char_traitsIcEENS_9allocatorIcEEEEN8nlohmann16json_abi_v3_11_310basic_jsonINSA_11ordered_mapES0_S7_bxydS5_NSA_14adl_serializerENS0_IhNS5_IhEEEEvEEEENS5_ISH_EEE17__annotate_shrinkB8ue170006Em, symObjAddr: 0xFB34, symBinAddr: 0x100012840, symSize: 0xD0 }
  - { offsetInCU: 0x412C9, offset: 0x412C9, size: 0x8, addend: 0x0, symName: __ZNSt3__16vectorINS_4pairIKNS_12basic_stringIcNS_11char_traitsIcEENS_9allocatorIcEEEEN8nlohmann16json_abi_v3_11_310basic_jsonINSA_11ordered_mapES0_S7_bxydS5_NSA_14adl_serializerENS0_IhNS5_IhEEEEvEEEENS5_ISH_EEE22__base_destruct_at_endB8ue170006EPSH_, symObjAddr: 0xFC04, symBinAddr: 0x100012910, symSize: 0x8C }
  - { offsetInCU: 0x4130D, offset: 0x4130D, size: 0x8, addend: 0x0, symName: __ZNSt3__116allocator_traitsINS_9allocatorINS_4pairIKNS_12basic_stringIcNS_11char_traitsIcEENS1_IcEEEEN8nlohmann16json_abi_v3_11_310basic_jsonINSA_11ordered_mapENS_6vectorES7_bxydS1_NSA_14adl_serializerENSD_IhNS1_IhEEEEvEEEEEEE7destroyB8ue170006ISI_vEEvRSJ_PT_, symObjAddr: 0xFC90, symBinAddr: 0x10001299C, symSize: 0x2C }
  - { offsetInCU: 0x4134A, offset: 0x4134A, size: 0x8, addend: 0x0, symName: __ZNSt3__16vectorINS_4pairIKNS_12basic_stringIcNS_11char_traitsIcEENS_9allocatorIcEEEEN8nlohmann16json_abi_v3_11_310basic_jsonINSA_11ordered_mapES0_S7_bxydS5_NSA_14adl_serializerENS0_IhNS5_IhEEEEvEEEENS5_ISH_EEE7__allocB8ue170006Ev, symObjAddr: 0xFCBC, symBinAddr: 0x1000129C8, symSize: 0x28 }
  - { offsetInCU: 0x41370, offset: 0x41370, size: 0x8, addend: 0x0, symName: __ZNSt3__19allocatorINS_4pairIKNS_12basic_stringIcNS_11char_traitsIcEENS0_IcEEEEN8nlohmann16json_abi_v3_11_310basic_jsonINS9_11ordered_mapENS_6vectorES6_bxydS0_NS9_14adl_serializerENSC_IhNS0_IhEEEEvEEEEE7destroyB8ue170006EPSH_, symObjAddr: 0xFCF8, symBinAddr: 0x100012A04, symSize: 0x28 }
  - { offsetInCU: 0x413A4, offset: 0x413A4, size: 0x8, addend: 0x0, symName: __ZNSt3__14pairIKNS_12basic_stringIcNS_11char_traitsIcEENS_9allocatorIcEEEEN8nlohmann16json_abi_v3_11_310basic_jsonINS9_11ordered_mapENS_6vectorES6_bxydS4_NS9_14adl_serializerENSC_IhNS4_IhEEEEvEEED1Ev, symObjAddr: 0xFD20, symBinAddr: 0x100012A2C, symSize: 0x2C }
  - { offsetInCU: 0x413D0, offset: 0x413D0, size: 0x8, addend: 0x0, symName: __ZNSt3__14pairIKNS_12basic_stringIcNS_11char_traitsIcEENS_9allocatorIcEEEEN8nlohmann16json_abi_v3_11_310basic_jsonINS9_11ordered_mapENS_6vectorES6_bxydS4_NS9_14adl_serializerENSC_IhNS4_IhEEEEvEEED2Ev, symObjAddr: 0xFD4C, symBinAddr: 0x100012A58, symSize: 0x38 }
  - { offsetInCU: 0x413FC, offset: 0x413FC, size: 0x8, addend: 0x0, symName: __ZNSt3__117__compressed_pairIPNS_4pairIKNS_12basic_stringIcNS_11char_traitsIcEENS_9allocatorIcEEEEN8nlohmann16json_abi_v3_11_310basic_jsonINSA_11ordered_mapENS_6vectorES7_bxydS5_NSA_14adl_serializerENSD_IhNS5_IhEEEEvEEEENS5_ISI_EEE6secondB8ue170006Ev, symObjAddr: 0xFD84, symBinAddr: 0x100012A90, symSize: 0x24 }
  - { offsetInCU: 0x41422, offset: 0x41422, size: 0x8, addend: 0x0, symName: __ZNSt3__122__compressed_pair_elemINS_9allocatorINS_4pairIKNS_12basic_stringIcNS_11char_traitsIcEENS1_IcEEEEN8nlohmann16json_abi_v3_11_310basic_jsonINSA_11ordered_mapENS_6vectorES7_bxydS1_NSA_14adl_serializerENSD_IhNS1_IhEEEEvEEEEEELi1ELb1EE5__getB8ue170006Ev, symObjAddr: 0xFDA8, symBinAddr: 0x100012AB4, symSize: 0x14 }
  - { offsetInCU: 0x41448, offset: 0x41448, size: 0x8, addend: 0x0, symName: __ZNKSt3__16vectorINS_4pairIKNS_12basic_stringIcNS_11char_traitsIcEENS_9allocatorIcEEEEN8nlohmann16json_abi_v3_11_310basic_jsonINSA_11ordered_mapES0_S7_bxydS5_NSA_14adl_serializerENS0_IhNS5_IhEEEEvEEEENS5_ISH_EEE31__annotate_contiguous_containerB8ue170006EPKvSL_SL_SL_, symObjAddr: 0xFDBC, symBinAddr: 0x100012AC8, symSize: 0x20 }
  - { offsetInCU: 0x4149E, offset: 0x4149E, size: 0x8, addend: 0x0, symName: __ZNKSt3__16vectorINS_4pairIKNS_12basic_stringIcNS_11char_traitsIcEENS_9allocatorIcEEEEN8nlohmann16json_abi_v3_11_310basic_jsonINSA_11ordered_mapES0_S7_bxydS5_NSA_14adl_serializerENS0_IhNS5_IhEEEEvEEEENS5_ISH_EEE4dataB8ue170006Ev, symObjAddr: 0xFDDC, symBinAddr: 0x100012AE8, symSize: 0x28 }
  - { offsetInCU: 0x414C4, offset: 0x414C4, size: 0x8, addend: 0x0, symName: __ZNKSt3__16vectorINS_4pairIKNS_12basic_stringIcNS_11char_traitsIcEENS_9allocatorIcEEEEN8nlohmann16json_abi_v3_11_310basic_jsonINSA_11ordered_mapES0_S7_bxydS5_NSA_14adl_serializerENS0_IhNS5_IhEEEEvEEEENS5_ISH_EEE8capacityB8ue170006Ev, symObjAddr: 0xFE04, symBinAddr: 0x100012B10, symSize: 0x40 }
  - { offsetInCU: 0x414EA, offset: 0x414EA, size: 0x8, addend: 0x0, symName: __ZNKSt3__16vectorINS_4pairIKNS_12basic_stringIcNS_11char_traitsIcEENS_9allocatorIcEEEEN8nlohmann16json_abi_v3_11_310basic_jsonINSA_11ordered_mapES0_S7_bxydS5_NSA_14adl_serializerENS0_IhNS5_IhEEEEvEEEENS5_ISH_EEE9__end_capB8ue170006Ev, symObjAddr: 0xFE44, symBinAddr: 0x100012B50, symSize: 0x28 }
  - { offsetInCU: 0x41510, offset: 0x41510, size: 0x8, addend: 0x0, symName: __ZNKSt3__117__compressed_pairIPNS_4pairIKNS_12basic_stringIcNS_11char_traitsIcEENS_9allocatorIcEEEEN8nlohmann16json_abi_v3_11_310basic_jsonINSA_11ordered_mapENS_6vectorES7_bxydS5_NSA_14adl_serializerENSD_IhNS5_IhEEEEvEEEENS5_ISI_EEE5firstB8ue170006Ev, symObjAddr: 0xFE6C, symBinAddr: 0x100012B78, symSize: 0x24 }
  - { offsetInCU: 0x41536, offset: 0x41536, size: 0x8, addend: 0x0, symName: __ZNKSt3__122__compressed_pair_elemIPNS_4pairIKNS_12basic_stringIcNS_11char_traitsIcEENS_9allocatorIcEEEEN8nlohmann16json_abi_v3_11_310basic_jsonINSA_11ordered_mapENS_6vectorES7_bxydS5_NSA_14adl_serializerENSD_IhNS5_IhEEEEvEEEELi0ELb0EE5__getB8ue170006Ev, symObjAddr: 0xFE90, symBinAddr: 0x100012B9C, symSize: 0x14 }
  - { offsetInCU: 0x4155C, offset: 0x4155C, size: 0x8, addend: 0x0, symName: __ZNSt3__16vectorIN8nlohmann16json_abi_v3_11_310basic_jsonINS2_11ordered_mapES0_NS_12basic_stringIcNS_11char_traitsIcEENS_9allocatorIcEEEEbxydS8_NS2_14adl_serializerENS0_IhNS8_IhEEEEvEENS8_ISE_EEED2B8ue170006Ev, symObjAddr: 0xFEA4, symBinAddr: 0x100012BB0, symSize: 0x44 }
  - { offsetInCU: 0x41586, offset: 0x41586, size: 0x8, addend: 0x0, symName: __ZNSt3__16vectorIN8nlohmann16json_abi_v3_11_310basic_jsonINS2_11ordered_mapES0_NS_12basic_stringIcNS_11char_traitsIcEENS_9allocatorIcEEEEbxydS8_NS2_14adl_serializerENS0_IhNS8_IhEEEEvEENS8_ISE_EEE16__destroy_vectorC1B8ue170006ERSG_, symObjAddr: 0xFEE8, symBinAddr: 0x100012BF4, symSize: 0x34 }
  - { offsetInCU: 0x415BF, offset: 0x415BF, size: 0x8, addend: 0x0, symName: __ZNSt3__16vectorIN8nlohmann16json_abi_v3_11_310basic_jsonINS2_11ordered_mapES0_NS_12basic_stringIcNS_11char_traitsIcEENS_9allocatorIcEEEEbxydS8_NS2_14adl_serializerENS0_IhNS8_IhEEEEvEENS8_ISE_EEE16__destroy_vectorclB8ue170006Ev, symObjAddr: 0xFF1C, symBinAddr: 0x100012C28, symSize: 0x90 }
  - { offsetInCU: 0x415E5, offset: 0x415E5, size: 0x8, addend: 0x0, symName: __ZNSt3__16vectorIN8nlohmann16json_abi_v3_11_310basic_jsonINS2_11ordered_mapES0_NS_12basic_stringIcNS_11char_traitsIcEENS_9allocatorIcEEEEbxydS8_NS2_14adl_serializerENS0_IhNS8_IhEEEEvEENS8_ISE_EEE16__destroy_vectorC2B8ue170006ERSG_, symObjAddr: 0xFFAC, symBinAddr: 0x100012CB8, symSize: 0x20 }
  - { offsetInCU: 0x4161E, offset: 0x4161E, size: 0x8, addend: 0x0, symName: __ZNSt3__19allocatorIN8nlohmann16json_abi_v3_11_311ordered_mapINS_12basic_stringIcNS_11char_traitsIcEENS0_IcEEEENS2_10basic_jsonIS3_NS_6vectorES8_bxydS0_NS2_14adl_serializerENSA_IhNS0_IhEEEEvEENS_4lessIvEENS0_INS_4pairIKS8_SE_EEEEEEE7destroyB8ue170006EPSL_, symObjAddr: 0xFFCC, symBinAddr: 0x100012CD8, symSize: 0x28 }
  - { offsetInCU: 0x41652, offset: 0x41652, size: 0x8, addend: 0x0, symName: __ZN8nlohmann16json_abi_v3_11_311ordered_mapINSt3__112basic_stringIcNS2_11char_traitsIcEENS2_9allocatorIcEEEENS0_10basic_jsonIS1_NS2_6vectorES8_bxydS6_NS0_14adl_serializerENSA_IhNS6_IhEEEEvEENS2_4lessIvEENS6_INS2_4pairIKS8_SE_EEEEED1Ev, symObjAddr: 0xFFF4, symBinAddr: 0x100012D00, symSize: 0x2C }
  - { offsetInCU: 0x4167F, offset: 0x4167F, size: 0x8, addend: 0x0, symName: __ZN8nlohmann16json_abi_v3_11_311ordered_mapINSt3__112basic_stringIcNS2_11char_traitsIcEENS2_9allocatorIcEEEENS0_10basic_jsonIS1_NS2_6vectorES8_bxydS6_NS0_14adl_serializerENSA_IhNS6_IhEEEEvEENS2_4lessIvEENS6_INS2_4pairIKS8_SE_EEEEED2Ev, symObjAddr: 0x10020, symBinAddr: 0x100012D2C, symSize: 0x2C }
  - { offsetInCU: 0x416AC, offset: 0x416AC, size: 0x8, addend: 0x0, symName: __ZNSt3__16vectorINS_4pairIKNS_12basic_stringIcNS_11char_traitsIcEENS_9allocatorIcEEEEN8nlohmann16json_abi_v3_11_310basic_jsonINSA_11ordered_mapES0_S7_bxydS5_NSA_14adl_serializerENS0_IhNS5_IhEEEEvEEEENS5_ISH_EEED2B8ue170006Ev, symObjAddr: 0x1004C, symBinAddr: 0x100012D58, symSize: 0x44 }
  - { offsetInCU: 0x416D6, offset: 0x416D6, size: 0x8, addend: 0x0, symName: __ZNSt3__16vectorINS_4pairIKNS_12basic_stringIcNS_11char_traitsIcEENS_9allocatorIcEEEEN8nlohmann16json_abi_v3_11_310basic_jsonINSA_11ordered_mapES0_S7_bxydS5_NSA_14adl_serializerENS0_IhNS5_IhEEEEvEEEENS5_ISH_EEE16__destroy_vectorC1B8ue170006ERSJ_, symObjAddr: 0x10090, symBinAddr: 0x100012D9C, symSize: 0x34 }
  - { offsetInCU: 0x4170F, offset: 0x4170F, size: 0x8, addend: 0x0, symName: __ZNSt3__16vectorINS_4pairIKNS_12basic_stringIcNS_11char_traitsIcEENS_9allocatorIcEEEEN8nlohmann16json_abi_v3_11_310basic_jsonINSA_11ordered_mapES0_S7_bxydS5_NSA_14adl_serializerENS0_IhNS5_IhEEEEvEEEENS5_ISH_EEE16__destroy_vectorclB8ue170006Ev, symObjAddr: 0x100C4, symBinAddr: 0x100012DD0, symSize: 0x90 }
  - { offsetInCU: 0x41735, offset: 0x41735, size: 0x8, addend: 0x0, symName: __ZNSt3__16vectorINS_4pairIKNS_12basic_stringIcNS_11char_traitsIcEENS_9allocatorIcEEEEN8nlohmann16json_abi_v3_11_310basic_jsonINSA_11ordered_mapES0_S7_bxydS5_NSA_14adl_serializerENS0_IhNS5_IhEEEEvEEEENS5_ISH_EEE16__destroy_vectorC2B8ue170006ERSJ_, symObjAddr: 0x10154, symBinAddr: 0x100012E60, symSize: 0x20 }
  - { offsetInCU: 0x4176E, offset: 0x4176E, size: 0x8, addend: 0x0, symName: __ZNKSt3__16vectorINS_4pairIKNS_12basic_stringIcNS_11char_traitsIcEENS_9allocatorIcEEEEN8nlohmann16json_abi_v3_11_310basic_jsonINSA_11ordered_mapES0_S7_bxydS5_NSA_14adl_serializerENS0_IhNS5_IhEEEEvEEEENS5_ISH_EEE17__annotate_deleteB8ue170006Ev, symObjAddr: 0x10174, symBinAddr: 0x100012E80, symSize: 0xD4 }
  - { offsetInCU: 0x41794, offset: 0x41794, size: 0x8, addend: 0x0, symName: __ZNSt3__116allocator_traitsINS_9allocatorINS_4pairIKNS_12basic_stringIcNS_11char_traitsIcEENS1_IcEEEEN8nlohmann16json_abi_v3_11_310basic_jsonINSA_11ordered_mapENS_6vectorES7_bxydS1_NSA_14adl_serializerENSD_IhNS1_IhEEEEvEEEEEEE10deallocateB8ue170006ERSJ_PSI_m, symObjAddr: 0x10248, symBinAddr: 0x100012F54, symSize: 0x34 }
  - { offsetInCU: 0x417D6, offset: 0x417D6, size: 0x8, addend: 0x0, symName: __ZNSt3__19allocatorINS_4pairIKNS_12basic_stringIcNS_11char_traitsIcEENS0_IcEEEEN8nlohmann16json_abi_v3_11_310basic_jsonINS9_11ordered_mapENS_6vectorES6_bxydS0_NS9_14adl_serializerENSC_IhNS0_IhEEEEvEEEEE10deallocateB8ue170006EPSH_m, symObjAddr: 0x1027C, symBinAddr: 0x100012F88, symSize: 0x44 }
  - { offsetInCU: 0x41818, offset: 0x41818, size: 0x8, addend: 0x0, symName: __ZNSt3__19allocatorINS_6vectorIN8nlohmann16json_abi_v3_11_310basic_jsonINS3_11ordered_mapES1_NS_12basic_stringIcNS_11char_traitsIcEENS0_IcEEEEbxydS0_NS3_14adl_serializerENS1_IhNS0_IhEEEEvEENS0_ISE_EEEEE7destroyB8ue170006EPSG_, symObjAddr: 0x102C0, symBinAddr: 0x100012FCC, symSize: 0x28 }
  - { offsetInCU: 0x4184C, offset: 0x4184C, size: 0x8, addend: 0x0, symName: __ZNSt3__19allocatorINS_12basic_stringIcNS_11char_traitsIcEENS0_IcEEEEE7destroyB8ue170006EPS5_, symObjAddr: 0x102E8, symBinAddr: 0x100012FF4, symSize: 0x28 }
  - { offsetInCU: 0x41880, offset: 0x41880, size: 0x8, addend: 0x0, symName: __ZNSt3__19allocatorIN8nlohmann16json_abi_v3_11_327byte_container_with_subtypeINS_6vectorIhNS0_IhEEEEEEE7destroyB8ue170006EPS7_, symObjAddr: 0x10310, symBinAddr: 0x10001301C, symSize: 0x28 }
  - { offsetInCU: 0x418B4, offset: 0x418B4, size: 0x8, addend: 0x0, symName: __ZN8nlohmann16json_abi_v3_11_327byte_container_with_subtypeINSt3__16vectorIhNS2_9allocatorIhEEEEED1Ev, symObjAddr: 0x10338, symBinAddr: 0x100013044, symSize: 0x2C }
  - { offsetInCU: 0x418E1, offset: 0x418E1, size: 0x8, addend: 0x0, symName: __ZN8nlohmann16json_abi_v3_11_327byte_container_with_subtypeINSt3__16vectorIhNS2_9allocatorIhEEEEED2Ev, symObjAddr: 0x10364, symBinAddr: 0x100013070, symSize: 0x2C }
  - { offsetInCU: 0x4190E, offset: 0x4190E, size: 0x8, addend: 0x0, symName: __ZNSt3__16vectorIhNS_9allocatorIhEEED2B8ue170006Ev, symObjAddr: 0x10390, symBinAddr: 0x10001309C, symSize: 0x44 }
  - { offsetInCU: 0x41938, offset: 0x41938, size: 0x8, addend: 0x0, symName: __ZNSt3__16vectorIhNS_9allocatorIhEEE16__destroy_vectorC1B8ue170006ERS3_, symObjAddr: 0x103D4, symBinAddr: 0x1000130E0, symSize: 0x34 }
  - { offsetInCU: 0x41971, offset: 0x41971, size: 0x8, addend: 0x0, symName: __ZNSt3__16vectorIhNS_9allocatorIhEEE16__destroy_vectorclB8ue170006Ev, symObjAddr: 0x10408, symBinAddr: 0x100013114, symSize: 0x90 }
  - { offsetInCU: 0x41997, offset: 0x41997, size: 0x8, addend: 0x0, symName: __ZNSt3__16vectorIhNS_9allocatorIhEEE16__destroy_vectorC2B8ue170006ERS3_, symObjAddr: 0x10498, symBinAddr: 0x1000131A4, symSize: 0x20 }
  - { offsetInCU: 0x419D0, offset: 0x419D0, size: 0x8, addend: 0x0, symName: __ZNSt3__16vectorIhNS_9allocatorIhEEE7__clearB8ue170006Ev, symObjAddr: 0x104B8, symBinAddr: 0x1000131C4, symSize: 0x28 }
  - { offsetInCU: 0x419F6, offset: 0x419F6, size: 0x8, addend: 0x0, symName: __ZNKSt3__16vectorIhNS_9allocatorIhEEE17__annotate_deleteB8ue170006Ev, symObjAddr: 0x104E0, symBinAddr: 0x1000131EC, symSize: 0xB8 }
  - { offsetInCU: 0x41A1C, offset: 0x41A1C, size: 0x8, addend: 0x0, symName: __ZNSt3__116allocator_traitsINS_9allocatorIhEEE10deallocateB8ue170006ERS2_Phm, symObjAddr: 0x10598, symBinAddr: 0x1000132A4, symSize: 0x34 }
  - { offsetInCU: 0x41A5E, offset: 0x41A5E, size: 0x8, addend: 0x0, symName: __ZNSt3__16vectorIhNS_9allocatorIhEEE7__allocB8ue170006Ev, symObjAddr: 0x105CC, symBinAddr: 0x1000132D8, symSize: 0x28 }
  - { offsetInCU: 0x41A84, offset: 0x41A84, size: 0x8, addend: 0x0, symName: __ZNKSt3__16vectorIhNS_9allocatorIhEEE8capacityB8ue170006Ev, symObjAddr: 0x105F4, symBinAddr: 0x100013300, symSize: 0x38 }
  - { offsetInCU: 0x41AAA, offset: 0x41AAA, size: 0x8, addend: 0x0, symName: __ZNSt3__16vectorIhNS_9allocatorIhEEE22__base_destruct_at_endB8ue170006EPh, symObjAddr: 0x1062C, symBinAddr: 0x100013338, symSize: 0x8C }
  - { offsetInCU: 0x41AEE, offset: 0x41AEE, size: 0x8, addend: 0x0, symName: __ZNSt3__116allocator_traitsINS_9allocatorIhEEE7destroyB8ue170006IhvEEvRS2_PT_, symObjAddr: 0x106B8, symBinAddr: 0x1000133C4, symSize: 0x2C }
  - { offsetInCU: 0x41B2B, offset: 0x41B2B, size: 0x8, addend: 0x0, symName: __ZNSt3__19allocatorIhE7destroyB8ue170006EPh, symObjAddr: 0x106F8, symBinAddr: 0x100013404, symSize: 0x14 }
  - { offsetInCU: 0x41B5F, offset: 0x41B5F, size: 0x8, addend: 0x0, symName: __ZNKSt3__16vectorIhNS_9allocatorIhEEE31__annotate_contiguous_containerB8ue170006EPKvS5_S5_S5_, symObjAddr: 0x1070C, symBinAddr: 0x100013418, symSize: 0x20 }
  - { offsetInCU: 0x41BB5, offset: 0x41BB5, size: 0x8, addend: 0x0, symName: __ZNKSt3__16vectorIhNS_9allocatorIhEEE4dataB8ue170006Ev, symObjAddr: 0x1072C, symBinAddr: 0x100013438, symSize: 0x28 }
  - { offsetInCU: 0x41BDB, offset: 0x41BDB, size: 0x8, addend: 0x0, symName: __ZNKSt3__16vectorIhNS_9allocatorIhEEE4sizeB8ue170006Ev, symObjAddr: 0x10754, symBinAddr: 0x100013460, symSize: 0x20 }
  - { offsetInCU: 0x41C01, offset: 0x41C01, size: 0x8, addend: 0x0, symName: __ZNSt3__19allocatorIhE10deallocateB8ue170006EPhm, symObjAddr: 0x10774, symBinAddr: 0x100013480, symSize: 0x40 }
  - { offsetInCU: 0x41C43, offset: 0x41C43, size: 0x8, addend: 0x0, symName: __ZNSt3__117__compressed_pairIPhNS_9allocatorIhEEE6secondB8ue170006Ev, symObjAddr: 0x107B4, symBinAddr: 0x1000134C0, symSize: 0x24 }
  - { offsetInCU: 0x41C69, offset: 0x41C69, size: 0x8, addend: 0x0, symName: __ZNSt3__122__compressed_pair_elemINS_9allocatorIhEELi1ELb1EE5__getB8ue170006Ev, symObjAddr: 0x107D8, symBinAddr: 0x1000134E4, symSize: 0x14 }
  - { offsetInCU: 0x41C8F, offset: 0x41C8F, size: 0x8, addend: 0x0, symName: __ZNKSt3__16vectorIhNS_9allocatorIhEEE9__end_capB8ue170006Ev, symObjAddr: 0x107EC, symBinAddr: 0x1000134F8, symSize: 0x28 }
  - { offsetInCU: 0x41CB5, offset: 0x41CB5, size: 0x8, addend: 0x0, symName: __ZNKSt3__117__compressed_pairIPhNS_9allocatorIhEEE5firstB8ue170006Ev, symObjAddr: 0x10814, symBinAddr: 0x100013520, symSize: 0x24 }
  - { offsetInCU: 0x41CDB, offset: 0x41CDB, size: 0x8, addend: 0x0, symName: __ZNKSt3__122__compressed_pair_elemIPhLi0ELb0EE5__getB8ue170006Ev, symObjAddr: 0x10838, symBinAddr: 0x100013544, symSize: 0x14 }
  - { offsetInCU: 0x41D01, offset: 0x41D01, size: 0x8, addend: 0x0, symName: __ZN8nlohmann16json_abi_v3_11_310basic_jsonINS0_11ordered_mapENSt3__16vectorENS3_12basic_stringIcNS3_11char_traitsIcEENS3_9allocatorIcEEEEbxydS8_NS0_14adl_serializerENS4_IhNS8_IhEEEEvEixESA_, symObjAddr: 0x1084C, symBinAddr: 0x100013558, symSize: 0x1D8 }
  - { offsetInCU: 0x41D4C, offset: 0x41D4C, size: 0x8, addend: 0x0, symName: __ZNK8nlohmann16json_abi_v3_11_310basic_jsonINS0_11ordered_mapENSt3__16vectorENS3_12basic_stringIcNS3_11char_traitsIcEENS3_9allocatorIcEEEEbxydS8_NS0_14adl_serializerENS4_IhNS8_IhEEEEvE7is_nullEv, symObjAddr: 0x10A24, symBinAddr: 0x100013730, symSize: 0x24 }
  - { offsetInCU: 0x41D72, offset: 0x41D72, size: 0x8, addend: 0x0, symName: __ZN8nlohmann16json_abi_v3_11_311ordered_mapINSt3__112basic_stringIcNS2_11char_traitsIcEENS2_9allocatorIcEEEENS0_10basic_jsonIS1_NS2_6vectorES8_bxydS6_NS0_14adl_serializerENSA_IhNS6_IhEEEEvEENS2_4lessIvEENS6_INS2_4pairIKS8_SE_EEEEE7emplaceERSI_OSE_, symObjAddr: 0x10A48, symBinAddr: 0x100013754, symSize: 0xFC }
  - { offsetInCU: 0x41DD3, offset: 0x41DD3, size: 0x8, addend: 0x0, symName: __ZN8nlohmann16json_abi_v3_11_310basic_jsonINS0_11ordered_mapENSt3__16vectorENS3_12basic_stringIcNS3_11char_traitsIcEENS3_9allocatorIcEEEEbxydS8_NS0_14adl_serializerENS4_IhNS8_IhEEEEvE10set_parentERSE_m, symObjAddr: 0x10B44, symBinAddr: 0x100013850, symSize: 0x1C }
  - { offsetInCU: 0x41E17, offset: 0x41E17, size: 0x8, addend: 0x0, symName: __ZNKSt3__111__wrap_iterIPNS_4pairIKNS_12basic_stringIcNS_11char_traitsIcEENS_9allocatorIcEEEEN8nlohmann16json_abi_v3_11_310basic_jsonINSA_11ordered_mapENS_6vectorES7_bxydS5_NSA_14adl_serializerENSD_IhNS5_IhEEEEvEEEEEptB8ue170006Ev, symObjAddr: 0x10B60, symBinAddr: 0x10001386C, symSize: 0x28 }
  - { offsetInCU: 0x41E42, offset: 0x41E42, size: 0x8, addend: 0x0, symName: __ZN8nlohmann16json_abi_v3_11_36detail10type_error6createIPNS0_10basic_jsonINS0_11ordered_mapENSt3__16vectorENS6_12basic_stringIcNS6_11char_traitsIcEENS6_9allocatorIcEEEEbxydSB_NS0_14adl_serializerENS7_IhNSB_IhEEEEvEELi0EEES2_iRKSD_T_, symObjAddr: 0x10B88, symBinAddr: 0x100013894, symSize: 0x130 }
  - { offsetInCU: 0x41EA2, offset: 0x41EA2, size: 0x8, addend: 0x0, symName: __ZNK8nlohmann16json_abi_v3_11_310basic_jsonINS0_11ordered_mapENSt3__16vectorENS3_12basic_stringIcNS3_11char_traitsIcEENS3_9allocatorIcEEEEbxydS8_NS0_14adl_serializerENS4_IhNS8_IhEEEEvE9type_nameEv, symObjAddr: 0x10D84, symBinAddr: 0x100013A90, symSize: 0xD8 }
  - { offsetInCU: 0x41EC8, offset: 0x41EC8, size: 0x8, addend: 0x0, symName: __ZN8nlohmann16json_abi_v3_11_36detail10type_errorD1Ev, symObjAddr: 0x10E84, symBinAddr: 0x100013B90, symSize: 0x2C }
  - { offsetInCU: 0x41F00, offset: 0x41F00, size: 0x8, addend: 0x0, symName: __ZNKSt3__18equal_toIvEclB8ue170006IRKNS_12basic_stringIcNS_11char_traitsIcEENS_9allocatorIcEEEESA_EEDTeqclsr3stdE7forwardIT_Efp_Eclsr3stdE7forwardIT0_Efp0_EEOSB_OSC_, symObjAddr: 0x10EB0, symBinAddr: 0x100013BBC, symSize: 0x34 }
  - { offsetInCU: 0x41F5C, offset: 0x41F5C, size: 0x8, addend: 0x0, symName: __ZNSt3__14pairINS_11__wrap_iterIPNS0_IKNS_12basic_stringIcNS_11char_traitsIcEENS_9allocatorIcEEEEN8nlohmann16json_abi_v3_11_310basic_jsonINSA_11ordered_mapENS_6vectorES7_bxydS5_NSA_14adl_serializerENSD_IhNS5_IhEEEEvEEEEEEbEC1B8ue170006IRSK_bLPv0EEEOT_OT0_, symObjAddr: 0x10EE4, symBinAddr: 0x100013BF0, symSize: 0x3C }
  - { offsetInCU: 0x41FBA, offset: 0x41FBA, size: 0x8, addend: 0x0, symName: __ZNSt3__16vectorINS_4pairIKNS_12basic_stringIcNS_11char_traitsIcEENS_9allocatorIcEEEEN8nlohmann16json_abi_v3_11_310basic_jsonINSA_11ordered_mapES0_S7_bxydS5_NSA_14adl_serializerENS0_IhNS5_IhEEEEvEEEENS5_ISH_EEE12emplace_backIJRS8_SG_EEERSH_DpOT_, symObjAddr: 0x10F20, symBinAddr: 0x100013C2C, symSize: 0x80 }
  - { offsetInCU: 0x42016, offset: 0x42016, size: 0x8, addend: 0x0, symName: __ZNSt3__14pairINS_11__wrap_iterIPNS0_IKNS_12basic_stringIcNS_11char_traitsIcEENS_9allocatorIcEEEEN8nlohmann16json_abi_v3_11_310basic_jsonINSA_11ordered_mapENS_6vectorES7_bxydS5_NSA_14adl_serializerENSD_IhNS5_IhEEEEvEEEEEEbEC1B8ue170006ISK_bLPv0EEEOT_OT0_, symObjAddr: 0x10FE4, symBinAddr: 0x100013CF0, symSize: 0x3C }
  - { offsetInCU: 0x42074, offset: 0x42074, size: 0x8, addend: 0x0, symName: __ZNSt3__111char_traitsIcE7compareB8ue170006EPKcS3_m, symObjAddr: 0x11168, symBinAddr: 0x100013E74, symSize: 0x34 }
  - { offsetInCU: 0x420B3, offset: 0x420B3, size: 0x8, addend: 0x0, symName: __ZNSt3__14pairINS_11__wrap_iterIPNS0_IKNS_12basic_stringIcNS_11char_traitsIcEENS_9allocatorIcEEEEN8nlohmann16json_abi_v3_11_310basic_jsonINSA_11ordered_mapENS_6vectorES7_bxydS5_NSA_14adl_serializerENSD_IhNS5_IhEEEEvEEEEEEbEC2B8ue170006IRSK_bLPv0EEEOT_OT0_, symObjAddr: 0x1119C, symBinAddr: 0x100013EA8, symSize: 0x38 }
  - { offsetInCU: 0x42111, offset: 0x42111, size: 0x8, addend: 0x0, symName: __ZNSt3__16vectorINS_4pairIKNS_12basic_stringIcNS_11char_traitsIcEENS_9allocatorIcEEEEN8nlohmann16json_abi_v3_11_310basic_jsonINSA_11ordered_mapES0_S7_bxydS5_NSA_14adl_serializerENS0_IhNS5_IhEEEEvEEEENS5_ISH_EEE9__end_capB8ue170006Ev, symObjAddr: 0x111D4, symBinAddr: 0x100013EE0, symSize: 0x28 }
  - { offsetInCU: 0x42137, offset: 0x42137, size: 0x8, addend: 0x0, symName: __ZNSt3__16vectorINS_4pairIKNS_12basic_stringIcNS_11char_traitsIcEENS_9allocatorIcEEEEN8nlohmann16json_abi_v3_11_310basic_jsonINSA_11ordered_mapES0_S7_bxydS5_NSA_14adl_serializerENS0_IhNS5_IhEEEEvEEEENS5_ISH_EEE22__construct_one_at_endB8ue170006IJRS8_SG_EEEvDpOT_, symObjAddr: 0x111FC, symBinAddr: 0x100013F08, symSize: 0x98 }
  - { offsetInCU: 0x4219A, offset: 0x4219A, size: 0x8, addend: 0x0, symName: __ZNSt3__16vectorINS_4pairIKNS_12basic_stringIcNS_11char_traitsIcEENS_9allocatorIcEEEEN8nlohmann16json_abi_v3_11_310basic_jsonINSA_11ordered_mapES0_S7_bxydS5_NSA_14adl_serializerENS0_IhNS5_IhEEEEvEEEENS5_ISH_EEE24__emplace_back_slow_pathIJRS8_SG_EEEvDpOT_, symObjAddr: 0x11294, symBinAddr: 0x100013FA0, symSize: 0xE0 }
  - { offsetInCU: 0x4220E, offset: 0x4220E, size: 0x8, addend: 0x0, symName: __ZNSt3__16vectorINS_4pairIKNS_12basic_stringIcNS_11char_traitsIcEENS_9allocatorIcEEEEN8nlohmann16json_abi_v3_11_310basic_jsonINSA_11ordered_mapES0_S7_bxydS5_NSA_14adl_serializerENS0_IhNS5_IhEEEEvEEEENS5_ISH_EEE4backB8ue170006Ev, symObjAddr: 0x11374, symBinAddr: 0x100014080, symSize: 0x1C }
  - { offsetInCU: 0x42234, offset: 0x42234, size: 0x8, addend: 0x0, symName: __ZNSt3__117__compressed_pairIPNS_4pairIKNS_12basic_stringIcNS_11char_traitsIcEENS_9allocatorIcEEEEN8nlohmann16json_abi_v3_11_310basic_jsonINSA_11ordered_mapENS_6vectorES7_bxydS5_NSA_14adl_serializerENSD_IhNS5_IhEEEEvEEEENS5_ISI_EEE5firstB8ue170006Ev, symObjAddr: 0x11390, symBinAddr: 0x10001409C, symSize: 0x24 }
  - { offsetInCU: 0x4225A, offset: 0x4225A, size: 0x8, addend: 0x0, symName: __ZNSt3__122__compressed_pair_elemIPNS_4pairIKNS_12basic_stringIcNS_11char_traitsIcEENS_9allocatorIcEEEEN8nlohmann16json_abi_v3_11_310basic_jsonINSA_11ordered_mapENS_6vectorES7_bxydS5_NSA_14adl_serializerENSD_IhNS5_IhEEEEvEEEELi0ELb0EE5__getB8ue170006Ev, symObjAddr: 0x113B4, symBinAddr: 0x1000140C0, symSize: 0x14 }
  - { offsetInCU: 0x4229D, offset: 0x4229D, size: 0x8, addend: 0x0, symName: __ZNSt3__16vectorINS_4pairIKNS_12basic_stringIcNS_11char_traitsIcEENS_9allocatorIcEEEEN8nlohmann16json_abi_v3_11_310basic_jsonINSA_11ordered_mapES0_S7_bxydS5_NSA_14adl_serializerENS0_IhNS5_IhEEEEvEEEENS5_ISH_EEE21_ConstructTransactionC1B8ue170006ERSJ_m, symObjAddr: 0x113C8, symBinAddr: 0x1000140D4, symSize: 0x3C }
  - { offsetInCU: 0x422E5, offset: 0x422E5, size: 0x8, addend: 0x0, symName: __ZNSt3__116allocator_traitsINS_9allocatorINS_4pairIKNS_12basic_stringIcNS_11char_traitsIcEENS1_IcEEEEN8nlohmann16json_abi_v3_11_310basic_jsonINSA_11ordered_mapENS_6vectorES7_bxydS1_NSA_14adl_serializerENSD_IhNS1_IhEEEEvEEEEEEE9constructB8ue170006ISI_JRS8_SH_EvEEvRSJ_PT_DpOT0_, symObjAddr: 0x11404, symBinAddr: 0x100014110, symSize: 0x3C }
  - { offsetInCU: 0x42350, offset: 0x42350, size: 0x8, addend: 0x0, symName: __ZNSt3__16vectorINS_4pairIKNS_12basic_stringIcNS_11char_traitsIcEENS_9allocatorIcEEEEN8nlohmann16json_abi_v3_11_310basic_jsonINSA_11ordered_mapES0_S7_bxydS5_NSA_14adl_serializerENS0_IhNS5_IhEEEEvEEEENS5_ISH_EEE21_ConstructTransactionD1B8ue170006Ev, symObjAddr: 0x11440, symBinAddr: 0x10001414C, symSize: 0x2C }
  - { offsetInCU: 0x4237A, offset: 0x4237A, size: 0x8, addend: 0x0, symName: __ZNSt3__16vectorINS_4pairIKNS_12basic_stringIcNS_11char_traitsIcEENS_9allocatorIcEEEEN8nlohmann16json_abi_v3_11_310basic_jsonINSA_11ordered_mapES0_S7_bxydS5_NSA_14adl_serializerENS0_IhNS5_IhEEEEvEEEENS5_ISH_EEE21_ConstructTransactionC2B8ue170006ERSJ_m, symObjAddr: 0x1146C, symBinAddr: 0x100014178, symSize: 0x4C }
  - { offsetInCU: 0x423C2, offset: 0x423C2, size: 0x8, addend: 0x0, symName: __ZNSt3__19allocatorINS_4pairIKNS_12basic_stringIcNS_11char_traitsIcEENS0_IcEEEEN8nlohmann16json_abi_v3_11_310basic_jsonINS9_11ordered_mapENS_6vectorES6_bxydS0_NS9_14adl_serializerENSC_IhNS0_IhEEEEvEEEEE9constructB8ue170006ISH_JRS7_SG_EEEvPT_DpOT0_, symObjAddr: 0x114B8, symBinAddr: 0x1000141C4, symSize: 0x38 }
  - { offsetInCU: 0x4242B, offset: 0x4242B, size: 0x8, addend: 0x0, symName: __ZNSt3__14pairIKNS_12basic_stringIcNS_11char_traitsIcEENS_9allocatorIcEEEEN8nlohmann16json_abi_v3_11_310basic_jsonINS9_11ordered_mapENS_6vectorES6_bxydS4_NS9_14adl_serializerENSC_IhNS4_IhEEEEvEEEC1B8ue170006IRS7_SG_LPv0EEEOT_OT0_, symObjAddr: 0x114F0, symBinAddr: 0x1000141FC, symSize: 0x3C }
  - { offsetInCU: 0x42489, offset: 0x42489, size: 0x8, addend: 0x0, symName: __ZNSt3__14pairIKNS_12basic_stringIcNS_11char_traitsIcEENS_9allocatorIcEEEEN8nlohmann16json_abi_v3_11_310basic_jsonINS9_11ordered_mapENS_6vectorES6_bxydS4_NS9_14adl_serializerENSC_IhNS4_IhEEEEvEEEC2B8ue170006IRS7_SG_LPv0EEEOT_OT0_, symObjAddr: 0x1152C, symBinAddr: 0x100014238, symSize: 0x48 }
  - { offsetInCU: 0x424E7, offset: 0x424E7, size: 0x8, addend: 0x0, symName: __ZNSt3__16vectorINS_4pairIKNS_12basic_stringIcNS_11char_traitsIcEENS_9allocatorIcEEEEN8nlohmann16json_abi_v3_11_310basic_jsonINSA_11ordered_mapES0_S7_bxydS5_NSA_14adl_serializerENS0_IhNS5_IhEEEEvEEEENS5_ISH_EEE21_ConstructTransactionD2B8ue170006Ev, symObjAddr: 0x11574, symBinAddr: 0x100014280, symSize: 0x20 }
  - { offsetInCU: 0x42511, offset: 0x42511, size: 0x8, addend: 0x0, symName: __ZNKSt3__16vectorINS_4pairIKNS_12basic_stringIcNS_11char_traitsIcEENS_9allocatorIcEEEEN8nlohmann16json_abi_v3_11_310basic_jsonINSA_11ordered_mapES0_S7_bxydS5_NSA_14adl_serializerENS0_IhNS5_IhEEEEvEEEENS5_ISH_EEE11__recommendB8ue170006Em, symObjAddr: 0x11594, symBinAddr: 0x1000142A0, symSize: 0xB4 }
  - { offsetInCU: 0x42566, offset: 0x42566, size: 0x8, addend: 0x0, symName: __ZNSt3__114__split_bufferINS_4pairIKNS_12basic_stringIcNS_11char_traitsIcEENS_9allocatorIcEEEEN8nlohmann16json_abi_v3_11_310basic_jsonINSA_11ordered_mapENS_6vectorES7_bxydS5_NSA_14adl_serializerENSD_IhNS5_IhEEEEvEEEERNS5_ISI_EEEC1EmmSK_, symObjAddr: 0x11648, symBinAddr: 0x100014354, symSize: 0x44 }
  - { offsetInCU: 0x425BC, offset: 0x425BC, size: 0x8, addend: 0x0, symName: __ZNSt3__114__split_bufferINS_4pairIKNS_12basic_stringIcNS_11char_traitsIcEENS_9allocatorIcEEEEN8nlohmann16json_abi_v3_11_310basic_jsonINSA_11ordered_mapENS_6vectorES7_bxydS5_NSA_14adl_serializerENSD_IhNS5_IhEEEEvEEEERNS5_ISI_EEED1Ev, symObjAddr: 0x1179C, symBinAddr: 0x1000144A8, symSize: 0x2C }
  - { offsetInCU: 0x425E8, offset: 0x425E8, size: 0x8, addend: 0x0, symName: __ZNKSt3__16vectorINS_4pairIKNS_12basic_stringIcNS_11char_traitsIcEENS_9allocatorIcEEEEN8nlohmann16json_abi_v3_11_310basic_jsonINSA_11ordered_mapES0_S7_bxydS5_NSA_14adl_serializerENS0_IhNS5_IhEEEEvEEEENS5_ISH_EEE8max_sizeEv, symObjAddr: 0x117C8, symBinAddr: 0x1000144D4, symSize: 0x60 }
  - { offsetInCU: 0x42610, offset: 0x42610, size: 0x8, addend: 0x0, symName: __ZNKSt3__16vectorINS_4pairIKNS_12basic_stringIcNS_11char_traitsIcEENS_9allocatorIcEEEEN8nlohmann16json_abi_v3_11_310basic_jsonINSA_11ordered_mapES0_S7_bxydS5_NSA_14adl_serializerENS0_IhNS5_IhEEEEvEEEENS5_ISH_EEE20__throw_length_errorB8ue170006Ev, symObjAddr: 0x11828, symBinAddr: 0x100014534, symSize: 0x1C }
  - { offsetInCU: 0x42642, offset: 0x42642, size: 0x8, addend: 0x0, symName: __ZNSt3__116allocator_traitsINS_9allocatorINS_4pairIKNS_12basic_stringIcNS_11char_traitsIcEENS1_IcEEEEN8nlohmann16json_abi_v3_11_310basic_jsonINSA_11ordered_mapENS_6vectorES7_bxydS1_NSA_14adl_serializerENSD_IhNS1_IhEEEEvEEEEEEE8max_sizeB8ue170006ISJ_vEEmRKSJ_, symObjAddr: 0x11844, symBinAddr: 0x100014550, symSize: 0x24 }
  - { offsetInCU: 0x42670, offset: 0x42670, size: 0x8, addend: 0x0, symName: __ZNKSt3__16vectorINS_4pairIKNS_12basic_stringIcNS_11char_traitsIcEENS_9allocatorIcEEEEN8nlohmann16json_abi_v3_11_310basic_jsonINSA_11ordered_mapES0_S7_bxydS5_NSA_14adl_serializerENS0_IhNS5_IhEEEEvEEEENS5_ISH_EEE7__allocB8ue170006Ev, symObjAddr: 0x11868, symBinAddr: 0x100014574, symSize: 0x28 }
  - { offsetInCU: 0x42696, offset: 0x42696, size: 0x8, addend: 0x0, symName: __ZNKSt3__19allocatorINS_4pairIKNS_12basic_stringIcNS_11char_traitsIcEENS0_IcEEEEN8nlohmann16json_abi_v3_11_310basic_jsonINS9_11ordered_mapENS_6vectorES6_bxydS0_NS9_14adl_serializerENSC_IhNS0_IhEEEEvEEEEE8max_sizeB8ue170006Ev, symObjAddr: 0x11890, symBinAddr: 0x10001459C, symSize: 0x18 }
  - { offsetInCU: 0x426BC, offset: 0x426BC, size: 0x8, addend: 0x0, symName: __ZNKSt3__117__compressed_pairIPNS_4pairIKNS_12basic_stringIcNS_11char_traitsIcEENS_9allocatorIcEEEEN8nlohmann16json_abi_v3_11_310basic_jsonINSA_11ordered_mapENS_6vectorES7_bxydS5_NSA_14adl_serializerENSD_IhNS5_IhEEEEvEEEENS5_ISI_EEE6secondB8ue170006Ev, symObjAddr: 0x118A8, symBinAddr: 0x1000145B4, symSize: 0x24 }
  - { offsetInCU: 0x426E2, offset: 0x426E2, size: 0x8, addend: 0x0, symName: __ZNKSt3__122__compressed_pair_elemINS_9allocatorINS_4pairIKNS_12basic_stringIcNS_11char_traitsIcEENS1_IcEEEEN8nlohmann16json_abi_v3_11_310basic_jsonINSA_11ordered_mapENS_6vectorES7_bxydS1_NSA_14adl_serializerENSD_IhNS1_IhEEEEvEEEEEELi1ELb1EE5__getB8ue170006Ev, symObjAddr: 0x118CC, symBinAddr: 0x1000145D8, symSize: 0x14 }
  - { offsetInCU: 0x42708, offset: 0x42708, size: 0x8, addend: 0x0, symName: __ZNSt3__114__split_bufferINS_4pairIKNS_12basic_stringIcNS_11char_traitsIcEENS_9allocatorIcEEEEN8nlohmann16json_abi_v3_11_310basic_jsonINSA_11ordered_mapENS_6vectorES7_bxydS5_NSA_14adl_serializerENSD_IhNS5_IhEEEEvEEEERNS5_ISI_EEEC2EmmSK_, symObjAddr: 0x118E0, symBinAddr: 0x1000145EC, symSize: 0xE0 }
  - { offsetInCU: 0x4277B, offset: 0x4277B, size: 0x8, addend: 0x0, symName: __ZNSt3__117__compressed_pairIPNS_4pairIKNS_12basic_stringIcNS_11char_traitsIcEENS_9allocatorIcEEEEN8nlohmann16json_abi_v3_11_310basic_jsonINSA_11ordered_mapENS_6vectorES7_bxydS5_NSA_14adl_serializerENSD_IhNS5_IhEEEEvEEEERNS5_ISI_EEEC1B8ue170006IDnSL_EEOT_OT0_, symObjAddr: 0x119C0, symBinAddr: 0x1000146CC, symSize: 0x3C }
  - { offsetInCU: 0x427D3, offset: 0x427D3, size: 0x8, addend: 0x0, symName: __ZNSt3__114__split_bufferINS_4pairIKNS_12basic_stringIcNS_11char_traitsIcEENS_9allocatorIcEEEEN8nlohmann16json_abi_v3_11_310basic_jsonINSA_11ordered_mapENS_6vectorES7_bxydS5_NSA_14adl_serializerENSD_IhNS5_IhEEEEvEEEERNS5_ISI_EEE7__allocB8ue170006Ev, symObjAddr: 0x11A3C, symBinAddr: 0x100014748, symSize: 0x28 }
  - { offsetInCU: 0x427F9, offset: 0x427F9, size: 0x8, addend: 0x0, symName: __ZNSt3__114__split_bufferINS_4pairIKNS_12basic_stringIcNS_11char_traitsIcEENS_9allocatorIcEEEEN8nlohmann16json_abi_v3_11_310basic_jsonINSA_11ordered_mapENS_6vectorES7_bxydS5_NSA_14adl_serializerENSD_IhNS5_IhEEEEvEEEERNS5_ISI_EEE9__end_capB8ue170006Ev, symObjAddr: 0x11A64, symBinAddr: 0x100014770, symSize: 0x28 }
  - { offsetInCU: 0x4281F, offset: 0x4281F, size: 0x8, addend: 0x0, symName: __ZNSt3__117__compressed_pairIPNS_4pairIKNS_12basic_stringIcNS_11char_traitsIcEENS_9allocatorIcEEEEN8nlohmann16json_abi_v3_11_310basic_jsonINSA_11ordered_mapENS_6vectorES7_bxydS5_NSA_14adl_serializerENSD_IhNS5_IhEEEEvEEEERNS5_ISI_EEEC2B8ue170006IDnSL_EEOT_OT0_, symObjAddr: 0x11A8C, symBinAddr: 0x100014798, symSize: 0x48 }
  - { offsetInCU: 0x42877, offset: 0x42877, size: 0x8, addend: 0x0, symName: __ZNSt3__122__compressed_pair_elemIRNS_9allocatorINS_4pairIKNS_12basic_stringIcNS_11char_traitsIcEENS1_IcEEEEN8nlohmann16json_abi_v3_11_310basic_jsonINSA_11ordered_mapENS_6vectorES7_bxydS1_NSA_14adl_serializerENSD_IhNS1_IhEEEEvEEEEEELi1ELb0EEC2B8ue170006ISK_vEEOT_, symObjAddr: 0x11AD4, symBinAddr: 0x1000147E0, symSize: 0x20 }
  - { offsetInCU: 0x428B9, offset: 0x428B9, size: 0x8, addend: 0x0, symName: __ZNSt3__19allocatorINS_4pairIKNS_12basic_stringIcNS_11char_traitsIcEENS0_IcEEEEN8nlohmann16json_abi_v3_11_310basic_jsonINS9_11ordered_mapENS_6vectorES6_bxydS0_NS9_14adl_serializerENSC_IhNS0_IhEEEEvEEEEE8allocateB8ue170006Em, symObjAddr: 0x11AF4, symBinAddr: 0x100014800, symSize: 0x5C }
  - { offsetInCU: 0x428ED, offset: 0x428ED, size: 0x8, addend: 0x0, symName: __ZNSt3__117__compressed_pairIPNS_4pairIKNS_12basic_stringIcNS_11char_traitsIcEENS_9allocatorIcEEEEN8nlohmann16json_abi_v3_11_310basic_jsonINSA_11ordered_mapENS_6vectorES7_bxydS5_NSA_14adl_serializerENSD_IhNS5_IhEEEEvEEEERNS5_ISI_EEE6secondB8ue170006Ev, symObjAddr: 0x11B50, symBinAddr: 0x10001485C, symSize: 0x28 }
  - { offsetInCU: 0x42913, offset: 0x42913, size: 0x8, addend: 0x0, symName: __ZNSt3__122__compressed_pair_elemIRNS_9allocatorINS_4pairIKNS_12basic_stringIcNS_11char_traitsIcEENS1_IcEEEEN8nlohmann16json_abi_v3_11_310basic_jsonINSA_11ordered_mapENS_6vectorES7_bxydS1_NSA_14adl_serializerENSD_IhNS1_IhEEEEvEEEEEELi1ELb0EE5__getB8ue170006Ev, symObjAddr: 0x11B78, symBinAddr: 0x100014884, symSize: 0x18 }
  - { offsetInCU: 0x42939, offset: 0x42939, size: 0x8, addend: 0x0, symName: __ZNSt3__117__compressed_pairIPNS_4pairIKNS_12basic_stringIcNS_11char_traitsIcEENS_9allocatorIcEEEEN8nlohmann16json_abi_v3_11_310basic_jsonINSA_11ordered_mapENS_6vectorES7_bxydS5_NSA_14adl_serializerENSD_IhNS5_IhEEEEvEEEERNS5_ISI_EEE5firstB8ue170006Ev, symObjAddr: 0x11B90, symBinAddr: 0x10001489C, symSize: 0x24 }
  - { offsetInCU: 0x4295F, offset: 0x4295F, size: 0x8, addend: 0x0, symName: __ZNSt3__116reverse_iteratorIPNS_4pairIKNS_12basic_stringIcNS_11char_traitsIcEENS_9allocatorIcEEEEN8nlohmann16json_abi_v3_11_310basic_jsonINSA_11ordered_mapENS_6vectorES7_bxydS5_NSA_14adl_serializerENSD_IhNS5_IhEEEEvEEEEEC1B8ue170006ESJ_, symObjAddr: 0x11CE0, symBinAddr: 0x1000149EC, symSize: 0x34 }
  - { offsetInCU: 0x42997, offset: 0x42997, size: 0x8, addend: 0x0, symName: __ZNKSt3__116reverse_iteratorIPNS_4pairIKNS_12basic_stringIcNS_11char_traitsIcEENS_9allocatorIcEEEEN8nlohmann16json_abi_v3_11_310basic_jsonINSA_11ordered_mapENS_6vectorES7_bxydS5_NSA_14adl_serializerENSD_IhNS5_IhEEEEvEEEEE4baseB8ue170006Ev, symObjAddr: 0x11D14, symBinAddr: 0x100014A20, symSize: 0x18 }
  - { offsetInCU: 0x429BD, offset: 0x429BD, size: 0x8, addend: 0x0, symName: __ZNKSt3__16vectorINS_4pairIKNS_12basic_stringIcNS_11char_traitsIcEENS_9allocatorIcEEEEN8nlohmann16json_abi_v3_11_310basic_jsonINSA_11ordered_mapES0_S7_bxydS5_NSA_14adl_serializerENS0_IhNS5_IhEEEEvEEEENS5_ISH_EEE14__annotate_newB8ue170006Em, symObjAddr: 0x11D68, symBinAddr: 0x100014A74, symSize: 0xC8 }
  - { offsetInCU: 0x429F2, offset: 0x429F2, size: 0x8, addend: 0x0, symName: __ZNSt3__129_AllocatorDestroyRangeReverseINS_9allocatorINS_4pairIKNS_12basic_stringIcNS_11char_traitsIcEENS1_IcEEEEN8nlohmann16json_abi_v3_11_310basic_jsonINSA_11ordered_mapENS_6vectorES7_bxydS1_NSA_14adl_serializerENSD_IhNS1_IhEEEEvEEEEEENS_16reverse_iteratorIPSI_EEEC1B8ue170006ERSJ_RSM_SP_, symObjAddr: 0x11E7C, symBinAddr: 0x100014B88, symSize: 0x44 }
  - { offsetInCU: 0x42A49, offset: 0x42A49, size: 0x8, addend: 0x0, symName: __ZNSt3__116allocator_traitsINS_9allocatorINS_4pairIKNS_12basic_stringIcNS_11char_traitsIcEENS1_IcEEEEN8nlohmann16json_abi_v3_11_310basic_jsonINSA_11ordered_mapENS_6vectorES7_bxydS1_NSA_14adl_serializerENSD_IhNS1_IhEEEEvEEEEEEE9constructB8ue170006ISI_JRKSI_EvEEvRSJ_PT_DpOT0_, symObjAddr: 0x11F08, symBinAddr: 0x100014C14, symSize: 0x34 }
  - { offsetInCU: 0x42AA0, offset: 0x42AA0, size: 0x8, addend: 0x0, symName: __ZNKSt3__116reverse_iteratorIPNS_4pairIKNS_12basic_stringIcNS_11char_traitsIcEENS_9allocatorIcEEEEN8nlohmann16json_abi_v3_11_310basic_jsonINSA_11ordered_mapENS_6vectorES7_bxydS5_NSA_14adl_serializerENSD_IhNS5_IhEEEEvEEEEEdeB8ue170006Ev, symObjAddr: 0x11F60, symBinAddr: 0x100014C6C, symSize: 0x28 }
  - { offsetInCU: 0x42AD4, offset: 0x42AD4, size: 0x8, addend: 0x0, symName: __ZNSt3__116reverse_iteratorIPNS_4pairIKNS_12basic_stringIcNS_11char_traitsIcEENS_9allocatorIcEEEEN8nlohmann16json_abi_v3_11_310basic_jsonINSA_11ordered_mapENS_6vectorES7_bxydS5_NSA_14adl_serializerENSD_IhNS5_IhEEEEvEEEEEppB8ue170006Ev, symObjAddr: 0x11F88, symBinAddr: 0x100014C94, symSize: 0x20 }
  - { offsetInCU: 0x42AFA, offset: 0x42AFA, size: 0x8, addend: 0x0, symName: __ZNSt3__128__exception_guard_exceptionsINS_29_AllocatorDestroyRangeReverseINS_9allocatorINS_4pairIKNS_12basic_stringIcNS_11char_traitsIcEENS2_IcEEEEN8nlohmann16json_abi_v3_11_310basic_jsonINSB_11ordered_mapENS_6vectorES8_bxydS2_NSB_14adl_serializerENSE_IhNS2_IhEEEEvEEEEEENS_16reverse_iteratorIPSJ_EEEEE10__completeB8ue170006Ev, symObjAddr: 0x11FA8, symBinAddr: 0x100014CB4, symSize: 0x1C }
  - { offsetInCU: 0x42B20, offset: 0x42B20, size: 0x8, addend: 0x0, symName: __ZNSt3__128__exception_guard_exceptionsINS_29_AllocatorDestroyRangeReverseINS_9allocatorINS_4pairIKNS_12basic_stringIcNS_11char_traitsIcEENS2_IcEEEEN8nlohmann16json_abi_v3_11_310basic_jsonINSB_11ordered_mapENS_6vectorES8_bxydS2_NSB_14adl_serializerENSE_IhNS2_IhEEEEvEEEEEENS_16reverse_iteratorIPSJ_EEEEED1B8ue170006Ev, symObjAddr: 0x11FC4, symBinAddr: 0x100014CD0, symSize: 0x2C }
  - { offsetInCU: 0x42B4A, offset: 0x42B4A, size: 0x8, addend: 0x0, symName: __ZNSt3__128__exception_guard_exceptionsINS_29_AllocatorDestroyRangeReverseINS_9allocatorINS_4pairIKNS_12basic_stringIcNS_11char_traitsIcEENS2_IcEEEEN8nlohmann16json_abi_v3_11_310basic_jsonINSB_11ordered_mapENS_6vectorES8_bxydS2_NSB_14adl_serializerENSE_IhNS2_IhEEEEvEEEEEENS_16reverse_iteratorIPSJ_EEEEEC1B8ue170006ESO_, symObjAddr: 0x11FF0, symBinAddr: 0x100014CFC, symSize: 0x34 }
  - { offsetInCU: 0x42B83, offset: 0x42B83, size: 0x8, addend: 0x0, symName: __ZNSt3__128__exception_guard_exceptionsINS_29_AllocatorDestroyRangeReverseINS_9allocatorINS_4pairIKNS_12basic_stringIcNS_11char_traitsIcEENS2_IcEEEEN8nlohmann16json_abi_v3_11_310basic_jsonINSB_11ordered_mapENS_6vectorES8_bxydS2_NSB_14adl_serializerENSE_IhNS2_IhEEEEvEEEEEENS_16reverse_iteratorIPSJ_EEEEEC2B8ue170006ESO_, symObjAddr: 0x12024, symBinAddr: 0x100014D30, symSize: 0x30 }
  - { offsetInCU: 0x42BBC, offset: 0x42BBC, size: 0x8, addend: 0x0, symName: __ZNSt3__129_AllocatorDestroyRangeReverseINS_9allocatorINS_4pairIKNS_12basic_stringIcNS_11char_traitsIcEENS1_IcEEEEN8nlohmann16json_abi_v3_11_310basic_jsonINSA_11ordered_mapENS_6vectorES7_bxydS1_NSA_14adl_serializerENSD_IhNS1_IhEEEEvEEEEEENS_16reverse_iteratorIPSI_EEEC2B8ue170006ERSJ_RSM_SP_, symObjAddr: 0x12054, symBinAddr: 0x100014D60, symSize: 0x38 }
  - { offsetInCU: 0x42C13, offset: 0x42C13, size: 0x8, addend: 0x0, symName: __ZNSt3__19allocatorINS_4pairIKNS_12basic_stringIcNS_11char_traitsIcEENS0_IcEEEEN8nlohmann16json_abi_v3_11_310basic_jsonINS9_11ordered_mapENS_6vectorES6_bxydS0_NS9_14adl_serializerENSC_IhNS0_IhEEEEvEEEEE9constructB8ue170006ISH_JRKSH_EEEvPT_DpOT0_, symObjAddr: 0x1208C, symBinAddr: 0x100014D98, symSize: 0x30 }
  - { offsetInCU: 0x42C69, offset: 0x42C69, size: 0x8, addend: 0x0, symName: __ZNSt3__14pairIKNS_12basic_stringIcNS_11char_traitsIcEENS_9allocatorIcEEEEN8nlohmann16json_abi_v3_11_310basic_jsonINS9_11ordered_mapENS_6vectorES6_bxydS4_NS9_14adl_serializerENSC_IhNS4_IhEEEEvEEEC1B8ue170006ERKSH_, symObjAddr: 0x120BC, symBinAddr: 0x100014DC8, symSize: 0x34 }
  - { offsetInCU: 0x42C9E, offset: 0x42C9E, size: 0x8, addend: 0x0, symName: __ZNSt3__14pairIKNS_12basic_stringIcNS_11char_traitsIcEENS_9allocatorIcEEEEN8nlohmann16json_abi_v3_11_310basic_jsonINS9_11ordered_mapENS_6vectorES6_bxydS4_NS9_14adl_serializerENSC_IhNS4_IhEEEEvEEEC2B8ue170006ERKSH_, symObjAddr: 0x120F0, symBinAddr: 0x100014DFC, symSize: 0x70 }
  - { offsetInCU: 0x42CD3, offset: 0x42CD3, size: 0x8, addend: 0x0, symName: __ZN8nlohmann16json_abi_v3_11_310basic_jsonINS0_11ordered_mapENSt3__16vectorENS3_12basic_stringIcNS3_11char_traitsIcEENS3_9allocatorIcEEEEbxydS8_NS0_14adl_serializerENS4_IhNS8_IhEEEEvEC1ERKSE_, symObjAddr: 0x12160, symBinAddr: 0x100014E6C, symSize: 0x34 }
  - { offsetInCU: 0x42D0C, offset: 0x42D0C, size: 0x8, addend: 0x0, symName: __ZN8nlohmann16json_abi_v3_11_310basic_jsonINS0_11ordered_mapENSt3__16vectorENS3_12basic_stringIcNS3_11char_traitsIcEENS3_9allocatorIcEEEEbxydS8_NS0_14adl_serializerENS4_IhNS8_IhEEEEvEC2ERKSE_, symObjAddr: 0x12194, symBinAddr: 0x100014EA0, symSize: 0x1F8 }
  - { offsetInCU: 0x42D45, offset: 0x42D45, size: 0x8, addend: 0x0, symName: __ZN8nlohmann16json_abi_v3_11_310basic_jsonINS0_11ordered_mapENSt3__16vectorENS3_12basic_stringIcNS3_11char_traitsIcEENS3_9allocatorIcEEEEbxydS8_NS0_14adl_serializerENS4_IhNS8_IhEEEEvE4dataC1Ev, symObjAddr: 0x123B4, symBinAddr: 0x1000150C0, symSize: 0x2C }
  - { offsetInCU: 0x42D6F, offset: 0x42D6F, size: 0x8, addend: 0x0, symName: __ZN8nlohmann16json_abi_v3_11_310basic_jsonINS0_11ordered_mapENSt3__16vectorENS3_12basic_stringIcNS3_11char_traitsIcEENS3_9allocatorIcEEEEbxydS8_NS0_14adl_serializerENS4_IhNS8_IhEEEEvE10json_valueC1ERKNS2_ISA_SE_NS3_4lessIvEENS8_INS3_4pairIKSA_SE_EEEEEE, symObjAddr: 0x123E0, symBinAddr: 0x1000150EC, symSize: 0x34 }
  - { offsetInCU: 0x42DA8, offset: 0x42DA8, size: 0x8, addend: 0x0, symName: __ZN8nlohmann16json_abi_v3_11_310basic_jsonINS0_11ordered_mapENSt3__16vectorENS3_12basic_stringIcNS3_11char_traitsIcEENS3_9allocatorIcEEEEbxydS8_NS0_14adl_serializerENS4_IhNS8_IhEEEEvE10json_valueC1ERKNS4_ISE_NS8_ISE_EEEE, symObjAddr: 0x12414, symBinAddr: 0x100015120, symSize: 0x34 }
  - { offsetInCU: 0x42DE1, offset: 0x42DE1, size: 0x8, addend: 0x0, symName: __ZN8nlohmann16json_abi_v3_11_310basic_jsonINS0_11ordered_mapENSt3__16vectorENS3_12basic_stringIcNS3_11char_traitsIcEENS3_9allocatorIcEEEEbxydS8_NS0_14adl_serializerENS4_IhNS8_IhEEEEvE10json_valueC1ERKSA_, symObjAddr: 0x12448, symBinAddr: 0x100015154, symSize: 0x34 }
  - { offsetInCU: 0x42E1A, offset: 0x42E1A, size: 0x8, addend: 0x0, symName: __ZN8nlohmann16json_abi_v3_11_310basic_jsonINS0_11ordered_mapENSt3__16vectorENS3_12basic_stringIcNS3_11char_traitsIcEENS3_9allocatorIcEEEEbxydS8_NS0_14adl_serializerENS4_IhNS8_IhEEEEvE10json_valueC1Eb, symObjAddr: 0x1247C, symBinAddr: 0x100015188, symSize: 0x40 }
  - { offsetInCU: 0x42E53, offset: 0x42E53, size: 0x8, addend: 0x0, symName: __ZN8nlohmann16json_abi_v3_11_310basic_jsonINS0_11ordered_mapENSt3__16vectorENS3_12basic_stringIcNS3_11char_traitsIcEENS3_9allocatorIcEEEEbxydS8_NS0_14adl_serializerENS4_IhNS8_IhEEEEvE10json_valueC1Ex, symObjAddr: 0x124BC, symBinAddr: 0x1000151C8, symSize: 0x34 }
  - { offsetInCU: 0x42E8C, offset: 0x42E8C, size: 0x8, addend: 0x0, symName: __ZN8nlohmann16json_abi_v3_11_310basic_jsonINS0_11ordered_mapENSt3__16vectorENS3_12basic_stringIcNS3_11char_traitsIcEENS3_9allocatorIcEEEEbxydS8_NS0_14adl_serializerENS4_IhNS8_IhEEEEvE10json_valueC1Ey, symObjAddr: 0x124F0, symBinAddr: 0x1000151FC, symSize: 0x34 }
  - { offsetInCU: 0x42EC5, offset: 0x42EC5, size: 0x8, addend: 0x0, symName: __ZN8nlohmann16json_abi_v3_11_310basic_jsonINS0_11ordered_mapENSt3__16vectorENS3_12basic_stringIcNS3_11char_traitsIcEENS3_9allocatorIcEEEEbxydS8_NS0_14adl_serializerENS4_IhNS8_IhEEEEvE10json_valueC1Ed, symObjAddr: 0x12524, symBinAddr: 0x100015230, symSize: 0x34 }
  - { offsetInCU: 0x42EFE, offset: 0x42EFE, size: 0x8, addend: 0x0, symName: __ZN8nlohmann16json_abi_v3_11_310basic_jsonINS0_11ordered_mapENSt3__16vectorENS3_12basic_stringIcNS3_11char_traitsIcEENS3_9allocatorIcEEEEbxydS8_NS0_14adl_serializerENS4_IhNS8_IhEEEEvE10json_valueC1ERKNS0_27byte_container_with_subtypeISD_EE, symObjAddr: 0x12558, symBinAddr: 0x100015264, symSize: 0x34 }
  - { offsetInCU: 0x42F37, offset: 0x42F37, size: 0x8, addend: 0x0, symName: __ZN8nlohmann16json_abi_v3_11_310basic_jsonINS0_11ordered_mapENSt3__16vectorENS3_12basic_stringIcNS3_11char_traitsIcEENS3_9allocatorIcEEEEbxydS8_NS0_14adl_serializerENS4_IhNS8_IhEEEEvE4dataC2Ev, symObjAddr: 0x1258C, symBinAddr: 0x100015298, symSize: 0x1C }
  - { offsetInCU: 0x42F61, offset: 0x42F61, size: 0x8, addend: 0x0, symName: __ZN8nlohmann16json_abi_v3_11_310basic_jsonINS0_11ordered_mapENSt3__16vectorENS3_12basic_stringIcNS3_11char_traitsIcEENS3_9allocatorIcEEEEbxydS8_NS0_14adl_serializerENS4_IhNS8_IhEEEEvE10json_valueC2ERKNS2_ISA_SE_NS3_4lessIvEENS8_INS3_4pairIKSA_SE_EEEEEE, symObjAddr: 0x125A8, symBinAddr: 0x1000152B4, symSize: 0x3C }
  - { offsetInCU: 0x42F9A, offset: 0x42F9A, size: 0x8, addend: 0x0, symName: __ZN8nlohmann16json_abi_v3_11_310basic_jsonINS0_11ordered_mapENSt3__16vectorENS3_12basic_stringIcNS3_11char_traitsIcEENS3_9allocatorIcEEEEbxydS8_NS0_14adl_serializerENS4_IhNS8_IhEEEEvE6createINS2_ISA_SE_NS3_4lessIvEENS8_INS3_4pairIKSA_SE_EEEEEEJRKSM_EEEPT_DpOT0_, symObjAddr: 0x125E4, symBinAddr: 0x1000152F0, symSize: 0xF4 }
  - { offsetInCU: 0x43098, offset: 0x43098, size: 0x8, addend: 0x0, symName: __ZNSt3__110unique_ptrIN8nlohmann16json_abi_v3_11_311ordered_mapINS_12basic_stringIcNS_11char_traitsIcEENS_9allocatorIcEEEENS2_10basic_jsonIS3_NS_6vectorES9_bxydS7_NS2_14adl_serializerENSB_IhNS7_IhEEEEvEENS_4lessIvEENS7_INS_4pairIKS9_SF_EEEEEEZNSF_6createISM_JRKSM_EEEPT_DpOT0_EUlPSM_E_EC1B8ue170006ILb1EvEESV_NS_16__dependent_typeINS_27__unique_ptr_deleter_sfinaeISW_EEXT_EE15__lval_ref_typeE, symObjAddr: 0x126D8, symBinAddr: 0x1000153E4, symSize: 0x3C }
  - { offsetInCU: 0x430E9, offset: 0x430E9, size: 0x8, addend: 0x0, symName: __ZNSt3__116allocator_traitsINS_9allocatorIN8nlohmann16json_abi_v3_11_311ordered_mapINS_12basic_stringIcNS_11char_traitsIcEENS1_IcEEEENS3_10basic_jsonIS4_NS_6vectorES9_bxydS1_NS3_14adl_serializerENSB_IhNS1_IhEEEEvEENS_4lessIvEENS1_INS_4pairIKS9_SF_EEEEEEEEE9constructB8ue170006ISM_JRKSM_EvEEvRSN_PT_DpOT0_, symObjAddr: 0x12714, symBinAddr: 0x100015420, symSize: 0x34 }
  - { offsetInCU: 0x43140, offset: 0x43140, size: 0x8, addend: 0x0, symName: __ZNKSt3__110unique_ptrIN8nlohmann16json_abi_v3_11_311ordered_mapINS_12basic_stringIcNS_11char_traitsIcEENS_9allocatorIcEEEENS2_10basic_jsonIS3_NS_6vectorES9_bxydS7_NS2_14adl_serializerENSB_IhNS7_IhEEEEvEENS_4lessIvEENS7_INS_4pairIKS9_SF_EEEEEEZNSF_6createISM_JRKSM_EEEPT_DpOT0_EUlPSM_E_E3getB8ue170006Ev, symObjAddr: 0x12748, symBinAddr: 0x100015454, symSize: 0x28 }
  - { offsetInCU: 0x43166, offset: 0x43166, size: 0x8, addend: 0x0, symName: __ZNSt3__110unique_ptrIN8nlohmann16json_abi_v3_11_311ordered_mapINS_12basic_stringIcNS_11char_traitsIcEENS_9allocatorIcEEEENS2_10basic_jsonIS3_NS_6vectorES9_bxydS7_NS2_14adl_serializerENSB_IhNS7_IhEEEEvEENS_4lessIvEENS7_INS_4pairIKS9_SF_EEEEEEZNSF_6createISM_JRKSM_EEEPT_DpOT0_EUlPSM_E_E7releaseB8ue170006Ev, symObjAddr: 0x1279C, symBinAddr: 0x1000154A8, symSize: 0x44 }
  - { offsetInCU: 0x4319B, offset: 0x4319B, size: 0x8, addend: 0x0, symName: __ZNSt3__110unique_ptrIN8nlohmann16json_abi_v3_11_311ordered_mapINS_12basic_stringIcNS_11char_traitsIcEENS_9allocatorIcEEEENS2_10basic_jsonIS3_NS_6vectorES9_bxydS7_NS2_14adl_serializerENSB_IhNS7_IhEEEEvEENS_4lessIvEENS7_INS_4pairIKS9_SF_EEEEEEZNSF_6createISM_JRKSM_EEEPT_DpOT0_EUlPSM_E_ED1B8ue170006Ev, symObjAddr: 0x127E0, symBinAddr: 0x1000154EC, symSize: 0x2C }
  - { offsetInCU: 0x431C5, offset: 0x431C5, size: 0x8, addend: 0x0, symName: __ZNSt3__110unique_ptrIN8nlohmann16json_abi_v3_11_311ordered_mapINS_12basic_stringIcNS_11char_traitsIcEENS_9allocatorIcEEEENS2_10basic_jsonIS3_NS_6vectorES9_bxydS7_NS2_14adl_serializerENSB_IhNS7_IhEEEEvEENS_4lessIvEENS7_INS_4pairIKS9_SF_EEEEEEZNSF_6createISM_JRKSM_EEEPT_DpOT0_EUlPSM_E_EC2B8ue170006ILb1EvEESV_NS_16__dependent_typeINS_27__unique_ptr_deleter_sfinaeISW_EEXT_EE15__lval_ref_typeE, symObjAddr: 0x1280C, symBinAddr: 0x100015518, symSize: 0x48 }
  - { offsetInCU: 0x43216, offset: 0x43216, size: 0x8, addend: 0x0, symName: __ZNSt3__117__compressed_pairIPN8nlohmann16json_abi_v3_11_311ordered_mapINS_12basic_stringIcNS_11char_traitsIcEENS_9allocatorIcEEEENS2_10basic_jsonIS3_NS_6vectorES9_bxydS7_NS2_14adl_serializerENSB_IhNS7_IhEEEEvEENS_4lessIvEENS7_INS_4pairIKS9_SF_EEEEEEZNSF_6createISM_JRKSM_EEEPT_DpOT0_EUlSN_E_EC1B8ue170006IRSN_RKSW_EEOSR_OT0_, symObjAddr: 0x12854, symBinAddr: 0x100015560, symSize: 0x3C }
  - { offsetInCU: 0x4326E, offset: 0x4326E, size: 0x8, addend: 0x0, symName: __ZNSt3__117__compressed_pairIPN8nlohmann16json_abi_v3_11_311ordered_mapINS_12basic_stringIcNS_11char_traitsIcEENS_9allocatorIcEEEENS2_10basic_jsonIS3_NS_6vectorES9_bxydS7_NS2_14adl_serializerENSB_IhNS7_IhEEEEvEENS_4lessIvEENS7_INS_4pairIKS9_SF_EEEEEEZNSF_6createISM_JRKSM_EEEPT_DpOT0_EUlSN_E_EC2B8ue170006IRSN_RKSW_EEOSR_OT0_, symObjAddr: 0x12890, symBinAddr: 0x10001559C, symSize: 0x48 }
  - { offsetInCU: 0x432C6, offset: 0x432C6, size: 0x8, addend: 0x0, symName: __ZNSt3__122__compressed_pair_elemIZN8nlohmann16json_abi_v3_11_310basic_jsonINS2_11ordered_mapENS_6vectorENS_12basic_stringIcNS_11char_traitsIcEENS_9allocatorIcEEEEbxydS9_NS2_14adl_serializerENS5_IhNS9_IhEEEEvE6createINS4_ISB_SF_NS_4lessIvEENS9_INS_4pairIKSB_SF_EEEEEEJRKSN_EEEPT_DpOT0_EUlPSN_E_Li1ELb0EEC2B8ue170006IRKSW_vEEOSQ_, symObjAddr: 0x128D8, symBinAddr: 0x1000155E4, symSize: 0x24 }
  - { offsetInCU: 0x43308, offset: 0x43308, size: 0x8, addend: 0x0, symName: __ZNSt3__19allocatorIN8nlohmann16json_abi_v3_11_311ordered_mapINS_12basic_stringIcNS_11char_traitsIcEENS0_IcEEEENS2_10basic_jsonIS3_NS_6vectorES8_bxydS0_NS2_14adl_serializerENSA_IhNS0_IhEEEEvEENS_4lessIvEENS0_INS_4pairIKS8_SE_EEEEEEE9constructB8ue170006ISL_JRKSL_EEEvPT_DpOT0_, symObjAddr: 0x128FC, symBinAddr: 0x100015608, symSize: 0x30 }
  - { offsetInCU: 0x4335E, offset: 0x4335E, size: 0x8, addend: 0x0, symName: __ZN8nlohmann16json_abi_v3_11_311ordered_mapINSt3__112basic_stringIcNS2_11char_traitsIcEENS2_9allocatorIcEEEENS0_10basic_jsonIS1_NS2_6vectorES8_bxydS6_NS0_14adl_serializerENSA_IhNS6_IhEEEEvEENS2_4lessIvEENS6_INS2_4pairIKS8_SE_EEEEEC1ERKSL_, symObjAddr: 0x1292C, symBinAddr: 0x100015638, symSize: 0x34 }
  - { offsetInCU: 0x43394, offset: 0x43394, size: 0x8, addend: 0x0, symName: __ZN8nlohmann16json_abi_v3_11_311ordered_mapINSt3__112basic_stringIcNS2_11char_traitsIcEENS2_9allocatorIcEEEENS0_10basic_jsonIS1_NS2_6vectorES8_bxydS6_NS0_14adl_serializerENSA_IhNS6_IhEEEEvEENS2_4lessIvEENS6_INS2_4pairIKS8_SE_EEEEEC2ERKSL_, symObjAddr: 0x12960, symBinAddr: 0x10001566C, symSize: 0x34 }
  - { offsetInCU: 0x433CA, offset: 0x433CA, size: 0x8, addend: 0x0, symName: __ZNSt3__16vectorINS_4pairIKNS_12basic_stringIcNS_11char_traitsIcEENS_9allocatorIcEEEEN8nlohmann16json_abi_v3_11_310basic_jsonINSA_11ordered_mapES0_S7_bxydS5_NSA_14adl_serializerENS0_IhNS5_IhEEEEvEEEENS5_ISH_EEEC2ERKSJ_, symObjAddr: 0x12994, symBinAddr: 0x1000156A0, symSize: 0x94 }
  - { offsetInCU: 0x43405, offset: 0x43405, size: 0x8, addend: 0x0, symName: __ZNSt3__116allocator_traitsINS_9allocatorINS_4pairIKNS_12basic_stringIcNS_11char_traitsIcEENS1_IcEEEEN8nlohmann16json_abi_v3_11_310basic_jsonINSA_11ordered_mapENS_6vectorES7_bxydS1_NSA_14adl_serializerENSD_IhNS1_IhEEEEvEEEEEEE37select_on_container_copy_constructionB8ue170006ISJ_vvEESJ_RKSJ_, symObjAddr: 0x12A28, symBinAddr: 0x100015734, symSize: 0x10 }
  - { offsetInCU: 0x4343A, offset: 0x4343A, size: 0x8, addend: 0x0, symName: __ZNSt3__117__compressed_pairIPNS_4pairIKNS_12basic_stringIcNS_11char_traitsIcEENS_9allocatorIcEEEEN8nlohmann16json_abi_v3_11_310basic_jsonINSA_11ordered_mapENS_6vectorES7_bxydS5_NSA_14adl_serializerENSD_IhNS5_IhEEEEvEEEENS5_ISI_EEEC1B8ue170006IDnSK_EEOT_OT0_, symObjAddr: 0x12A38, symBinAddr: 0x100015744, symSize: 0x3C }
  - { offsetInCU: 0x43492, offset: 0x43492, size: 0x8, addend: 0x0, symName: __ZNSt3__16vectorINS_4pairIKNS_12basic_stringIcNS_11char_traitsIcEENS_9allocatorIcEEEEN8nlohmann16json_abi_v3_11_310basic_jsonINSA_11ordered_mapES0_S7_bxydS5_NSA_14adl_serializerENS0_IhNS5_IhEEEEvEEEENS5_ISH_EEE16__init_with_sizeB8ue170006IPSH_SL_EEvT_T0_m, symObjAddr: 0x12A74, symBinAddr: 0x100015780, symSize: 0xB8 }
  - { offsetInCU: 0x43506, offset: 0x43506, size: 0x8, addend: 0x0, symName: __ZNSt3__117__compressed_pairIPNS_4pairIKNS_12basic_stringIcNS_11char_traitsIcEENS_9allocatorIcEEEEN8nlohmann16json_abi_v3_11_310basic_jsonINSA_11ordered_mapENS_6vectorES7_bxydS5_NSA_14adl_serializerENSD_IhNS5_IhEEEEvEEEENS5_ISI_EEEC2B8ue170006IDnSK_EEOT_OT0_, symObjAddr: 0x12B2C, symBinAddr: 0x100015838, symSize: 0x44 }
  - { offsetInCU: 0x4355E, offset: 0x4355E, size: 0x8, addend: 0x0, symName: __ZNSt3__122__compressed_pair_elemINS_9allocatorINS_4pairIKNS_12basic_stringIcNS_11char_traitsIcEENS1_IcEEEEN8nlohmann16json_abi_v3_11_310basic_jsonINSA_11ordered_mapENS_6vectorES7_bxydS1_NSA_14adl_serializerENSD_IhNS1_IhEEEEvEEEEEELi1ELb1EEC2B8ue170006ISJ_vEEOT_, symObjAddr: 0x12B70, symBinAddr: 0x10001587C, symSize: 0x18 }
  - { offsetInCU: 0x435A0, offset: 0x435A0, size: 0x8, addend: 0x0, symName: __ZNSt3__16vectorINS_4pairIKNS_12basic_stringIcNS_11char_traitsIcEENS_9allocatorIcEEEEN8nlohmann16json_abi_v3_11_310basic_jsonINSA_11ordered_mapES0_S7_bxydS5_NSA_14adl_serializerENS0_IhNS5_IhEEEEvEEEENS5_ISH_EEE11__vallocateB8ue170006Em, symObjAddr: 0x12BC8, symBinAddr: 0x1000158D4, symSize: 0xB4 }
  - { offsetInCU: 0x435E4, offset: 0x435E4, size: 0x8, addend: 0x0, symName: __ZNSt3__16vectorINS_4pairIKNS_12basic_stringIcNS_11char_traitsIcEENS_9allocatorIcEEEEN8nlohmann16json_abi_v3_11_310basic_jsonINSA_11ordered_mapES0_S7_bxydS5_NSA_14adl_serializerENS0_IhNS5_IhEEEEvEEEENS5_ISH_EEE18__construct_at_endIPSH_SL_EEvT_T0_m, symObjAddr: 0x12C7C, symBinAddr: 0x100015988, symSize: 0x8C }
  - { offsetInCU: 0x4365A, offset: 0x4365A, size: 0x8, addend: 0x0, symName: __ZNSt3__128__exception_guard_exceptionsINS_6vectorINS_4pairIKNS_12basic_stringIcNS_11char_traitsIcEENS_9allocatorIcEEEEN8nlohmann16json_abi_v3_11_310basic_jsonINSB_11ordered_mapES1_S8_bxydS6_NSB_14adl_serializerENS1_IhNS6_IhEEEEvEEEENS6_ISI_EEE16__destroy_vectorEE10__completeB8ue170006Ev, symObjAddr: 0x12D08, symBinAddr: 0x100015A14, symSize: 0x1C }
  - { offsetInCU: 0x43680, offset: 0x43680, size: 0x8, addend: 0x0, symName: __ZNSt3__128__exception_guard_exceptionsINS_6vectorINS_4pairIKNS_12basic_stringIcNS_11char_traitsIcEENS_9allocatorIcEEEEN8nlohmann16json_abi_v3_11_310basic_jsonINSB_11ordered_mapES1_S8_bxydS6_NSB_14adl_serializerENS1_IhNS6_IhEEEEvEEEENS6_ISI_EEE16__destroy_vectorEED1B8ue170006Ev, symObjAddr: 0x12D24, symBinAddr: 0x100015A30, symSize: 0x2C }
  - { offsetInCU: 0x436AA, offset: 0x436AA, size: 0x8, addend: 0x0, symName: __ZNSt3__128__exception_guard_exceptionsINS_6vectorINS_4pairIKNS_12basic_stringIcNS_11char_traitsIcEENS_9allocatorIcEEEEN8nlohmann16json_abi_v3_11_310basic_jsonINSB_11ordered_mapES1_S8_bxydS6_NSB_14adl_serializerENS1_IhNS6_IhEEEEvEEEENS6_ISI_EEE16__destroy_vectorEEC1B8ue170006ESL_, symObjAddr: 0x12D50, symBinAddr: 0x100015A5C, symSize: 0x34 }
  - { offsetInCU: 0x436E2, offset: 0x436E2, size: 0x8, addend: 0x0, symName: __ZNSt3__128__exception_guard_exceptionsINS_6vectorINS_4pairIKNS_12basic_stringIcNS_11char_traitsIcEENS_9allocatorIcEEEEN8nlohmann16json_abi_v3_11_310basic_jsonINSB_11ordered_mapES1_S8_bxydS6_NSB_14adl_serializerENS1_IhNS6_IhEEEEvEEEENS6_ISI_EEE16__destroy_vectorEEC2B8ue170006ESL_, symObjAddr: 0x12D84, symBinAddr: 0x100015A90, symSize: 0x24 }
  - { offsetInCU: 0x4373D, offset: 0x4373D, size: 0x8, addend: 0x0, symName: __ZNSt3__14pairIPNS0_IKNS_12basic_stringIcNS_11char_traitsIcEENS_9allocatorIcEEEEN8nlohmann16json_abi_v3_11_310basic_jsonINS9_11ordered_mapENS_6vectorES6_bxydS4_NS9_14adl_serializerENSC_IhNS4_IhEEEEvEEEESI_EC1B8ue170006ISI_SI_LPv0EEEOT_OT0_, symObjAddr: 0x13014, symBinAddr: 0x100015D20, symSize: 0x3C }
  - { offsetInCU: 0x4379B, offset: 0x4379B, size: 0x8, addend: 0x0, symName: __ZNSt3__14pairIPNS0_IKNS_12basic_stringIcNS_11char_traitsIcEENS_9allocatorIcEEEEN8nlohmann16json_abi_v3_11_310basic_jsonINS9_11ordered_mapENS_6vectorES6_bxydS4_NS9_14adl_serializerENSC_IhNS4_IhEEEEvEEEESI_EC2B8ue170006ISI_SI_LPv0EEEOT_OT0_, symObjAddr: 0x13050, symBinAddr: 0x100015D5C, symSize: 0x34 }
  - { offsetInCU: 0x437F9, offset: 0x437F9, size: 0x8, addend: 0x0, symName: __ZNSt3__129_AllocatorDestroyRangeReverseINS_9allocatorINS_4pairIKNS_12basic_stringIcNS_11char_traitsIcEENS1_IcEEEEN8nlohmann16json_abi_v3_11_310basic_jsonINSA_11ordered_mapENS_6vectorES7_bxydS1_NSA_14adl_serializerENSD_IhNS1_IhEEEEvEEEEEEPSI_EC1B8ue170006ERSJ_RSK_SN_, symObjAddr: 0x130D0, symBinAddr: 0x100015DDC, symSize: 0x44 }
  - { offsetInCU: 0x43850, offset: 0x43850, size: 0x8, addend: 0x0, symName: __ZNSt3__116allocator_traitsINS_9allocatorINS_4pairIKNS_12basic_stringIcNS_11char_traitsIcEENS1_IcEEEEN8nlohmann16json_abi_v3_11_310basic_jsonINSA_11ordered_mapENS_6vectorES7_bxydS1_NSA_14adl_serializerENSD_IhNS1_IhEEEEvEEEEEEE9constructB8ue170006ISI_JRSI_EvEEvRSJ_PT_DpOT0_, symObjAddr: 0x13114, symBinAddr: 0x100015E20, symSize: 0x34 }
  - { offsetInCU: 0x438A7, offset: 0x438A7, size: 0x8, addend: 0x0, symName: __ZNSt3__128__exception_guard_exceptionsINS_29_AllocatorDestroyRangeReverseINS_9allocatorINS_4pairIKNS_12basic_stringIcNS_11char_traitsIcEENS2_IcEEEEN8nlohmann16json_abi_v3_11_310basic_jsonINSB_11ordered_mapENS_6vectorES8_bxydS2_NSB_14adl_serializerENSE_IhNS2_IhEEEEvEEEEEEPSJ_EEE10__completeB8ue170006Ev, symObjAddr: 0x13148, symBinAddr: 0x100015E54, symSize: 0x1C }
  - { offsetInCU: 0x438CD, offset: 0x438CD, size: 0x8, addend: 0x0, symName: __ZNSt3__128__exception_guard_exceptionsINS_29_AllocatorDestroyRangeReverseINS_9allocatorINS_4pairIKNS_12basic_stringIcNS_11char_traitsIcEENS2_IcEEEEN8nlohmann16json_abi_v3_11_310basic_jsonINSB_11ordered_mapENS_6vectorES8_bxydS2_NSB_14adl_serializerENSE_IhNS2_IhEEEEvEEEEEEPSJ_EEED1B8ue170006Ev, symObjAddr: 0x13164, symBinAddr: 0x100015E70, symSize: 0x2C }
  - { offsetInCU: 0x438F7, offset: 0x438F7, size: 0x8, addend: 0x0, symName: __ZNSt3__128__exception_guard_exceptionsINS_29_AllocatorDestroyRangeReverseINS_9allocatorINS_4pairIKNS_12basic_stringIcNS_11char_traitsIcEENS2_IcEEEEN8nlohmann16json_abi_v3_11_310basic_jsonINSB_11ordered_mapENS_6vectorES8_bxydS2_NSB_14adl_serializerENSE_IhNS2_IhEEEEvEEEEEEPSJ_EEEC1B8ue170006ESM_, symObjAddr: 0x13190, symBinAddr: 0x100015E9C, symSize: 0x34 }
  - { offsetInCU: 0x43930, offset: 0x43930, size: 0x8, addend: 0x0, symName: __ZNSt3__128__exception_guard_exceptionsINS_29_AllocatorDestroyRangeReverseINS_9allocatorINS_4pairIKNS_12basic_stringIcNS_11char_traitsIcEENS2_IcEEEEN8nlohmann16json_abi_v3_11_310basic_jsonINSB_11ordered_mapENS_6vectorES8_bxydS2_NSB_14adl_serializerENSE_IhNS2_IhEEEEvEEEEEEPSJ_EEEC2B8ue170006ESM_, symObjAddr: 0x131C4, symBinAddr: 0x100015ED0, symSize: 0x30 }
  - { offsetInCU: 0x43969, offset: 0x43969, size: 0x8, addend: 0x0, symName: __ZNSt3__129_AllocatorDestroyRangeReverseINS_9allocatorINS_4pairIKNS_12basic_stringIcNS_11char_traitsIcEENS1_IcEEEEN8nlohmann16json_abi_v3_11_310basic_jsonINSA_11ordered_mapENS_6vectorES7_bxydS1_NSA_14adl_serializerENSD_IhNS1_IhEEEEvEEEEEEPSI_EC2B8ue170006ERSJ_RSK_SN_, symObjAddr: 0x131F4, symBinAddr: 0x100015F00, symSize: 0x38 }
  - { offsetInCU: 0x439C0, offset: 0x439C0, size: 0x8, addend: 0x0, symName: __ZNSt3__19allocatorINS_4pairIKNS_12basic_stringIcNS_11char_traitsIcEENS0_IcEEEEN8nlohmann16json_abi_v3_11_310basic_jsonINS9_11ordered_mapENS_6vectorES6_bxydS0_NS9_14adl_serializerENSC_IhNS0_IhEEEEvEEEEE9constructB8ue170006ISH_JRSH_EEEvPT_DpOT0_, symObjAddr: 0x1322C, symBinAddr: 0x100015F38, symSize: 0x30 }
  - { offsetInCU: 0x43A16, offset: 0x43A16, size: 0x8, addend: 0x0, symName: __ZNSt3__128__exception_guard_exceptionsINS_29_AllocatorDestroyRangeReverseINS_9allocatorINS_4pairIKNS_12basic_stringIcNS_11char_traitsIcEENS2_IcEEEEN8nlohmann16json_abi_v3_11_310basic_jsonINSB_11ordered_mapENS_6vectorES8_bxydS2_NSB_14adl_serializerENSE_IhNS2_IhEEEEvEEEEEEPSJ_EEED2B8ue170006Ev, symObjAddr: 0x1325C, symBinAddr: 0x100015F68, symSize: 0x50 }
  - { offsetInCU: 0x43A40, offset: 0x43A40, size: 0x8, addend: 0x0, symName: __ZNKSt3__129_AllocatorDestroyRangeReverseINS_9allocatorINS_4pairIKNS_12basic_stringIcNS_11char_traitsIcEENS1_IcEEEEN8nlohmann16json_abi_v3_11_310basic_jsonINSA_11ordered_mapENS_6vectorES7_bxydS1_NSA_14adl_serializerENSD_IhNS1_IhEEEEvEEEEEEPSI_EclB8ue170006Ev, symObjAddr: 0x132AC, symBinAddr: 0x100015FB8, symSize: 0x68 }
  - { offsetInCU: 0x43A66, offset: 0x43A66, size: 0x8, addend: 0x0, symName: __ZNSt3__118__unwrap_iter_implIPNS_4pairIKNS_12basic_stringIcNS_11char_traitsIcEENS_9allocatorIcEEEEN8nlohmann16json_abi_v3_11_310basic_jsonINSA_11ordered_mapENS_6vectorES7_bxydS5_NSA_14adl_serializerENSD_IhNS5_IhEEEEvEEEELb1EE8__unwrapB8ue170006ESJ_, symObjAddr: 0x13384, symBinAddr: 0x100016090, symSize: 0x24 }
  - { offsetInCU: 0x43A89, offset: 0x43A89, size: 0x8, addend: 0x0, symName: __ZNSt3__118__unwrap_iter_implIPNS_4pairIKNS_12basic_stringIcNS_11char_traitsIcEENS_9allocatorIcEEEEN8nlohmann16json_abi_v3_11_310basic_jsonINSA_11ordered_mapENS_6vectorES7_bxydS5_NSA_14adl_serializerENSD_IhNS5_IhEEEEvEEEELb1EE8__rewrapB8ue170006ESJ_SJ_, symObjAddr: 0x133A8, symBinAddr: 0x1000160B4, symSize: 0x58 }
  - { offsetInCU: 0x43ABA, offset: 0x43ABA, size: 0x8, addend: 0x0, symName: __ZNSt3__128__exception_guard_exceptionsINS_6vectorINS_4pairIKNS_12basic_stringIcNS_11char_traitsIcEENS_9allocatorIcEEEEN8nlohmann16json_abi_v3_11_310basic_jsonINSB_11ordered_mapES1_S8_bxydS6_NSB_14adl_serializerENS1_IhNS6_IhEEEEvEEEENS6_ISI_EEE16__destroy_vectorEED2B8ue170006Ev, symObjAddr: 0x13400, symBinAddr: 0x10001610C, symSize: 0x48 }
  - { offsetInCU: 0x43AE4, offset: 0x43AE4, size: 0x8, addend: 0x0, symName: __ZNKSt3__117__compressed_pairIPN8nlohmann16json_abi_v3_11_311ordered_mapINS_12basic_stringIcNS_11char_traitsIcEENS_9allocatorIcEEEENS2_10basic_jsonIS3_NS_6vectorES9_bxydS7_NS2_14adl_serializerENSB_IhNS7_IhEEEEvEENS_4lessIvEENS7_INS_4pairIKS9_SF_EEEEEEZNSF_6createISM_JRKSM_EEEPT_DpOT0_EUlSN_E_E5firstB8ue170006Ev, symObjAddr: 0x13448, symBinAddr: 0x100016154, symSize: 0x24 }
  - { offsetInCU: 0x43B0A, offset: 0x43B0A, size: 0x8, addend: 0x0, symName: __ZNKSt3__110unique_ptrIN8nlohmann16json_abi_v3_11_311ordered_mapINS_12basic_stringIcNS_11char_traitsIcEENS_9allocatorIcEEEENS2_10basic_jsonIS3_NS_6vectorES9_bxydS7_NS2_14adl_serializerENSB_IhNS7_IhEEEEvEENS_4lessIvEENS7_INS_4pairIKS9_SF_EEEEEEZNSF_6createISM_JRKSM_EEEPT_DpOT0_EUlPSM_E_EcvbB8ue170006Ev, symObjAddr: 0x1346C, symBinAddr: 0x100016178, symSize: 0x34 }
  - { offsetInCU: 0x43B30, offset: 0x43B30, size: 0x8, addend: 0x0, symName: __ZNSt3__117__compressed_pairIPN8nlohmann16json_abi_v3_11_311ordered_mapINS_12basic_stringIcNS_11char_traitsIcEENS_9allocatorIcEEEENS2_10basic_jsonIS3_NS_6vectorES9_bxydS7_NS2_14adl_serializerENSB_IhNS7_IhEEEEvEENS_4lessIvEENS7_INS_4pairIKS9_SF_EEEEEEZNSF_6createISM_JRKSM_EEEPT_DpOT0_EUlSN_E_E5firstB8ue170006Ev, symObjAddr: 0x134A0, symBinAddr: 0x1000161AC, symSize: 0x24 }
  - { offsetInCU: 0x43B56, offset: 0x43B56, size: 0x8, addend: 0x0, symName: __ZNSt3__110unique_ptrIN8nlohmann16json_abi_v3_11_311ordered_mapINS_12basic_stringIcNS_11char_traitsIcEENS_9allocatorIcEEEENS2_10basic_jsonIS3_NS_6vectorES9_bxydS7_NS2_14adl_serializerENSB_IhNS7_IhEEEEvEENS_4lessIvEENS7_INS_4pairIKS9_SF_EEEEEEZNSF_6createISM_JRKSM_EEEPT_DpOT0_EUlPSM_E_ED2B8ue170006Ev, symObjAddr: 0x134C4, symBinAddr: 0x1000161D0, symSize: 0x30 }
  - { offsetInCU: 0x43B80, offset: 0x43B80, size: 0x8, addend: 0x0, symName: __ZNSt3__110unique_ptrIN8nlohmann16json_abi_v3_11_311ordered_mapINS_12basic_stringIcNS_11char_traitsIcEENS_9allocatorIcEEEENS2_10basic_jsonIS3_NS_6vectorES9_bxydS7_NS2_14adl_serializerENSB_IhNS7_IhEEEEvEENS_4lessIvEENS7_INS_4pairIKS9_SF_EEEEEEZNSF_6createISM_JRKSM_EEEPT_DpOT0_EUlPSM_E_E5resetB8ue170006ESV_, symObjAddr: 0x134F4, symBinAddr: 0x100016200, symSize: 0x80 }
  - { offsetInCU: 0x43BC4, offset: 0x43BC4, size: 0x8, addend: 0x0, symName: __ZNSt3__117__compressed_pairIPN8nlohmann16json_abi_v3_11_311ordered_mapINS_12basic_stringIcNS_11char_traitsIcEENS_9allocatorIcEEEENS2_10basic_jsonIS3_NS_6vectorES9_bxydS7_NS2_14adl_serializerENSB_IhNS7_IhEEEEvEENS_4lessIvEENS7_INS_4pairIKS9_SF_EEEEEEZNSF_6createISM_JRKSM_EEEPT_DpOT0_EUlSN_E_E6secondB8ue170006Ev, symObjAddr: 0x13574, symBinAddr: 0x100016280, symSize: 0x28 }
  - { offsetInCU: 0x43BEF, offset: 0x43BEF, size: 0x8, addend: 0x0, symName: __ZZN8nlohmann16json_abi_v3_11_310basic_jsonINS0_11ordered_mapENSt3__16vectorENS3_12basic_stringIcNS3_11char_traitsIcEENS3_9allocatorIcEEEEbxydS8_NS0_14adl_serializerENS4_IhNS8_IhEEEEvE6createINS2_ISA_SE_NS3_4lessIvEENS8_INS3_4pairIKSA_SE_EEEEEEJRKSM_EEEPT_DpOT0_ENKUlPSM_E_clESU_, symObjAddr: 0x1359C, symBinAddr: 0x1000162A8, symSize: 0x34 }
  - { offsetInCU: 0x43C28, offset: 0x43C28, size: 0x8, addend: 0x0, symName: __ZNSt3__122__compressed_pair_elemIZN8nlohmann16json_abi_v3_11_310basic_jsonINS2_11ordered_mapENS_6vectorENS_12basic_stringIcNS_11char_traitsIcEENS_9allocatorIcEEEEbxydS9_NS2_14adl_serializerENS5_IhNS9_IhEEEEvE6createINS4_ISB_SF_NS_4lessIvEENS9_INS_4pairIKSB_SF_EEEEEEJRKSN_EEEPT_DpOT0_EUlPSN_E_Li1ELb0EE5__getB8ue170006Ev, symObjAddr: 0x135D0, symBinAddr: 0x1000162DC, symSize: 0x14 }
  - { offsetInCU: 0x43C4E, offset: 0x43C4E, size: 0x8, addend: 0x0, symName: __ZN8nlohmann16json_abi_v3_11_310basic_jsonINS0_11ordered_mapENSt3__16vectorENS3_12basic_stringIcNS3_11char_traitsIcEENS3_9allocatorIcEEEEbxydS8_NS0_14adl_serializerENS4_IhNS8_IhEEEEvE10json_valueC2ERKNS4_ISE_NS8_ISE_EEEE, symObjAddr: 0x135E4, symBinAddr: 0x1000162F0, symSize: 0x3C }
  - { offsetInCU: 0x43C87, offset: 0x43C87, size: 0x8, addend: 0x0, symName: __ZN8nlohmann16json_abi_v3_11_310basic_jsonINS0_11ordered_mapENSt3__16vectorENS3_12basic_stringIcNS3_11char_traitsIcEENS3_9allocatorIcEEEEbxydS8_NS0_14adl_serializerENS4_IhNS8_IhEEEEvE6createINS4_ISE_NS8_ISE_EEEEJRKSH_EEEPT_DpOT0_, symObjAddr: 0x13620, symBinAddr: 0x10001632C, symSize: 0xF4 }
  - { offsetInCU: 0x43D85, offset: 0x43D85, size: 0x8, addend: 0x0, symName: __ZNSt3__110unique_ptrINS_6vectorIN8nlohmann16json_abi_v3_11_310basic_jsonINS3_11ordered_mapES1_NS_12basic_stringIcNS_11char_traitsIcEENS_9allocatorIcEEEEbxydS9_NS3_14adl_serializerENS1_IhNS9_IhEEEEvEENS9_ISF_EEEEZNSF_6createISH_JRKSH_EEEPT_DpOT0_EUlPSH_E_EC1B8ue170006ILb1EvEESQ_NS_16__dependent_typeINS_27__unique_ptr_deleter_sfinaeISR_EEXT_EE15__lval_ref_typeE, symObjAddr: 0x13714, symBinAddr: 0x100016420, symSize: 0x3C }
  - { offsetInCU: 0x43DD6, offset: 0x43DD6, size: 0x8, addend: 0x0, symName: __ZNSt3__116allocator_traitsINS_9allocatorINS_6vectorIN8nlohmann16json_abi_v3_11_310basic_jsonINS4_11ordered_mapES2_NS_12basic_stringIcNS_11char_traitsIcEENS1_IcEEEEbxydS1_NS4_14adl_serializerENS2_IhNS1_IhEEEEvEENS1_ISF_EEEEEEE9constructB8ue170006ISH_JRKSH_EvEEvRSI_PT_DpOT0_, symObjAddr: 0x13750, symBinAddr: 0x10001645C, symSize: 0x34 }
  - { offsetInCU: 0x43E2D, offset: 0x43E2D, size: 0x8, addend: 0x0, symName: __ZNKSt3__110unique_ptrINS_6vectorIN8nlohmann16json_abi_v3_11_310basic_jsonINS3_11ordered_mapES1_NS_12basic_stringIcNS_11char_traitsIcEENS_9allocatorIcEEEEbxydS9_NS3_14adl_serializerENS1_IhNS9_IhEEEEvEENS9_ISF_EEEEZNSF_6createISH_JRKSH_EEEPT_DpOT0_EUlPSH_E_E3getB8ue170006Ev, symObjAddr: 0x13784, symBinAddr: 0x100016490, symSize: 0x28 }
  - { offsetInCU: 0x43E53, offset: 0x43E53, size: 0x8, addend: 0x0, symName: __ZNSt3__110unique_ptrINS_6vectorIN8nlohmann16json_abi_v3_11_310basic_jsonINS3_11ordered_mapES1_NS_12basic_stringIcNS_11char_traitsIcEENS_9allocatorIcEEEEbxydS9_NS3_14adl_serializerENS1_IhNS9_IhEEEEvEENS9_ISF_EEEEZNSF_6createISH_JRKSH_EEEPT_DpOT0_EUlPSH_E_E7releaseB8ue170006Ev, symObjAddr: 0x137D8, symBinAddr: 0x1000164E4, symSize: 0x44 }
  - { offsetInCU: 0x43E88, offset: 0x43E88, size: 0x8, addend: 0x0, symName: __ZNSt3__110unique_ptrINS_6vectorIN8nlohmann16json_abi_v3_11_310basic_jsonINS3_11ordered_mapES1_NS_12basic_stringIcNS_11char_traitsIcEENS_9allocatorIcEEEEbxydS9_NS3_14adl_serializerENS1_IhNS9_IhEEEEvEENS9_ISF_EEEEZNSF_6createISH_JRKSH_EEEPT_DpOT0_EUlPSH_E_ED1B8ue170006Ev, symObjAddr: 0x1381C, symBinAddr: 0x100016528, symSize: 0x2C }
  - { offsetInCU: 0x43EB2, offset: 0x43EB2, size: 0x8, addend: 0x0, symName: __ZNSt3__110unique_ptrINS_6vectorIN8nlohmann16json_abi_v3_11_310basic_jsonINS3_11ordered_mapES1_NS_12basic_stringIcNS_11char_traitsIcEENS_9allocatorIcEEEEbxydS9_NS3_14adl_serializerENS1_IhNS9_IhEEEEvEENS9_ISF_EEEEZNSF_6createISH_JRKSH_EEEPT_DpOT0_EUlPSH_E_EC2B8ue170006ILb1EvEESQ_NS_16__dependent_typeINS_27__unique_ptr_deleter_sfinaeISR_EEXT_EE15__lval_ref_typeE, symObjAddr: 0x13848, symBinAddr: 0x100016554, symSize: 0x48 }
  - { offsetInCU: 0x43F03, offset: 0x43F03, size: 0x8, addend: 0x0, symName: __ZNSt3__117__compressed_pairIPNS_6vectorIN8nlohmann16json_abi_v3_11_310basic_jsonINS3_11ordered_mapES1_NS_12basic_stringIcNS_11char_traitsIcEENS_9allocatorIcEEEEbxydS9_NS3_14adl_serializerENS1_IhNS9_IhEEEEvEENS9_ISF_EEEEZNSF_6createISH_JRKSH_EEEPT_DpOT0_EUlSI_E_EC1B8ue170006IRSI_RKSR_EEOSM_OT0_, symObjAddr: 0x13890, symBinAddr: 0x10001659C, symSize: 0x3C }
  - { offsetInCU: 0x43F5B, offset: 0x43F5B, size: 0x8, addend: 0x0, symName: __ZNSt3__117__compressed_pairIPNS_6vectorIN8nlohmann16json_abi_v3_11_310basic_jsonINS3_11ordered_mapES1_NS_12basic_stringIcNS_11char_traitsIcEENS_9allocatorIcEEEEbxydS9_NS3_14adl_serializerENS1_IhNS9_IhEEEEvEENS9_ISF_EEEEZNSF_6createISH_JRKSH_EEEPT_DpOT0_EUlSI_E_EC2B8ue170006IRSI_RKSR_EEOSM_OT0_, symObjAddr: 0x138CC, symBinAddr: 0x1000165D8, symSize: 0x48 }
  - { offsetInCU: 0x43FB3, offset: 0x43FB3, size: 0x8, addend: 0x0, symName: __ZNSt3__122__compressed_pair_elemIZN8nlohmann16json_abi_v3_11_310basic_jsonINS2_11ordered_mapENS_6vectorENS_12basic_stringIcNS_11char_traitsIcEENS_9allocatorIcEEEEbxydS9_NS2_14adl_serializerENS5_IhNS9_IhEEEEvE6createINS5_ISF_NS9_ISF_EEEEJRKSI_EEEPT_DpOT0_EUlPSI_E_Li1ELb0EEC2B8ue170006IRKSR_vEEOSL_, symObjAddr: 0x13914, symBinAddr: 0x100016620, symSize: 0x24 }
  - { offsetInCU: 0x43FF5, offset: 0x43FF5, size: 0x8, addend: 0x0, symName: __ZNSt3__19allocatorINS_6vectorIN8nlohmann16json_abi_v3_11_310basic_jsonINS3_11ordered_mapES1_NS_12basic_stringIcNS_11char_traitsIcEENS0_IcEEEEbxydS0_NS3_14adl_serializerENS1_IhNS0_IhEEEEvEENS0_ISE_EEEEE9constructB8ue170006ISG_JRKSG_EEEvPT_DpOT0_, symObjAddr: 0x13938, symBinAddr: 0x100016644, symSize: 0x30 }
  - { offsetInCU: 0x4404B, offset: 0x4404B, size: 0x8, addend: 0x0, symName: __ZNSt3__16vectorIN8nlohmann16json_abi_v3_11_310basic_jsonINS2_11ordered_mapES0_NS_12basic_stringIcNS_11char_traitsIcEENS_9allocatorIcEEEEbxydS8_NS2_14adl_serializerENS0_IhNS8_IhEEEEvEENS8_ISE_EEEC1ERKSG_, symObjAddr: 0x13968, symBinAddr: 0x100016674, symSize: 0x34 }
  - { offsetInCU: 0x44086, offset: 0x44086, size: 0x8, addend: 0x0, symName: __ZNSt3__16vectorIN8nlohmann16json_abi_v3_11_310basic_jsonINS2_11ordered_mapES0_NS_12basic_stringIcNS_11char_traitsIcEENS_9allocatorIcEEEEbxydS8_NS2_14adl_serializerENS0_IhNS8_IhEEEEvEENS8_ISE_EEEC2ERKSG_, symObjAddr: 0x1399C, symBinAddr: 0x1000166A8, symSize: 0x94 }
  - { offsetInCU: 0x440C1, offset: 0x440C1, size: 0x8, addend: 0x0, symName: __ZNSt3__116allocator_traitsINS_9allocatorIN8nlohmann16json_abi_v3_11_310basic_jsonINS3_11ordered_mapENS_6vectorENS_12basic_stringIcNS_11char_traitsIcEENS1_IcEEEEbxydS1_NS3_14adl_serializerENS6_IhNS1_IhEEEEvEEEEE37select_on_container_copy_constructionB8ue170006ISG_vvEESG_RKSG_, symObjAddr: 0x13A30, symBinAddr: 0x10001673C, symSize: 0x10 }
  - { offsetInCU: 0x440F6, offset: 0x440F6, size: 0x8, addend: 0x0, symName: __ZNSt3__117__compressed_pairIPN8nlohmann16json_abi_v3_11_310basic_jsonINS2_11ordered_mapENS_6vectorENS_12basic_stringIcNS_11char_traitsIcEENS_9allocatorIcEEEEbxydS9_NS2_14adl_serializerENS5_IhNS9_IhEEEEvEENS9_ISF_EEEC1B8ue170006IDnSH_EEOT_OT0_, symObjAddr: 0x13A40, symBinAddr: 0x10001674C, symSize: 0x3C }
  - { offsetInCU: 0x4414E, offset: 0x4414E, size: 0x8, addend: 0x0, symName: __ZNSt3__16vectorIN8nlohmann16json_abi_v3_11_310basic_jsonINS2_11ordered_mapES0_NS_12basic_stringIcNS_11char_traitsIcEENS_9allocatorIcEEEEbxydS8_NS2_14adl_serializerENS0_IhNS8_IhEEEEvEENS8_ISE_EEE16__init_with_sizeB8ue170006IPSE_SI_EEvT_T0_m, symObjAddr: 0x13A7C, symBinAddr: 0x100016788, symSize: 0xB8 }
  - { offsetInCU: 0x441C2, offset: 0x441C2, size: 0x8, addend: 0x0, symName: __ZNSt3__117__compressed_pairIPN8nlohmann16json_abi_v3_11_310basic_jsonINS2_11ordered_mapENS_6vectorENS_12basic_stringIcNS_11char_traitsIcEENS_9allocatorIcEEEEbxydS9_NS2_14adl_serializerENS5_IhNS9_IhEEEEvEENS9_ISF_EEEC2B8ue170006IDnSH_EEOT_OT0_, symObjAddr: 0x13B34, symBinAddr: 0x100016840, symSize: 0x44 }
  - { offsetInCU: 0x4421A, offset: 0x4421A, size: 0x8, addend: 0x0, symName: __ZNSt3__122__compressed_pair_elemINS_9allocatorIN8nlohmann16json_abi_v3_11_310basic_jsonINS3_11ordered_mapENS_6vectorENS_12basic_stringIcNS_11char_traitsIcEENS1_IcEEEEbxydS1_NS3_14adl_serializerENS6_IhNS1_IhEEEEvEEEELi1ELb1EEC2B8ue170006ISG_vEEOT_, symObjAddr: 0x13B78, symBinAddr: 0x100016884, symSize: 0x18 }
  - { offsetInCU: 0x4425C, offset: 0x4425C, size: 0x8, addend: 0x0, symName: __ZNSt3__16vectorIN8nlohmann16json_abi_v3_11_310basic_jsonINS2_11ordered_mapES0_NS_12basic_stringIcNS_11char_traitsIcEENS_9allocatorIcEEEEbxydS8_NS2_14adl_serializerENS0_IhNS8_IhEEEEvEENS8_ISE_EEE11__vallocateB8ue170006Em, symObjAddr: 0x13BD0, symBinAddr: 0x1000168DC, symSize: 0xAC }
  - { offsetInCU: 0x442A0, offset: 0x442A0, size: 0x8, addend: 0x0, symName: __ZNSt3__16vectorIN8nlohmann16json_abi_v3_11_310basic_jsonINS2_11ordered_mapES0_NS_12basic_stringIcNS_11char_traitsIcEENS_9allocatorIcEEEEbxydS8_NS2_14adl_serializerENS0_IhNS8_IhEEEEvEENS8_ISE_EEE18__construct_at_endIPSE_SI_EEvT_T0_m, symObjAddr: 0x13C7C, symBinAddr: 0x100016988, symSize: 0x8C }
  - { offsetInCU: 0x44316, offset: 0x44316, size: 0x8, addend: 0x0, symName: __ZNSt3__128__exception_guard_exceptionsINS_6vectorIN8nlohmann16json_abi_v3_11_310basic_jsonINS3_11ordered_mapES1_NS_12basic_stringIcNS_11char_traitsIcEENS_9allocatorIcEEEEbxydS9_NS3_14adl_serializerENS1_IhNS9_IhEEEEvEENS9_ISF_EEE16__destroy_vectorEE10__completeB8ue170006Ev, symObjAddr: 0x13D08, symBinAddr: 0x100016A14, symSize: 0x1C }
  - { offsetInCU: 0x4433C, offset: 0x4433C, size: 0x8, addend: 0x0, symName: __ZNSt3__128__exception_guard_exceptionsINS_6vectorIN8nlohmann16json_abi_v3_11_310basic_jsonINS3_11ordered_mapES1_NS_12basic_stringIcNS_11char_traitsIcEENS_9allocatorIcEEEEbxydS9_NS3_14adl_serializerENS1_IhNS9_IhEEEEvEENS9_ISF_EEE16__destroy_vectorEED1B8ue170006Ev, symObjAddr: 0x13D24, symBinAddr: 0x100016A30, symSize: 0x2C }
  - { offsetInCU: 0x44366, offset: 0x44366, size: 0x8, addend: 0x0, symName: __ZNSt3__128__exception_guard_exceptionsINS_6vectorIN8nlohmann16json_abi_v3_11_310basic_jsonINS3_11ordered_mapES1_NS_12basic_stringIcNS_11char_traitsIcEENS_9allocatorIcEEEEbxydS9_NS3_14adl_serializerENS1_IhNS9_IhEEEEvEENS9_ISF_EEE16__destroy_vectorEEC1B8ue170006ESI_, symObjAddr: 0x13D50, symBinAddr: 0x100016A5C, symSize: 0x34 }
  - { offsetInCU: 0x4439E, offset: 0x4439E, size: 0x8, addend: 0x0, symName: __ZNSt3__128__exception_guard_exceptionsINS_6vectorIN8nlohmann16json_abi_v3_11_310basic_jsonINS3_11ordered_mapES1_NS_12basic_stringIcNS_11char_traitsIcEENS_9allocatorIcEEEEbxydS9_NS3_14adl_serializerENS1_IhNS9_IhEEEEvEENS9_ISF_EEE16__destroy_vectorEEC2B8ue170006ESI_, symObjAddr: 0x13D84, symBinAddr: 0x100016A90, symSize: 0x24 }
  - { offsetInCU: 0x443D6, offset: 0x443D6, size: 0x8, addend: 0x0, symName: __ZNSt3__129_AllocatorDestroyRangeReverseINS_9allocatorIN8nlohmann16json_abi_v3_11_310basic_jsonINS3_11ordered_mapENS_6vectorENS_12basic_stringIcNS_11char_traitsIcEENS1_IcEEEEbxydS1_NS3_14adl_serializerENS6_IhNS1_IhEEEEvEEEEPSF_EC1B8ue170006ERSG_RSH_SK_, symObjAddr: 0x14028, symBinAddr: 0x100016D34, symSize: 0x44 }
  - { offsetInCU: 0x4442D, offset: 0x4442D, size: 0x8, addend: 0x0, symName: __ZNSt3__116allocator_traitsINS_9allocatorIN8nlohmann16json_abi_v3_11_310basic_jsonINS3_11ordered_mapENS_6vectorENS_12basic_stringIcNS_11char_traitsIcEENS1_IcEEEEbxydS1_NS3_14adl_serializerENS6_IhNS1_IhEEEEvEEEEE9constructB8ue170006ISF_JRSF_EvEEvRSG_PT_DpOT0_, symObjAddr: 0x1406C, symBinAddr: 0x100016D78, symSize: 0x34 }
  - { offsetInCU: 0x44484, offset: 0x44484, size: 0x8, addend: 0x0, symName: __ZNSt3__128__exception_guard_exceptionsINS_29_AllocatorDestroyRangeReverseINS_9allocatorIN8nlohmann16json_abi_v3_11_310basic_jsonINS4_11ordered_mapENS_6vectorENS_12basic_stringIcNS_11char_traitsIcEENS2_IcEEEEbxydS2_NS4_14adl_serializerENS7_IhNS2_IhEEEEvEEEEPSG_EEE10__completeB8ue170006Ev, symObjAddr: 0x140A0, symBinAddr: 0x100016DAC, symSize: 0x1C }
  - { offsetInCU: 0x444AA, offset: 0x444AA, size: 0x8, addend: 0x0, symName: __ZNSt3__128__exception_guard_exceptionsINS_29_AllocatorDestroyRangeReverseINS_9allocatorIN8nlohmann16json_abi_v3_11_310basic_jsonINS4_11ordered_mapENS_6vectorENS_12basic_stringIcNS_11char_traitsIcEENS2_IcEEEEbxydS2_NS4_14adl_serializerENS7_IhNS2_IhEEEEvEEEEPSG_EEED1B8ue170006Ev, symObjAddr: 0x140BC, symBinAddr: 0x100016DC8, symSize: 0x2C }
  - { offsetInCU: 0x444D4, offset: 0x444D4, size: 0x8, addend: 0x0, symName: __ZNSt3__128__exception_guard_exceptionsINS_29_AllocatorDestroyRangeReverseINS_9allocatorIN8nlohmann16json_abi_v3_11_310basic_jsonINS4_11ordered_mapENS_6vectorENS_12basic_stringIcNS_11char_traitsIcEENS2_IcEEEEbxydS2_NS4_14adl_serializerENS7_IhNS2_IhEEEEvEEEEPSG_EEEC1B8ue170006ESJ_, symObjAddr: 0x140E8, symBinAddr: 0x100016DF4, symSize: 0x34 }
  - { offsetInCU: 0x4450D, offset: 0x4450D, size: 0x8, addend: 0x0, symName: __ZNSt3__128__exception_guard_exceptionsINS_29_AllocatorDestroyRangeReverseINS_9allocatorIN8nlohmann16json_abi_v3_11_310basic_jsonINS4_11ordered_mapENS_6vectorENS_12basic_stringIcNS_11char_traitsIcEENS2_IcEEEEbxydS2_NS4_14adl_serializerENS7_IhNS2_IhEEEEvEEEEPSG_EEEC2B8ue170006ESJ_, symObjAddr: 0x1411C, symBinAddr: 0x100016E28, symSize: 0x30 }
  - { offsetInCU: 0x44546, offset: 0x44546, size: 0x8, addend: 0x0, symName: __ZNSt3__129_AllocatorDestroyRangeReverseINS_9allocatorIN8nlohmann16json_abi_v3_11_310basic_jsonINS3_11ordered_mapENS_6vectorENS_12basic_stringIcNS_11char_traitsIcEENS1_IcEEEEbxydS1_NS3_14adl_serializerENS6_IhNS1_IhEEEEvEEEEPSF_EC2B8ue170006ERSG_RSH_SK_, symObjAddr: 0x1414C, symBinAddr: 0x100016E58, symSize: 0x38 }
  - { offsetInCU: 0x4459D, offset: 0x4459D, size: 0x8, addend: 0x0, symName: __ZNSt3__19allocatorIN8nlohmann16json_abi_v3_11_310basic_jsonINS2_11ordered_mapENS_6vectorENS_12basic_stringIcNS_11char_traitsIcEENS0_IcEEEEbxydS0_NS2_14adl_serializerENS5_IhNS0_IhEEEEvEEE9constructB8ue170006ISE_JRSE_EEEvPT_DpOT0_, symObjAddr: 0x14184, symBinAddr: 0x100016E90, symSize: 0x30 }
  - { offsetInCU: 0x445F3, offset: 0x445F3, size: 0x8, addend: 0x0, symName: __ZNSt3__128__exception_guard_exceptionsINS_29_AllocatorDestroyRangeReverseINS_9allocatorIN8nlohmann16json_abi_v3_11_310basic_jsonINS4_11ordered_mapENS_6vectorENS_12basic_stringIcNS_11char_traitsIcEENS2_IcEEEEbxydS2_NS4_14adl_serializerENS7_IhNS2_IhEEEEvEEEEPSG_EEED2B8ue170006Ev, symObjAddr: 0x141B4, symBinAddr: 0x100016EC0, symSize: 0x50 }
  - { offsetInCU: 0x4461D, offset: 0x4461D, size: 0x8, addend: 0x0, symName: __ZNKSt3__129_AllocatorDestroyRangeReverseINS_9allocatorIN8nlohmann16json_abi_v3_11_310basic_jsonINS3_11ordered_mapENS_6vectorENS_12basic_stringIcNS_11char_traitsIcEENS1_IcEEEEbxydS1_NS3_14adl_serializerENS6_IhNS1_IhEEEEvEEEEPSF_EclB8ue170006Ev, symObjAddr: 0x14204, symBinAddr: 0x100016F10, symSize: 0x68 }
  - { offsetInCU: 0x44643, offset: 0x44643, size: 0x8, addend: 0x0, symName: __ZNSt3__118__unwrap_iter_implIPN8nlohmann16json_abi_v3_11_310basic_jsonINS2_11ordered_mapENS_6vectorENS_12basic_stringIcNS_11char_traitsIcEENS_9allocatorIcEEEEbxydS9_NS2_14adl_serializerENS5_IhNS9_IhEEEEvEELb1EE8__unwrapB8ue170006ESG_, symObjAddr: 0x142DC, symBinAddr: 0x100016FE8, symSize: 0x24 }
  - { offsetInCU: 0x44666, offset: 0x44666, size: 0x8, addend: 0x0, symName: __ZNSt3__118__unwrap_iter_implIPN8nlohmann16json_abi_v3_11_310basic_jsonINS2_11ordered_mapENS_6vectorENS_12basic_stringIcNS_11char_traitsIcEENS_9allocatorIcEEEEbxydS9_NS2_14adl_serializerENS5_IhNS9_IhEEEEvEELb1EE8__rewrapB8ue170006ESG_SG_, symObjAddr: 0x14300, symBinAddr: 0x10001700C, symSize: 0x50 }
  - { offsetInCU: 0x44697, offset: 0x44697, size: 0x8, addend: 0x0, symName: __ZNSt3__128__exception_guard_exceptionsINS_6vectorIN8nlohmann16json_abi_v3_11_310basic_jsonINS3_11ordered_mapES1_NS_12basic_stringIcNS_11char_traitsIcEENS_9allocatorIcEEEEbxydS9_NS3_14adl_serializerENS1_IhNS9_IhEEEEvEENS9_ISF_EEE16__destroy_vectorEED2B8ue170006Ev, symObjAddr: 0x14350, symBinAddr: 0x10001705C, symSize: 0x48 }
  - { offsetInCU: 0x446C1, offset: 0x446C1, size: 0x8, addend: 0x0, symName: __ZNKSt3__117__compressed_pairIPNS_6vectorIN8nlohmann16json_abi_v3_11_310basic_jsonINS3_11ordered_mapES1_NS_12basic_stringIcNS_11char_traitsIcEENS_9allocatorIcEEEEbxydS9_NS3_14adl_serializerENS1_IhNS9_IhEEEEvEENS9_ISF_EEEEZNSF_6createISH_JRKSH_EEEPT_DpOT0_EUlSI_E_E5firstB8ue170006Ev, symObjAddr: 0x14398, symBinAddr: 0x1000170A4, symSize: 0x24 }
  - { offsetInCU: 0x446E7, offset: 0x446E7, size: 0x8, addend: 0x0, symName: __ZNKSt3__110unique_ptrINS_6vectorIN8nlohmann16json_abi_v3_11_310basic_jsonINS3_11ordered_mapES1_NS_12basic_stringIcNS_11char_traitsIcEENS_9allocatorIcEEEEbxydS9_NS3_14adl_serializerENS1_IhNS9_IhEEEEvEENS9_ISF_EEEEZNSF_6createISH_JRKSH_EEEPT_DpOT0_EUlPSH_E_EcvbB8ue170006Ev, symObjAddr: 0x143BC, symBinAddr: 0x1000170C8, symSize: 0x34 }
  - { offsetInCU: 0x4470D, offset: 0x4470D, size: 0x8, addend: 0x0, symName: __ZNSt3__117__compressed_pairIPNS_6vectorIN8nlohmann16json_abi_v3_11_310basic_jsonINS3_11ordered_mapES1_NS_12basic_stringIcNS_11char_traitsIcEENS_9allocatorIcEEEEbxydS9_NS3_14adl_serializerENS1_IhNS9_IhEEEEvEENS9_ISF_EEEEZNSF_6createISH_JRKSH_EEEPT_DpOT0_EUlSI_E_E5firstB8ue170006Ev, symObjAddr: 0x143F0, symBinAddr: 0x1000170FC, symSize: 0x24 }
  - { offsetInCU: 0x44733, offset: 0x44733, size: 0x8, addend: 0x0, symName: __ZNSt3__110unique_ptrINS_6vectorIN8nlohmann16json_abi_v3_11_310basic_jsonINS3_11ordered_mapES1_NS_12basic_stringIcNS_11char_traitsIcEENS_9allocatorIcEEEEbxydS9_NS3_14adl_serializerENS1_IhNS9_IhEEEEvEENS9_ISF_EEEEZNSF_6createISH_JRKSH_EEEPT_DpOT0_EUlPSH_E_ED2B8ue170006Ev, symObjAddr: 0x14414, symBinAddr: 0x100017120, symSize: 0x30 }
  - { offsetInCU: 0x4475D, offset: 0x4475D, size: 0x8, addend: 0x0, symName: __ZNSt3__110unique_ptrINS_6vectorIN8nlohmann16json_abi_v3_11_310basic_jsonINS3_11ordered_mapES1_NS_12basic_stringIcNS_11char_traitsIcEENS_9allocatorIcEEEEbxydS9_NS3_14adl_serializerENS1_IhNS9_IhEEEEvEENS9_ISF_EEEEZNSF_6createISH_JRKSH_EEEPT_DpOT0_EUlPSH_E_E5resetB8ue170006ESQ_, symObjAddr: 0x14444, symBinAddr: 0x100017150, symSize: 0x80 }
  - { offsetInCU: 0x447A1, offset: 0x447A1, size: 0x8, addend: 0x0, symName: __ZNSt3__117__compressed_pairIPNS_6vectorIN8nlohmann16json_abi_v3_11_310basic_jsonINS3_11ordered_mapES1_NS_12basic_stringIcNS_11char_traitsIcEENS_9allocatorIcEEEEbxydS9_NS3_14adl_serializerENS1_IhNS9_IhEEEEvEENS9_ISF_EEEEZNSF_6createISH_JRKSH_EEEPT_DpOT0_EUlSI_E_E6secondB8ue170006Ev, symObjAddr: 0x144C4, symBinAddr: 0x1000171D0, symSize: 0x28 }
  - { offsetInCU: 0x447CC, offset: 0x447CC, size: 0x8, addend: 0x0, symName: __ZZN8nlohmann16json_abi_v3_11_310basic_jsonINS0_11ordered_mapENSt3__16vectorENS3_12basic_stringIcNS3_11char_traitsIcEENS3_9allocatorIcEEEEbxydS8_NS0_14adl_serializerENS4_IhNS8_IhEEEEvE6createINS4_ISE_NS8_ISE_EEEEJRKSH_EEEPT_DpOT0_ENKUlPSH_E_clESP_, symObjAddr: 0x144EC, symBinAddr: 0x1000171F8, symSize: 0x34 }
  - { offsetInCU: 0x44805, offset: 0x44805, size: 0x8, addend: 0x0, symName: __ZNSt3__122__compressed_pair_elemIZN8nlohmann16json_abi_v3_11_310basic_jsonINS2_11ordered_mapENS_6vectorENS_12basic_stringIcNS_11char_traitsIcEENS_9allocatorIcEEEEbxydS9_NS2_14adl_serializerENS5_IhNS9_IhEEEEvE6createINS5_ISF_NS9_ISF_EEEEJRKSI_EEEPT_DpOT0_EUlPSI_E_Li1ELb0EE5__getB8ue170006Ev, symObjAddr: 0x14520, symBinAddr: 0x10001722C, symSize: 0x14 }
  - { offsetInCU: 0x4482B, offset: 0x4482B, size: 0x8, addend: 0x0, symName: __ZN8nlohmann16json_abi_v3_11_310basic_jsonINS0_11ordered_mapENSt3__16vectorENS3_12basic_stringIcNS3_11char_traitsIcEENS3_9allocatorIcEEEEbxydS8_NS0_14adl_serializerENS4_IhNS8_IhEEEEvE10json_valueC2ERKSA_, symObjAddr: 0x14534, symBinAddr: 0x100017240, symSize: 0x3C }
  - { offsetInCU: 0x44864, offset: 0x44864, size: 0x8, addend: 0x0, symName: __ZN8nlohmann16json_abi_v3_11_310basic_jsonINS0_11ordered_mapENSt3__16vectorENS3_12basic_stringIcNS3_11char_traitsIcEENS3_9allocatorIcEEEEbxydS8_NS0_14adl_serializerENS4_IhNS8_IhEEEEvE6createISA_JRKSA_EEEPT_DpOT0_, symObjAddr: 0x14570, symBinAddr: 0x10001727C, symSize: 0xF4 }
  - { offsetInCU: 0x44962, offset: 0x44962, size: 0x8, addend: 0x0, symName: __ZNSt3__110unique_ptrINS_12basic_stringIcNS_11char_traitsIcEENS_9allocatorIcEEEEZN8nlohmann16json_abi_v3_11_310basic_jsonINS8_11ordered_mapENS_6vectorES6_bxydS4_NS8_14adl_serializerENSB_IhNS4_IhEEEEvE6createIS6_JRKS6_EEEPT_DpOT0_EUlPS6_E_EC1B8ue170006ILb1EvEESO_NS_16__dependent_typeINS_27__unique_ptr_deleter_sfinaeISP_EEXT_EE15__lval_ref_typeE, symObjAddr: 0x14664, symBinAddr: 0x100017370, symSize: 0x3C }
  - { offsetInCU: 0x449B3, offset: 0x449B3, size: 0x8, addend: 0x0, symName: __ZNSt3__116allocator_traitsINS_9allocatorINS_12basic_stringIcNS_11char_traitsIcEENS1_IcEEEEEEE9constructB8ue170006IS6_JRKS6_EvEEvRS7_PT_DpOT0_, symObjAddr: 0x146A0, symBinAddr: 0x1000173AC, symSize: 0x34 }
  - { offsetInCU: 0x44A0A, offset: 0x44A0A, size: 0x8, addend: 0x0, symName: __ZNKSt3__110unique_ptrINS_12basic_stringIcNS_11char_traitsIcEENS_9allocatorIcEEEEZN8nlohmann16json_abi_v3_11_310basic_jsonINS8_11ordered_mapENS_6vectorES6_bxydS4_NS8_14adl_serializerENSB_IhNS4_IhEEEEvE6createIS6_JRKS6_EEEPT_DpOT0_EUlPS6_E_E3getB8ue170006Ev, symObjAddr: 0x146D4, symBinAddr: 0x1000173E0, symSize: 0x28 }
  - { offsetInCU: 0x44A30, offset: 0x44A30, size: 0x8, addend: 0x0, symName: __ZNSt3__110unique_ptrINS_12basic_stringIcNS_11char_traitsIcEENS_9allocatorIcEEEEZN8nlohmann16json_abi_v3_11_310basic_jsonINS8_11ordered_mapENS_6vectorES6_bxydS4_NS8_14adl_serializerENSB_IhNS4_IhEEEEvE6createIS6_JRKS6_EEEPT_DpOT0_EUlPS6_E_E7releaseB8ue170006Ev, symObjAddr: 0x14728, symBinAddr: 0x100017434, symSize: 0x44 }
  - { offsetInCU: 0x44A65, offset: 0x44A65, size: 0x8, addend: 0x0, symName: __ZNSt3__110unique_ptrINS_12basic_stringIcNS_11char_traitsIcEENS_9allocatorIcEEEEZN8nlohmann16json_abi_v3_11_310basic_jsonINS8_11ordered_mapENS_6vectorES6_bxydS4_NS8_14adl_serializerENSB_IhNS4_IhEEEEvE6createIS6_JRKS6_EEEPT_DpOT0_EUlPS6_E_ED1B8ue170006Ev, symObjAddr: 0x1476C, symBinAddr: 0x100017478, symSize: 0x2C }
  - { offsetInCU: 0x44A8F, offset: 0x44A8F, size: 0x8, addend: 0x0, symName: __ZNSt3__110unique_ptrINS_12basic_stringIcNS_11char_traitsIcEENS_9allocatorIcEEEEZN8nlohmann16json_abi_v3_11_310basic_jsonINS8_11ordered_mapENS_6vectorES6_bxydS4_NS8_14adl_serializerENSB_IhNS4_IhEEEEvE6createIS6_JRKS6_EEEPT_DpOT0_EUlPS6_E_EC2B8ue170006ILb1EvEESO_NS_16__dependent_typeINS_27__unique_ptr_deleter_sfinaeISP_EEXT_EE15__lval_ref_typeE, symObjAddr: 0x14798, symBinAddr: 0x1000174A4, symSize: 0x48 }
  - { offsetInCU: 0x44AE0, offset: 0x44AE0, size: 0x8, addend: 0x0, symName: __ZNSt3__117__compressed_pairIPNS_12basic_stringIcNS_11char_traitsIcEENS_9allocatorIcEEEEZN8nlohmann16json_abi_v3_11_310basic_jsonINS9_11ordered_mapENS_6vectorES6_bxydS4_NS9_14adl_serializerENSC_IhNS4_IhEEEEvE6createIS6_JRKS6_EEEPT_DpOT0_EUlS7_E_EC1B8ue170006IRS7_RKSP_EEOSK_OT0_, symObjAddr: 0x147E0, symBinAddr: 0x1000174EC, symSize: 0x3C }
  - { offsetInCU: 0x44B38, offset: 0x44B38, size: 0x8, addend: 0x0, symName: __ZNSt3__117__compressed_pairIPNS_12basic_stringIcNS_11char_traitsIcEENS_9allocatorIcEEEEZN8nlohmann16json_abi_v3_11_310basic_jsonINS9_11ordered_mapENS_6vectorES6_bxydS4_NS9_14adl_serializerENSC_IhNS4_IhEEEEvE6createIS6_JRKS6_EEEPT_DpOT0_EUlS7_E_EC2B8ue170006IRS7_RKSP_EEOSK_OT0_, symObjAddr: 0x1481C, symBinAddr: 0x100017528, symSize: 0x48 }
  - { offsetInCU: 0x44B90, offset: 0x44B90, size: 0x8, addend: 0x0, symName: __ZNSt3__122__compressed_pair_elemIZN8nlohmann16json_abi_v3_11_310basic_jsonINS2_11ordered_mapENS_6vectorENS_12basic_stringIcNS_11char_traitsIcEENS_9allocatorIcEEEEbxydS9_NS2_14adl_serializerENS5_IhNS9_IhEEEEvE6createISB_JRKSB_EEEPT_DpOT0_EUlPSB_E_Li1ELb0EEC2B8ue170006IRKSP_vEEOSJ_, symObjAddr: 0x14864, symBinAddr: 0x100017570, symSize: 0x24 }
  - { offsetInCU: 0x44BD2, offset: 0x44BD2, size: 0x8, addend: 0x0, symName: __ZNSt3__19allocatorINS_12basic_stringIcNS_11char_traitsIcEENS0_IcEEEEE9constructB8ue170006IS5_JRKS5_EEEvPT_DpOT0_, symObjAddr: 0x14888, symBinAddr: 0x100017594, symSize: 0x30 }
  - { offsetInCU: 0x44C28, offset: 0x44C28, size: 0x8, addend: 0x0, symName: __ZNKSt3__117__compressed_pairIPNS_12basic_stringIcNS_11char_traitsIcEENS_9allocatorIcEEEEZN8nlohmann16json_abi_v3_11_310basic_jsonINS9_11ordered_mapENS_6vectorES6_bxydS4_NS9_14adl_serializerENSC_IhNS4_IhEEEEvE6createIS6_JRKS6_EEEPT_DpOT0_EUlS7_E_E5firstB8ue170006Ev, symObjAddr: 0x148B8, symBinAddr: 0x1000175C4, symSize: 0x24 }
  - { offsetInCU: 0x44C4E, offset: 0x44C4E, size: 0x8, addend: 0x0, symName: __ZNKSt3__110unique_ptrINS_12basic_stringIcNS_11char_traitsIcEENS_9allocatorIcEEEEZN8nlohmann16json_abi_v3_11_310basic_jsonINS8_11ordered_mapENS_6vectorES6_bxydS4_NS8_14adl_serializerENSB_IhNS4_IhEEEEvE6createIS6_JRKS6_EEEPT_DpOT0_EUlPS6_E_EcvbB8ue170006Ev, symObjAddr: 0x148DC, symBinAddr: 0x1000175E8, symSize: 0x34 }
  - { offsetInCU: 0x44C74, offset: 0x44C74, size: 0x8, addend: 0x0, symName: __ZNSt3__117__compressed_pairIPNS_12basic_stringIcNS_11char_traitsIcEENS_9allocatorIcEEEEZN8nlohmann16json_abi_v3_11_310basic_jsonINS9_11ordered_mapENS_6vectorES6_bxydS4_NS9_14adl_serializerENSC_IhNS4_IhEEEEvE6createIS6_JRKS6_EEEPT_DpOT0_EUlS7_E_E5firstB8ue170006Ev, symObjAddr: 0x14910, symBinAddr: 0x10001761C, symSize: 0x24 }
  - { offsetInCU: 0x44C9A, offset: 0x44C9A, size: 0x8, addend: 0x0, symName: __ZNSt3__110unique_ptrINS_12basic_stringIcNS_11char_traitsIcEENS_9allocatorIcEEEEZN8nlohmann16json_abi_v3_11_310basic_jsonINS8_11ordered_mapENS_6vectorES6_bxydS4_NS8_14adl_serializerENSB_IhNS4_IhEEEEvE6createIS6_JRKS6_EEEPT_DpOT0_EUlPS6_E_ED2B8ue170006Ev, symObjAddr: 0x14934, symBinAddr: 0x100017640, symSize: 0x30 }
  - { offsetInCU: 0x44CC4, offset: 0x44CC4, size: 0x8, addend: 0x0, symName: __ZNSt3__110unique_ptrINS_12basic_stringIcNS_11char_traitsIcEENS_9allocatorIcEEEEZN8nlohmann16json_abi_v3_11_310basic_jsonINS8_11ordered_mapENS_6vectorES6_bxydS4_NS8_14adl_serializerENSB_IhNS4_IhEEEEvE6createIS6_JRKS6_EEEPT_DpOT0_EUlPS6_E_E5resetB8ue170006ESO_, symObjAddr: 0x14964, symBinAddr: 0x100017670, symSize: 0x80 }
  - { offsetInCU: 0x44D08, offset: 0x44D08, size: 0x8, addend: 0x0, symName: __ZNSt3__117__compressed_pairIPNS_12basic_stringIcNS_11char_traitsIcEENS_9allocatorIcEEEEZN8nlohmann16json_abi_v3_11_310basic_jsonINS9_11ordered_mapENS_6vectorES6_bxydS4_NS9_14adl_serializerENSC_IhNS4_IhEEEEvE6createIS6_JRKS6_EEEPT_DpOT0_EUlS7_E_E6secondB8ue170006Ev, symObjAddr: 0x149E4, symBinAddr: 0x1000176F0, symSize: 0x28 }
  - { offsetInCU: 0x44D33, offset: 0x44D33, size: 0x8, addend: 0x0, symName: __ZZN8nlohmann16json_abi_v3_11_310basic_jsonINS0_11ordered_mapENSt3__16vectorENS3_12basic_stringIcNS3_11char_traitsIcEENS3_9allocatorIcEEEEbxydS8_NS0_14adl_serializerENS4_IhNS8_IhEEEEvE6createISA_JRKSA_EEEPT_DpOT0_ENKUlPSA_E_clESN_, symObjAddr: 0x14A0C, symBinAddr: 0x100017718, symSize: 0x34 }
  - { offsetInCU: 0x44D6C, offset: 0x44D6C, size: 0x8, addend: 0x0, symName: __ZNSt3__122__compressed_pair_elemIZN8nlohmann16json_abi_v3_11_310basic_jsonINS2_11ordered_mapENS_6vectorENS_12basic_stringIcNS_11char_traitsIcEENS_9allocatorIcEEEEbxydS9_NS2_14adl_serializerENS5_IhNS9_IhEEEEvE6createISB_JRKSB_EEEPT_DpOT0_EUlPSB_E_Li1ELb0EE5__getB8ue170006Ev, symObjAddr: 0x14A40, symBinAddr: 0x10001774C, symSize: 0x14 }
  - { offsetInCU: 0x44D92, offset: 0x44D92, size: 0x8, addend: 0x0, symName: __ZN8nlohmann16json_abi_v3_11_310basic_jsonINS0_11ordered_mapENSt3__16vectorENS3_12basic_stringIcNS3_11char_traitsIcEENS3_9allocatorIcEEEEbxydS8_NS0_14adl_serializerENS4_IhNS8_IhEEEEvE10json_valueC2Eb, symObjAddr: 0x14A54, symBinAddr: 0x100017760, symSize: 0x2C }
  - { offsetInCU: 0x44DCB, offset: 0x44DCB, size: 0x8, addend: 0x0, symName: __ZN8nlohmann16json_abi_v3_11_310basic_jsonINS0_11ordered_mapENSt3__16vectorENS3_12basic_stringIcNS3_11char_traitsIcEENS3_9allocatorIcEEEEbxydS8_NS0_14adl_serializerENS4_IhNS8_IhEEEEvE10json_valueC2Ex, symObjAddr: 0x14A80, symBinAddr: 0x10001778C, symSize: 0x20 }
  - { offsetInCU: 0x44E04, offset: 0x44E04, size: 0x8, addend: 0x0, symName: __ZN8nlohmann16json_abi_v3_11_310basic_jsonINS0_11ordered_mapENSt3__16vectorENS3_12basic_stringIcNS3_11char_traitsIcEENS3_9allocatorIcEEEEbxydS8_NS0_14adl_serializerENS4_IhNS8_IhEEEEvE10json_valueC2Ey, symObjAddr: 0x14AA0, symBinAddr: 0x1000177AC, symSize: 0x20 }
  - { offsetInCU: 0x44E3D, offset: 0x44E3D, size: 0x8, addend: 0x0, symName: __ZN8nlohmann16json_abi_v3_11_310basic_jsonINS0_11ordered_mapENSt3__16vectorENS3_12basic_stringIcNS3_11char_traitsIcEENS3_9allocatorIcEEEEbxydS8_NS0_14adl_serializerENS4_IhNS8_IhEEEEvE10json_valueC2Ed, symObjAddr: 0x14AC0, symBinAddr: 0x1000177CC, symSize: 0x20 }
  - { offsetInCU: 0x44E76, offset: 0x44E76, size: 0x8, addend: 0x0, symName: __ZN8nlohmann16json_abi_v3_11_310basic_jsonINS0_11ordered_mapENSt3__16vectorENS3_12basic_stringIcNS3_11char_traitsIcEENS3_9allocatorIcEEEEbxydS8_NS0_14adl_serializerENS4_IhNS8_IhEEEEvE10json_valueC2ERKNS0_27byte_container_with_subtypeISD_EE, symObjAddr: 0x14AE0, symBinAddr: 0x1000177EC, symSize: 0x3C }
  - { offsetInCU: 0x44EAF, offset: 0x44EAF, size: 0x8, addend: 0x0, symName: __ZN8nlohmann16json_abi_v3_11_310basic_jsonINS0_11ordered_mapENSt3__16vectorENS3_12basic_stringIcNS3_11char_traitsIcEENS3_9allocatorIcEEEEbxydS8_NS0_14adl_serializerENS4_IhNS8_IhEEEEvE6createINS0_27byte_container_with_subtypeISD_EEJRKSH_EEEPT_DpOT0_, symObjAddr: 0x14B1C, symBinAddr: 0x100017828, symSize: 0xF4 }
  - { offsetInCU: 0x44FAD, offset: 0x44FAD, size: 0x8, addend: 0x0, symName: __ZNSt3__110unique_ptrIN8nlohmann16json_abi_v3_11_327byte_container_with_subtypeINS_6vectorIhNS_9allocatorIhEEEEEEZNS2_10basic_jsonINS2_11ordered_mapES4_NS_12basic_stringIcNS_11char_traitsIcEENS5_IcEEEEbxydS5_NS2_14adl_serializerES7_vE6createIS8_JRKS8_EEEPT_DpOT0_EUlPS8_E_EC1B8ue170006ILb1EvEESQ_NS_16__dependent_typeINS_27__unique_ptr_deleter_sfinaeISR_EEXT_EE15__lval_ref_typeE, symObjAddr: 0x14C10, symBinAddr: 0x10001791C, symSize: 0x3C }
  - { offsetInCU: 0x44FFE, offset: 0x44FFE, size: 0x8, addend: 0x0, symName: __ZNSt3__116allocator_traitsINS_9allocatorIN8nlohmann16json_abi_v3_11_327byte_container_with_subtypeINS_6vectorIhNS1_IhEEEEEEEEE9constructB8ue170006IS8_JRKS8_EvEEvRS9_PT_DpOT0_, symObjAddr: 0x14C4C, symBinAddr: 0x100017958, symSize: 0x34 }
  - { offsetInCU: 0x45055, offset: 0x45055, size: 0x8, addend: 0x0, symName: __ZNKSt3__110unique_ptrIN8nlohmann16json_abi_v3_11_327byte_container_with_subtypeINS_6vectorIhNS_9allocatorIhEEEEEEZNS2_10basic_jsonINS2_11ordered_mapES4_NS_12basic_stringIcNS_11char_traitsIcEENS5_IcEEEEbxydS5_NS2_14adl_serializerES7_vE6createIS8_JRKS8_EEEPT_DpOT0_EUlPS8_E_E3getB8ue170006Ev, symObjAddr: 0x14C80, symBinAddr: 0x10001798C, symSize: 0x28 }
  - { offsetInCU: 0x4507B, offset: 0x4507B, size: 0x8, addend: 0x0, symName: __ZNSt3__110unique_ptrIN8nlohmann16json_abi_v3_11_327byte_container_with_subtypeINS_6vectorIhNS_9allocatorIhEEEEEEZNS2_10basic_jsonINS2_11ordered_mapES4_NS_12basic_stringIcNS_11char_traitsIcEENS5_IcEEEEbxydS5_NS2_14adl_serializerES7_vE6createIS8_JRKS8_EEEPT_DpOT0_EUlPS8_E_E7releaseB8ue170006Ev, symObjAddr: 0x14CD4, symBinAddr: 0x1000179E0, symSize: 0x44 }
  - { offsetInCU: 0x450B0, offset: 0x450B0, size: 0x8, addend: 0x0, symName: __ZNSt3__110unique_ptrIN8nlohmann16json_abi_v3_11_327byte_container_with_subtypeINS_6vectorIhNS_9allocatorIhEEEEEEZNS2_10basic_jsonINS2_11ordered_mapES4_NS_12basic_stringIcNS_11char_traitsIcEENS5_IcEEEEbxydS5_NS2_14adl_serializerES7_vE6createIS8_JRKS8_EEEPT_DpOT0_EUlPS8_E_ED1B8ue170006Ev, symObjAddr: 0x14D18, symBinAddr: 0x100017A24, symSize: 0x2C }
  - { offsetInCU: 0x450DA, offset: 0x450DA, size: 0x8, addend: 0x0, symName: __ZNSt3__110unique_ptrIN8nlohmann16json_abi_v3_11_327byte_container_with_subtypeINS_6vectorIhNS_9allocatorIhEEEEEEZNS2_10basic_jsonINS2_11ordered_mapES4_NS_12basic_stringIcNS_11char_traitsIcEENS5_IcEEEEbxydS5_NS2_14adl_serializerES7_vE6createIS8_JRKS8_EEEPT_DpOT0_EUlPS8_E_EC2B8ue170006ILb1EvEESQ_NS_16__dependent_typeINS_27__unique_ptr_deleter_sfinaeISR_EEXT_EE15__lval_ref_typeE, symObjAddr: 0x14D44, symBinAddr: 0x100017A50, symSize: 0x48 }
  - { offsetInCU: 0x4512B, offset: 0x4512B, size: 0x8, addend: 0x0, symName: __ZNSt3__117__compressed_pairIPN8nlohmann16json_abi_v3_11_327byte_container_with_subtypeINS_6vectorIhNS_9allocatorIhEEEEEEZNS2_10basic_jsonINS2_11ordered_mapES4_NS_12basic_stringIcNS_11char_traitsIcEENS5_IcEEEEbxydS5_NS2_14adl_serializerES7_vE6createIS8_JRKS8_EEEPT_DpOT0_EUlS9_E_EC1B8ue170006IRS9_RKSR_EEOSM_OT0_, symObjAddr: 0x14D8C, symBinAddr: 0x100017A98, symSize: 0x3C }
  - { offsetInCU: 0x45183, offset: 0x45183, size: 0x8, addend: 0x0, symName: __ZNSt3__117__compressed_pairIPN8nlohmann16json_abi_v3_11_327byte_container_with_subtypeINS_6vectorIhNS_9allocatorIhEEEEEEZNS2_10basic_jsonINS2_11ordered_mapES4_NS_12basic_stringIcNS_11char_traitsIcEENS5_IcEEEEbxydS5_NS2_14adl_serializerES7_vE6createIS8_JRKS8_EEEPT_DpOT0_EUlS9_E_EC2B8ue170006IRS9_RKSR_EEOSM_OT0_, symObjAddr: 0x14DC8, symBinAddr: 0x100017AD4, symSize: 0x48 }
  - { offsetInCU: 0x451DB, offset: 0x451DB, size: 0x8, addend: 0x0, symName: __ZNSt3__122__compressed_pair_elemIZN8nlohmann16json_abi_v3_11_310basic_jsonINS2_11ordered_mapENS_6vectorENS_12basic_stringIcNS_11char_traitsIcEENS_9allocatorIcEEEEbxydS9_NS2_14adl_serializerENS5_IhNS9_IhEEEEvE6createINS2_27byte_container_with_subtypeISE_EEJRKSI_EEEPT_DpOT0_EUlPSI_E_Li1ELb0EEC2B8ue170006IRKSR_vEEOSL_, symObjAddr: 0x14E10, symBinAddr: 0x100017B1C, symSize: 0x24 }
  - { offsetInCU: 0x4521D, offset: 0x4521D, size: 0x8, addend: 0x0, symName: __ZNSt3__19allocatorIN8nlohmann16json_abi_v3_11_327byte_container_with_subtypeINS_6vectorIhNS0_IhEEEEEEE9constructB8ue170006IS7_JRKS7_EEEvPT_DpOT0_, symObjAddr: 0x14E34, symBinAddr: 0x100017B40, symSize: 0x30 }
  - { offsetInCU: 0x45273, offset: 0x45273, size: 0x8, addend: 0x0, symName: __ZN8nlohmann16json_abi_v3_11_327byte_container_with_subtypeINSt3__16vectorIhNS2_9allocatorIhEEEEEC1ERKS7_, symObjAddr: 0x14E64, symBinAddr: 0x100017B70, symSize: 0x34 }
  - { offsetInCU: 0x452A9, offset: 0x452A9, size: 0x8, addend: 0x0, symName: __ZN8nlohmann16json_abi_v3_11_327byte_container_with_subtypeINSt3__16vectorIhNS2_9allocatorIhEEEEEC2ERKS7_, symObjAddr: 0x14E98, symBinAddr: 0x100017BA4, symSize: 0x48 }
  - { offsetInCU: 0x452DF, offset: 0x452DF, size: 0x8, addend: 0x0, symName: __ZNSt3__16vectorIhNS_9allocatorIhEEEC2ERKS3_, symObjAddr: 0x14EE0, symBinAddr: 0x100017BEC, symSize: 0x94 }
  - { offsetInCU: 0x45326, offset: 0x45326, size: 0x8, addend: 0x0, symName: __ZNSt3__116allocator_traitsINS_9allocatorIhEEE37select_on_container_copy_constructionB8ue170006IS2_vvEES2_RKS2_, symObjAddr: 0x14F74, symBinAddr: 0x100017C80, symSize: 0x10 }
  - { offsetInCU: 0x45355, offset: 0x45355, size: 0x8, addend: 0x0, symName: __ZNKSt3__16vectorIhNS_9allocatorIhEEE7__allocB8ue170006Ev, symObjAddr: 0x14F84, symBinAddr: 0x100017C90, symSize: 0x28 }
  - { offsetInCU: 0x45381, offset: 0x45381, size: 0x8, addend: 0x0, symName: __ZNSt3__117__compressed_pairIPhNS_9allocatorIhEEEC1B8ue170006IDnS3_EEOT_OT0_, symObjAddr: 0x14FAC, symBinAddr: 0x100017CB8, symSize: 0x3C }
  - { offsetInCU: 0x453D9, offset: 0x453D9, size: 0x8, addend: 0x0, symName: __ZNSt3__16vectorIhNS_9allocatorIhEEE16__init_with_sizeB8ue170006IPhS5_EEvT_T0_m, symObjAddr: 0x14FE8, symBinAddr: 0x100017CF4, symSize: 0xB8 }
  - { offsetInCU: 0x4544D, offset: 0x4544D, size: 0x8, addend: 0x0, symName: __ZNKSt3__117__compressed_pairIPhNS_9allocatorIhEEE6secondB8ue170006Ev, symObjAddr: 0x150A0, symBinAddr: 0x100017DAC, symSize: 0x24 }
  - { offsetInCU: 0x45473, offset: 0x45473, size: 0x8, addend: 0x0, symName: __ZNKSt3__122__compressed_pair_elemINS_9allocatorIhEELi1ELb1EE5__getB8ue170006Ev, symObjAddr: 0x150C4, symBinAddr: 0x100017DD0, symSize: 0x14 }
  - { offsetInCU: 0x45499, offset: 0x45499, size: 0x8, addend: 0x0, symName: __ZNSt3__117__compressed_pairIPhNS_9allocatorIhEEEC2B8ue170006IDnS3_EEOT_OT0_, symObjAddr: 0x150D8, symBinAddr: 0x100017DE4, symSize: 0x44 }
  - { offsetInCU: 0x454F1, offset: 0x454F1, size: 0x8, addend: 0x0, symName: __ZNSt3__122__compressed_pair_elemINS_9allocatorIhEELi1ELb1EEC2B8ue170006IS2_vEEOT_, symObjAddr: 0x1511C, symBinAddr: 0x100017E28, symSize: 0x18 }
  - { offsetInCU: 0x45533, offset: 0x45533, size: 0x8, addend: 0x0, symName: __ZNSt3__16vectorIhNS_9allocatorIhEEE11__vallocateB8ue170006Em, symObjAddr: 0x15174, symBinAddr: 0x100017E80, symSize: 0xAC }
  - { offsetInCU: 0x45577, offset: 0x45577, size: 0x8, addend: 0x0, symName: __ZNSt3__16vectorIhNS_9allocatorIhEEE18__construct_at_endIPhS5_EEvT_T0_m, symObjAddr: 0x15220, symBinAddr: 0x100017F2C, symSize: 0x8C }
  - { offsetInCU: 0x455ED, offset: 0x455ED, size: 0x8, addend: 0x0, symName: __ZNSt3__128__exception_guard_exceptionsINS_6vectorIhNS_9allocatorIhEEE16__destroy_vectorEE10__completeB8ue170006Ev, symObjAddr: 0x152AC, symBinAddr: 0x100017FB8, symSize: 0x1C }
  - { offsetInCU: 0x45613, offset: 0x45613, size: 0x8, addend: 0x0, symName: __ZNSt3__128__exception_guard_exceptionsINS_6vectorIhNS_9allocatorIhEEE16__destroy_vectorEED1B8ue170006Ev, symObjAddr: 0x152C8, symBinAddr: 0x100017FD4, symSize: 0x2C }
  - { offsetInCU: 0x4563D, offset: 0x4563D, size: 0x8, addend: 0x0, symName: __ZNSt3__128__exception_guard_exceptionsINS_6vectorIhNS_9allocatorIhEEE16__destroy_vectorEEC1B8ue170006ES5_, symObjAddr: 0x152F4, symBinAddr: 0x100018000, symSize: 0x34 }
  - { offsetInCU: 0x45675, offset: 0x45675, size: 0x8, addend: 0x0, symName: __ZNSt3__128__exception_guard_exceptionsINS_6vectorIhNS_9allocatorIhEEE16__destroy_vectorEEC2B8ue170006ES5_, symObjAddr: 0x15328, symBinAddr: 0x100018034, symSize: 0x24 }
  - { offsetInCU: 0x456AD, offset: 0x456AD, size: 0x8, addend: 0x0, symName: __ZNKSt3__16vectorIhNS_9allocatorIhEEE8max_sizeEv, symObjAddr: 0x1534C, symBinAddr: 0x100018058, symSize: 0x60 }
  - { offsetInCU: 0x456D5, offset: 0x456D5, size: 0x8, addend: 0x0, symName: __ZNKSt3__16vectorIhNS_9allocatorIhEEE20__throw_length_errorB8ue170006Ev, symObjAddr: 0x153AC, symBinAddr: 0x1000180B8, symSize: 0x1C }
  - { offsetInCU: 0x456FB, offset: 0x456FB, size: 0x8, addend: 0x0, symName: __ZNSt3__16vectorIhNS_9allocatorIhEEE9__end_capB8ue170006Ev, symObjAddr: 0x15408, symBinAddr: 0x100018114, symSize: 0x28 }
  - { offsetInCU: 0x45721, offset: 0x45721, size: 0x8, addend: 0x0, symName: __ZNKSt3__16vectorIhNS_9allocatorIhEEE14__annotate_newB8ue170006Em, symObjAddr: 0x15430, symBinAddr: 0x10001813C, symSize: 0xAC }
  - { offsetInCU: 0x45756, offset: 0x45756, size: 0x8, addend: 0x0, symName: __ZNSt3__116allocator_traitsINS_9allocatorIhEEE8max_sizeB8ue170006IS2_vEEmRKS2_, symObjAddr: 0x154DC, symBinAddr: 0x1000181E8, symSize: 0x24 }
  - { offsetInCU: 0x45784, offset: 0x45784, size: 0x8, addend: 0x0, symName: __ZNKSt3__19allocatorIhE8max_sizeB8ue170006Ev, symObjAddr: 0x15500, symBinAddr: 0x10001820C, symSize: 0x14 }
  - { offsetInCU: 0x457AA, offset: 0x457AA, size: 0x8, addend: 0x0, symName: __ZNSt3__19allocatorIhE8allocateB8ue170006Em, symObjAddr: 0x15514, symBinAddr: 0x100018220, symSize: 0x58 }
  - { offsetInCU: 0x457DE, offset: 0x457DE, size: 0x8, addend: 0x0, symName: __ZNSt3__117__compressed_pairIPhNS_9allocatorIhEEE5firstB8ue170006Ev, symObjAddr: 0x1556C, symBinAddr: 0x100018278, symSize: 0x24 }
  - { offsetInCU: 0x45804, offset: 0x45804, size: 0x8, addend: 0x0, symName: __ZNSt3__122__compressed_pair_elemIPhLi0ELb0EE5__getB8ue170006Ev, symObjAddr: 0x15590, symBinAddr: 0x10001829C, symSize: 0x14 }
  - { offsetInCU: 0x45847, offset: 0x45847, size: 0x8, addend: 0x0, symName: __ZNSt3__16vectorIhNS_9allocatorIhEEE21_ConstructTransactionC1B8ue170006ERS3_m, symObjAddr: 0x155A4, symBinAddr: 0x1000182B0, symSize: 0x3C }
  - { offsetInCU: 0x4588F, offset: 0x4588F, size: 0x8, addend: 0x0, symName: __ZNSt3__16vectorIhNS_9allocatorIhEEE21_ConstructTransactionD1B8ue170006Ev, symObjAddr: 0x15660, symBinAddr: 0x10001836C, symSize: 0x2C }
  - { offsetInCU: 0x458B9, offset: 0x458B9, size: 0x8, addend: 0x0, symName: __ZNSt3__16vectorIhNS_9allocatorIhEEE21_ConstructTransactionC2B8ue170006ERS3_m, symObjAddr: 0x1568C, symBinAddr: 0x100018398, symSize: 0x44 }
  - { offsetInCU: 0x45924, offset: 0x45924, size: 0x8, addend: 0x0, symName: __ZNSt3__14pairIPhS1_EC1B8ue170006IS1_S1_LPv0EEEOT_OT0_, symObjAddr: 0x15800, symBinAddr: 0x10001850C, symSize: 0x3C }
  - { offsetInCU: 0x45982, offset: 0x45982, size: 0x8, addend: 0x0, symName: __ZNSt3__14pairIPhS1_EC2B8ue170006IS1_S1_LPv0EEEOT_OT0_, symObjAddr: 0x1583C, symBinAddr: 0x100018548, symSize: 0x34 }
  - { offsetInCU: 0x459EB, offset: 0x459EB, size: 0x8, addend: 0x0, symName: __ZNKSt3__114__copy_trivialclB8ue170006IhhLi0EEENS_4pairIPT_PT0_EES4_S4_S6_, symObjAddr: 0x159EC, symBinAddr: 0x1000186F8, symSize: 0x48 }
  - { offsetInCU: 0x45A53, offset: 0x45A53, size: 0x8, addend: 0x0, symName: __ZNSt3__14pairIPhS1_EC1B8ue170006IRS1_S1_LPv0EEEOT_OT0_, symObjAddr: 0x15B74, symBinAddr: 0x100018880, symSize: 0x3C }
  - { offsetInCU: 0x45AB1, offset: 0x45AB1, size: 0x8, addend: 0x0, symName: __ZNSt3__14pairIPhS1_EC2B8ue170006IRS1_S1_LPv0EEEOT_OT0_, symObjAddr: 0x15BB0, symBinAddr: 0x1000188BC, symSize: 0x34 }
  - { offsetInCU: 0x45B0F, offset: 0x45B0F, size: 0x8, addend: 0x0, symName: __ZNSt3__118__unwrap_iter_implIPhLb1EE8__unwrapB8ue170006ES1_, symObjAddr: 0x15BE4, symBinAddr: 0x1000188F0, symSize: 0x24 }
  - { offsetInCU: 0x45B32, offset: 0x45B32, size: 0x8, addend: 0x0, symName: __ZNSt3__118__unwrap_iter_implIPhLb1EE8__rewrapB8ue170006ES1_S1_, symObjAddr: 0x15C08, symBinAddr: 0x100018914, symSize: 0x48 }
  - { offsetInCU: 0x45B63, offset: 0x45B63, size: 0x8, addend: 0x0, symName: __ZNSt3__16vectorIhNS_9allocatorIhEEE21_ConstructTransactionD2B8ue170006Ev, symObjAddr: 0x15C50, symBinAddr: 0x10001895C, symSize: 0x20 }
  - { offsetInCU: 0x45B8D, offset: 0x45B8D, size: 0x8, addend: 0x0, symName: __ZNSt3__128__exception_guard_exceptionsINS_6vectorIhNS_9allocatorIhEEE16__destroy_vectorEED2B8ue170006Ev, symObjAddr: 0x15C70, symBinAddr: 0x10001897C, symSize: 0x48 }
  - { offsetInCU: 0x45BB7, offset: 0x45BB7, size: 0x8, addend: 0x0, symName: __ZNKSt3__117__compressed_pairIPN8nlohmann16json_abi_v3_11_327byte_container_with_subtypeINS_6vectorIhNS_9allocatorIhEEEEEEZNS2_10basic_jsonINS2_11ordered_mapES4_NS_12basic_stringIcNS_11char_traitsIcEENS5_IcEEEEbxydS5_NS2_14adl_serializerES7_vE6createIS8_JRKS8_EEEPT_DpOT0_EUlS9_E_E5firstB8ue170006Ev, symObjAddr: 0x15CB8, symBinAddr: 0x1000189C4, symSize: 0x24 }
  - { offsetInCU: 0x45BDD, offset: 0x45BDD, size: 0x8, addend: 0x0, symName: __ZNKSt3__110unique_ptrIN8nlohmann16json_abi_v3_11_327byte_container_with_subtypeINS_6vectorIhNS_9allocatorIhEEEEEEZNS2_10basic_jsonINS2_11ordered_mapES4_NS_12basic_stringIcNS_11char_traitsIcEENS5_IcEEEEbxydS5_NS2_14adl_serializerES7_vE6createIS8_JRKS8_EEEPT_DpOT0_EUlPS8_E_EcvbB8ue170006Ev, symObjAddr: 0x15CDC, symBinAddr: 0x1000189E8, symSize: 0x34 }
  - { offsetInCU: 0x45C03, offset: 0x45C03, size: 0x8, addend: 0x0, symName: __ZNSt3__117__compressed_pairIPN8nlohmann16json_abi_v3_11_327byte_container_with_subtypeINS_6vectorIhNS_9allocatorIhEEEEEEZNS2_10basic_jsonINS2_11ordered_mapES4_NS_12basic_stringIcNS_11char_traitsIcEENS5_IcEEEEbxydS5_NS2_14adl_serializerES7_vE6createIS8_JRKS8_EEEPT_DpOT0_EUlS9_E_E5firstB8ue170006Ev, symObjAddr: 0x15D10, symBinAddr: 0x100018A1C, symSize: 0x24 }
  - { offsetInCU: 0x45C29, offset: 0x45C29, size: 0x8, addend: 0x0, symName: __ZNSt3__110unique_ptrIN8nlohmann16json_abi_v3_11_327byte_container_with_subtypeINS_6vectorIhNS_9allocatorIhEEEEEEZNS2_10basic_jsonINS2_11ordered_mapES4_NS_12basic_stringIcNS_11char_traitsIcEENS5_IcEEEEbxydS5_NS2_14adl_serializerES7_vE6createIS8_JRKS8_EEEPT_DpOT0_EUlPS8_E_ED2B8ue170006Ev, symObjAddr: 0x15D34, symBinAddr: 0x100018A40, symSize: 0x30 }
  - { offsetInCU: 0x45C53, offset: 0x45C53, size: 0x8, addend: 0x0, symName: __ZNSt3__110unique_ptrIN8nlohmann16json_abi_v3_11_327byte_container_with_subtypeINS_6vectorIhNS_9allocatorIhEEEEEEZNS2_10basic_jsonINS2_11ordered_mapES4_NS_12basic_stringIcNS_11char_traitsIcEENS5_IcEEEEbxydS5_NS2_14adl_serializerES7_vE6createIS8_JRKS8_EEEPT_DpOT0_EUlPS8_E_E5resetB8ue170006ESQ_, symObjAddr: 0x15D64, symBinAddr: 0x100018A70, symSize: 0x80 }
  - { offsetInCU: 0x45C97, offset: 0x45C97, size: 0x8, addend: 0x0, symName: __ZNSt3__117__compressed_pairIPN8nlohmann16json_abi_v3_11_327byte_container_with_subtypeINS_6vectorIhNS_9allocatorIhEEEEEEZNS2_10basic_jsonINS2_11ordered_mapES4_NS_12basic_stringIcNS_11char_traitsIcEENS5_IcEEEEbxydS5_NS2_14adl_serializerES7_vE6createIS8_JRKS8_EEEPT_DpOT0_EUlS9_E_E6secondB8ue170006Ev, symObjAddr: 0x15DE4, symBinAddr: 0x100018AF0, symSize: 0x28 }
  - { offsetInCU: 0x45CC2, offset: 0x45CC2, size: 0x8, addend: 0x0, symName: __ZZN8nlohmann16json_abi_v3_11_310basic_jsonINS0_11ordered_mapENSt3__16vectorENS3_12basic_stringIcNS3_11char_traitsIcEENS3_9allocatorIcEEEEbxydS8_NS0_14adl_serializerENS4_IhNS8_IhEEEEvE6createINS0_27byte_container_with_subtypeISD_EEJRKSH_EEEPT_DpOT0_ENKUlPSH_E_clESP_, symObjAddr: 0x15E0C, symBinAddr: 0x100018B18, symSize: 0x34 }
  - { offsetInCU: 0x45CFB, offset: 0x45CFB, size: 0x8, addend: 0x0, symName: __ZNSt3__122__compressed_pair_elemIZN8nlohmann16json_abi_v3_11_310basic_jsonINS2_11ordered_mapENS_6vectorENS_12basic_stringIcNS_11char_traitsIcEENS_9allocatorIcEEEEbxydS9_NS2_14adl_serializerENS5_IhNS9_IhEEEEvE6createINS2_27byte_container_with_subtypeISE_EEJRKSI_EEEPT_DpOT0_EUlPSI_E_Li1ELb0EE5__getB8ue170006Ev, symObjAddr: 0x15E40, symBinAddr: 0x100018B4C, symSize: 0x14 }
  - { offsetInCU: 0x45D27, offset: 0x45D27, size: 0x8, addend: 0x0, symName: __ZNSt3__119__to_address_helperINS_16reverse_iteratorIPNS_4pairIKNS_12basic_stringIcNS_11char_traitsIcEENS_9allocatorIcEEEEN8nlohmann16json_abi_v3_11_310basic_jsonINSB_11ordered_mapENS_6vectorES8_bxydS6_NSB_14adl_serializerENSE_IhNS6_IhEEEEvEEEEEEvE6__callB8ue170006ERKSL_, symObjAddr: 0x15E54, symBinAddr: 0x100018B60, symSize: 0x38 }
  - { offsetInCU: 0x45D4A, offset: 0x45D4A, size: 0x8, addend: 0x0, symName: __ZNKSt3__116reverse_iteratorIPNS_4pairIKNS_12basic_stringIcNS_11char_traitsIcEENS_9allocatorIcEEEEN8nlohmann16json_abi_v3_11_310basic_jsonINSA_11ordered_mapENS_6vectorES7_bxydS5_NSA_14adl_serializerENSD_IhNS5_IhEEEEvEEEEEptB8ue170006Ev, symObjAddr: 0x15E8C, symBinAddr: 0x100018B98, symSize: 0x24 }
  - { offsetInCU: 0x45D70, offset: 0x45D70, size: 0x8, addend: 0x0, symName: __ZNSt3__128__exception_guard_exceptionsINS_29_AllocatorDestroyRangeReverseINS_9allocatorINS_4pairIKNS_12basic_stringIcNS_11char_traitsIcEENS2_IcEEEEN8nlohmann16json_abi_v3_11_310basic_jsonINSB_11ordered_mapENS_6vectorES8_bxydS2_NSB_14adl_serializerENSE_IhNS2_IhEEEEvEEEEEENS_16reverse_iteratorIPSJ_EEEEED2B8ue170006Ev, symObjAddr: 0x15EB0, symBinAddr: 0x100018BBC, symSize: 0x50 }
  - { offsetInCU: 0x45D9A, offset: 0x45D9A, size: 0x8, addend: 0x0, symName: __ZNKSt3__129_AllocatorDestroyRangeReverseINS_9allocatorINS_4pairIKNS_12basic_stringIcNS_11char_traitsIcEENS1_IcEEEEN8nlohmann16json_abi_v3_11_310basic_jsonINSA_11ordered_mapENS_6vectorES7_bxydS1_NSA_14adl_serializerENSD_IhNS1_IhEEEEvEEEEEENS_16reverse_iteratorIPSI_EEEclB8ue170006Ev, symObjAddr: 0x15F00, symBinAddr: 0x100018C0C, symSize: 0xB4 }
  - { offsetInCU: 0x45DC1, offset: 0x45DC1, size: 0x8, addend: 0x0, symName: __ZNSt3__116reverse_iteratorINS0_IPNS_4pairIKNS_12basic_stringIcNS_11char_traitsIcEENS_9allocatorIcEEEEN8nlohmann16json_abi_v3_11_310basic_jsonINSA_11ordered_mapENS_6vectorES7_bxydS5_NSA_14adl_serializerENSD_IhNS5_IhEEEEvEEEEEEEC1B8ue170006ESK_, symObjAddr: 0x16024, symBinAddr: 0x100018D30, symSize: 0x3C }
  - { offsetInCU: 0x45DF9, offset: 0x45DF9, size: 0x8, addend: 0x0, symName: __ZNSt3__116reverse_iteratorINS0_IPNS_4pairIKNS_12basic_stringIcNS_11char_traitsIcEENS_9allocatorIcEEEEN8nlohmann16json_abi_v3_11_310basic_jsonINSA_11ordered_mapENS_6vectorES7_bxydS5_NSA_14adl_serializerENSD_IhNS5_IhEEEEvEEEEEEEppB8ue170006Ev, symObjAddr: 0x160E4, symBinAddr: 0x100018DF0, symSize: 0x30 }
  - { offsetInCU: 0x45E1F, offset: 0x45E1F, size: 0x8, addend: 0x0, symName: __ZNKSt3__116reverse_iteratorINS0_IPNS_4pairIKNS_12basic_stringIcNS_11char_traitsIcEENS_9allocatorIcEEEEN8nlohmann16json_abi_v3_11_310basic_jsonINSA_11ordered_mapENS_6vectorES7_bxydS5_NSA_14adl_serializerENSD_IhNS5_IhEEEEvEEEEEEE4baseB8ue170006Ev, symObjAddr: 0x16114, symBinAddr: 0x100018E20, symSize: 0x24 }
  - { offsetInCU: 0x45E4B, offset: 0x45E4B, size: 0x8, addend: 0x0, symName: __ZNSt3__119__to_address_helperINS_16reverse_iteratorINS1_IPNS_4pairIKNS_12basic_stringIcNS_11char_traitsIcEENS_9allocatorIcEEEEN8nlohmann16json_abi_v3_11_310basic_jsonINSB_11ordered_mapENS_6vectorES8_bxydS6_NSB_14adl_serializerENSE_IhNS6_IhEEEEvEEEEEEEEvE6__callB8ue170006ERKSM_, symObjAddr: 0x16138, symBinAddr: 0x100018E44, symSize: 0x38 }
  - { offsetInCU: 0x45E6E, offset: 0x45E6E, size: 0x8, addend: 0x0, symName: __ZNKSt3__116reverse_iteratorINS0_IPNS_4pairIKNS_12basic_stringIcNS_11char_traitsIcEENS_9allocatorIcEEEEN8nlohmann16json_abi_v3_11_310basic_jsonINSA_11ordered_mapENS_6vectorES7_bxydS5_NSA_14adl_serializerENSD_IhNS5_IhEEEEvEEEEEEEptB8ue170006Ev, symObjAddr: 0x16170, symBinAddr: 0x100018E7C, symSize: 0x24 }
  - { offsetInCU: 0x45E94, offset: 0x45E94, size: 0x8, addend: 0x0, symName: __ZNKSt3__116reverse_iteratorINS0_IPNS_4pairIKNS_12basic_stringIcNS_11char_traitsIcEENS_9allocatorIcEEEEN8nlohmann16json_abi_v3_11_310basic_jsonINSA_11ordered_mapENS_6vectorES7_bxydS5_NSA_14adl_serializerENSD_IhNS5_IhEEEEvEEEEEEEdeB8ue170006Ev, symObjAddr: 0x16194, symBinAddr: 0x100018EA0, symSize: 0x34 }
  - { offsetInCU: 0x45EC8, offset: 0x45EC8, size: 0x8, addend: 0x0, symName: __ZNSt3__116reverse_iteratorIPNS_4pairIKNS_12basic_stringIcNS_11char_traitsIcEENS_9allocatorIcEEEEN8nlohmann16json_abi_v3_11_310basic_jsonINSA_11ordered_mapENS_6vectorES7_bxydS5_NSA_14adl_serializerENSD_IhNS5_IhEEEEvEEEEEmmB8ue170006Ev, symObjAddr: 0x161C8, symBinAddr: 0x100018ED4, symSize: 0x20 }
  - { offsetInCU: 0x45EEE, offset: 0x45EEE, size: 0x8, addend: 0x0, symName: __ZNSt3__116reverse_iteratorINS0_IPNS_4pairIKNS_12basic_stringIcNS_11char_traitsIcEENS_9allocatorIcEEEEN8nlohmann16json_abi_v3_11_310basic_jsonINSA_11ordered_mapENS_6vectorES7_bxydS5_NSA_14adl_serializerENSD_IhNS5_IhEEEEvEEEEEEEC2B8ue170006ESK_, symObjAddr: 0x161E8, symBinAddr: 0x100018EF4, symSize: 0x2C }
  - { offsetInCU: 0x45F26, offset: 0x45F26, size: 0x8, addend: 0x0, symName: __ZNSt3__116reverse_iteratorIPNS_4pairIKNS_12basic_stringIcNS_11char_traitsIcEENS_9allocatorIcEEEEN8nlohmann16json_abi_v3_11_310basic_jsonINSA_11ordered_mapENS_6vectorES7_bxydS5_NSA_14adl_serializerENSD_IhNS5_IhEEEEvEEEEEC2B8ue170006ESJ_, symObjAddr: 0x16214, symBinAddr: 0x100018F20, symSize: 0x28 }
  - { offsetInCU: 0x45F5E, offset: 0x45F5E, size: 0x8, addend: 0x0, symName: __ZNSt3__114__split_bufferINS_4pairIKNS_12basic_stringIcNS_11char_traitsIcEENS_9allocatorIcEEEEN8nlohmann16json_abi_v3_11_310basic_jsonINSA_11ordered_mapENS_6vectorES7_bxydS5_NSA_14adl_serializerENSD_IhNS5_IhEEEEvEEEERNS5_ISI_EEED2Ev, symObjAddr: 0x1623C, symBinAddr: 0x100018F48, symSize: 0x8C }
  - { offsetInCU: 0x45F8A, offset: 0x45F8A, size: 0x8, addend: 0x0, symName: __ZNSt3__114__split_bufferINS_4pairIKNS_12basic_stringIcNS_11char_traitsIcEENS_9allocatorIcEEEEN8nlohmann16json_abi_v3_11_310basic_jsonINSA_11ordered_mapENS_6vectorES7_bxydS5_NSA_14adl_serializerENSD_IhNS5_IhEEEEvEEEERNS5_ISI_EEE5clearB8ue170006Ev, symObjAddr: 0x162C8, symBinAddr: 0x100018FD4, symSize: 0x28 }
  - { offsetInCU: 0x45FB0, offset: 0x45FB0, size: 0x8, addend: 0x0, symName: __ZNKSt3__114__split_bufferINS_4pairIKNS_12basic_stringIcNS_11char_traitsIcEENS_9allocatorIcEEEEN8nlohmann16json_abi_v3_11_310basic_jsonINSA_11ordered_mapENS_6vectorES7_bxydS5_NSA_14adl_serializerENSD_IhNS5_IhEEEEvEEEERNS5_ISI_EEE8capacityB8ue170006Ev, symObjAddr: 0x162F0, symBinAddr: 0x100018FFC, symSize: 0x40 }
  - { offsetInCU: 0x45FD6, offset: 0x45FD6, size: 0x8, addend: 0x0, symName: __ZNSt3__114__split_bufferINS_4pairIKNS_12basic_stringIcNS_11char_traitsIcEENS_9allocatorIcEEEEN8nlohmann16json_abi_v3_11_310basic_jsonINSA_11ordered_mapENS_6vectorES7_bxydS5_NSA_14adl_serializerENSD_IhNS5_IhEEEEvEEEERNS5_ISI_EEE17__destruct_at_endB8ue170006EPSI_, symObjAddr: 0x16330, symBinAddr: 0x10001903C, symSize: 0x2C }
  - { offsetInCU: 0x4600A, offset: 0x4600A, size: 0x8, addend: 0x0, symName: __ZNSt3__114__split_bufferINS_4pairIKNS_12basic_stringIcNS_11char_traitsIcEENS_9allocatorIcEEEEN8nlohmann16json_abi_v3_11_310basic_jsonINSA_11ordered_mapENS_6vectorES7_bxydS5_NSA_14adl_serializerENSD_IhNS5_IhEEEEvEEEERNS5_ISI_EEE17__destruct_at_endB8ue170006EPSI_NS_17integral_constantIbLb0EEE, symObjAddr: 0x1635C, symBinAddr: 0x100019068, symSize: 0x80 }
  - { offsetInCU: 0x4604B, offset: 0x4604B, size: 0x8, addend: 0x0, symName: __ZNKSt3__114__split_bufferINS_4pairIKNS_12basic_stringIcNS_11char_traitsIcEENS_9allocatorIcEEEEN8nlohmann16json_abi_v3_11_310basic_jsonINSA_11ordered_mapENS_6vectorES7_bxydS5_NSA_14adl_serializerENSD_IhNS5_IhEEEEvEEEERNS5_ISI_EEE9__end_capB8ue170006Ev, symObjAddr: 0x163DC, symBinAddr: 0x1000190E8, symSize: 0x28 }
  - { offsetInCU: 0x46071, offset: 0x46071, size: 0x8, addend: 0x0, symName: __ZNKSt3__117__compressed_pairIPNS_4pairIKNS_12basic_stringIcNS_11char_traitsIcEENS_9allocatorIcEEEEN8nlohmann16json_abi_v3_11_310basic_jsonINSA_11ordered_mapENS_6vectorES7_bxydS5_NSA_14adl_serializerENSD_IhNS5_IhEEEEvEEEERNS5_ISI_EEE5firstB8ue170006Ev, symObjAddr: 0x16404, symBinAddr: 0x100019110, symSize: 0x24 }
  - { offsetInCU: 0x46097, offset: 0x46097, size: 0x8, addend: 0x0, symName: __ZNSt3__111__wrap_iterIPNS_4pairIKNS_12basic_stringIcNS_11char_traitsIcEENS_9allocatorIcEEEEN8nlohmann16json_abi_v3_11_310basic_jsonINSA_11ordered_mapENS_6vectorES7_bxydS5_NSA_14adl_serializerENSD_IhNS5_IhEEEEvEEEEEpLB8ue170006El, symObjAddr: 0x164A0, symBinAddr: 0x1000191AC, symSize: 0x30 }
  - { offsetInCU: 0x460CB, offset: 0x460CB, size: 0x8, addend: 0x0, symName: __ZNSt3__14pairINS_11__wrap_iterIPNS0_IKNS_12basic_stringIcNS_11char_traitsIcEENS_9allocatorIcEEEEN8nlohmann16json_abi_v3_11_310basic_jsonINSA_11ordered_mapENS_6vectorES7_bxydS5_NSA_14adl_serializerENSD_IhNS5_IhEEEEvEEEEEEbEC2B8ue170006ISK_bLPv0EEEOT_OT0_, symObjAddr: 0x164D0, symBinAddr: 0x1000191DC, symSize: 0x38 }
  - { offsetInCU: 0x46129, offset: 0x46129, size: 0x8, addend: 0x0, symName: __ZN8nlohmann16json_abi_v3_11_36detail9exception11diagnosticsINS0_10basic_jsonINS0_11ordered_mapENSt3__16vectorENS6_12basic_stringIcNS6_11char_traitsIcEENS6_9allocatorIcEEEEbxydSB_NS0_14adl_serializerENS7_IhNSB_IhEEEEvEEEESD_PKT_, symObjAddr: 0x16508, symBinAddr: 0x100019214, symSize: 0x3C }
  - { offsetInCU: 0x46156, offset: 0x46156, size: 0x8, addend: 0x0, symName: __ZN8nlohmann16json_abi_v3_11_36detail10type_errorC1EiPKc, symObjAddr: 0x16544, symBinAddr: 0x100019250, symSize: 0x3C }
  - { offsetInCU: 0x4619E, offset: 0x4619E, size: 0x8, addend: 0x0, symName: __ZN8nlohmann16json_abi_v3_11_36detail10type_errorC2EiPKc, symObjAddr: 0x16580, symBinAddr: 0x10001928C, symSize: 0x54 }
  - { offsetInCU: 0x461E6, offset: 0x461E6, size: 0x8, addend: 0x0, symName: __ZN8nlohmann16json_abi_v3_11_36detail10type_errorD0Ev, symObjAddr: 0x165D4, symBinAddr: 0x1000192E0, symSize: 0x30 }
  - { offsetInCU: 0x46213, offset: 0x46213, size: 0x8, addend: 0x0, symName: __ZN8nlohmann16json_abi_v3_11_36detail10type_errorD2Ev, symObjAddr: 0x166BC, symBinAddr: 0x1000193C8, symSize: 0x2C }
  - { offsetInCU: 0x46240, offset: 0x46240, size: 0x8, addend: 0x0, symName: __ZN8nlohmann16json_abi_v3_11_310basic_jsonINS0_11ordered_mapENSt3__16vectorENS3_12basic_stringIcNS3_11char_traitsIcEENS3_9allocatorIcEEEEbxydS8_NS0_14adl_serializerENS4_IhNS8_IhEEEEvEC2IRKPKcSH_Li0EEEOT_, symObjAddr: 0x166E8, symBinAddr: 0x1000193F4, symSize: 0x84 }
  - { offsetInCU: 0x46291, offset: 0x46291, size: 0x8, addend: 0x0, symName: __ZN8nlohmann16json_abi_v3_11_314adl_serializerIPKcvE7to_jsonINS0_10basic_jsonINS0_11ordered_mapENSt3__16vectorENS8_12basic_stringIcNS8_11char_traitsIcEENS8_9allocatorIcEEEEbxydSD_S1_NS9_IhNSD_IhEEEEvEERKS3_EEDTcmclL_ZNS0_7to_jsonEEfp_clsr3stdE7forwardIT0_Efp0_EEcvv_EERT_OSL_, symObjAddr: 0x1676C, symBinAddr: 0x100019478, symSize: 0x34 }
  - { offsetInCU: 0x462DB, offset: 0x462DB, size: 0x8, addend: 0x0, symName: __ZNK8nlohmann16json_abi_v3_11_36detail10to_json_fnclINS0_10basic_jsonINS0_11ordered_mapENSt3__16vectorENS6_12basic_stringIcNS6_11char_traitsIcEENS6_9allocatorIcEEEEbxydSB_NS0_14adl_serializerENS7_IhNSB_IhEEEEvEERKPKcEEDTcmcl7to_jsonfp_clsr3stdE7forwardIT0_Efp0_EEcvv_EERT_OSM_, symObjAddr: 0x167A0, symBinAddr: 0x1000194AC, symSize: 0x30 }
  - { offsetInCU: 0x46331, offset: 0x46331, size: 0x8, addend: 0x0, symName: __ZN8nlohmann16json_abi_v3_11_36detail20external_constructorILNS1_7value_tE3EE9constructINS0_10basic_jsonINS0_11ordered_mapENSt3__16vectorENS8_12basic_stringIcNS8_11char_traitsIcEENS8_9allocatorIcEEEEbxydSD_NS0_14adl_serializerENS9_IhNSD_IhEEEEvEEPKcLi0EEEvRT_RKT0_, symObjAddr: 0x167FC, symBinAddr: 0x100019508, symSize: 0x60 }
  - { offsetInCU: 0x4637C, offset: 0x4637C, size: 0x8, addend: 0x0, symName: __ZN8nlohmann16json_abi_v3_11_310basic_jsonINS0_11ordered_mapENSt3__16vectorENS3_12basic_stringIcNS3_11char_traitsIcEENS3_9allocatorIcEEEEbxydS8_NS0_14adl_serializerENS4_IhNS8_IhEEEEvE6createISA_JRKPKcEEEPT_DpOT0_, symObjAddr: 0x1685C, symBinAddr: 0x100019568, symSize: 0xF4 }
  - { offsetInCU: 0x4647A, offset: 0x4647A, size: 0x8, addend: 0x0, symName: __ZNSt3__110unique_ptrINS_12basic_stringIcNS_11char_traitsIcEENS_9allocatorIcEEEEZN8nlohmann16json_abi_v3_11_310basic_jsonINS8_11ordered_mapENS_6vectorES6_bxydS4_NS8_14adl_serializerENSB_IhNS4_IhEEEEvE6createIS6_JRKPKcEEEPT_DpOT0_EUlPS6_E_EC1B8ue170006ILb1EvEESQ_NS_16__dependent_typeINS_27__unique_ptr_deleter_sfinaeISR_EEXT_EE15__lval_ref_typeE, symObjAddr: 0x16950, symBinAddr: 0x10001965C, symSize: 0x3C }
  - { offsetInCU: 0x464CB, offset: 0x464CB, size: 0x8, addend: 0x0, symName: __ZNSt3__116allocator_traitsINS_9allocatorINS_12basic_stringIcNS_11char_traitsIcEENS1_IcEEEEEEE9constructB8ue170006IS6_JRKPKcEvEEvRS7_PT_DpOT0_, symObjAddr: 0x1698C, symBinAddr: 0x100019698, symSize: 0x34 }
  - { offsetInCU: 0x46522, offset: 0x46522, size: 0x8, addend: 0x0, symName: __ZNKSt3__110unique_ptrINS_12basic_stringIcNS_11char_traitsIcEENS_9allocatorIcEEEEZN8nlohmann16json_abi_v3_11_310basic_jsonINS8_11ordered_mapENS_6vectorES6_bxydS4_NS8_14adl_serializerENSB_IhNS4_IhEEEEvE6createIS6_JRKPKcEEEPT_DpOT0_EUlPS6_E_E3getB8ue170006Ev, symObjAddr: 0x169C0, symBinAddr: 0x1000196CC, symSize: 0x28 }
  - { offsetInCU: 0x46548, offset: 0x46548, size: 0x8, addend: 0x0, symName: __ZNSt3__110unique_ptrINS_12basic_stringIcNS_11char_traitsIcEENS_9allocatorIcEEEEZN8nlohmann16json_abi_v3_11_310basic_jsonINS8_11ordered_mapENS_6vectorES6_bxydS4_NS8_14adl_serializerENSB_IhNS4_IhEEEEvE6createIS6_JRKPKcEEEPT_DpOT0_EUlPS6_E_E7releaseB8ue170006Ev, symObjAddr: 0x16A14, symBinAddr: 0x100019720, symSize: 0x44 }
  - { offsetInCU: 0x4657D, offset: 0x4657D, size: 0x8, addend: 0x0, symName: __ZNSt3__110unique_ptrINS_12basic_stringIcNS_11char_traitsIcEENS_9allocatorIcEEEEZN8nlohmann16json_abi_v3_11_310basic_jsonINS8_11ordered_mapENS_6vectorES6_bxydS4_NS8_14adl_serializerENSB_IhNS4_IhEEEEvE6createIS6_JRKPKcEEEPT_DpOT0_EUlPS6_E_ED1B8ue170006Ev, symObjAddr: 0x16A58, symBinAddr: 0x100019764, symSize: 0x2C }
  - { offsetInCU: 0x465A7, offset: 0x465A7, size: 0x8, addend: 0x0, symName: __ZNSt3__110unique_ptrINS_12basic_stringIcNS_11char_traitsIcEENS_9allocatorIcEEEEZN8nlohmann16json_abi_v3_11_310basic_jsonINS8_11ordered_mapENS_6vectorES6_bxydS4_NS8_14adl_serializerENSB_IhNS4_IhEEEEvE6createIS6_JRKPKcEEEPT_DpOT0_EUlPS6_E_EC2B8ue170006ILb1EvEESQ_NS_16__dependent_typeINS_27__unique_ptr_deleter_sfinaeISR_EEXT_EE15__lval_ref_typeE, symObjAddr: 0x16A84, symBinAddr: 0x100019790, symSize: 0x48 }
  - { offsetInCU: 0x465F8, offset: 0x465F8, size: 0x8, addend: 0x0, symName: __ZNSt3__117__compressed_pairIPNS_12basic_stringIcNS_11char_traitsIcEENS_9allocatorIcEEEEZN8nlohmann16json_abi_v3_11_310basic_jsonINS9_11ordered_mapENS_6vectorES6_bxydS4_NS9_14adl_serializerENSC_IhNS4_IhEEEEvE6createIS6_JRKPKcEEEPT_DpOT0_EUlS7_E_EC1B8ue170006IRS7_RKSR_EEOSM_OT0_, symObjAddr: 0x16ACC, symBinAddr: 0x1000197D8, symSize: 0x3C }
  - { offsetInCU: 0x46650, offset: 0x46650, size: 0x8, addend: 0x0, symName: __ZNSt3__117__compressed_pairIPNS_12basic_stringIcNS_11char_traitsIcEENS_9allocatorIcEEEEZN8nlohmann16json_abi_v3_11_310basic_jsonINS9_11ordered_mapENS_6vectorES6_bxydS4_NS9_14adl_serializerENSC_IhNS4_IhEEEEvE6createIS6_JRKPKcEEEPT_DpOT0_EUlS7_E_EC2B8ue170006IRS7_RKSR_EEOSM_OT0_, symObjAddr: 0x16B08, symBinAddr: 0x100019814, symSize: 0x48 }
  - { offsetInCU: 0x466A8, offset: 0x466A8, size: 0x8, addend: 0x0, symName: __ZNSt3__122__compressed_pair_elemIZN8nlohmann16json_abi_v3_11_310basic_jsonINS2_11ordered_mapENS_6vectorENS_12basic_stringIcNS_11char_traitsIcEENS_9allocatorIcEEEEbxydS9_NS2_14adl_serializerENS5_IhNS9_IhEEEEvE6createISB_JRKPKcEEEPT_DpOT0_EUlPSB_E_Li1ELb0EEC2B8ue170006IRKSR_vEEOSL_, symObjAddr: 0x16B50, symBinAddr: 0x10001985C, symSize: 0x24 }
  - { offsetInCU: 0x466EA, offset: 0x466EA, size: 0x8, addend: 0x0, symName: __ZNSt3__19allocatorINS_12basic_stringIcNS_11char_traitsIcEENS0_IcEEEEE9constructB8ue170006IS5_JRKPKcEEEvPT_DpOT0_, symObjAddr: 0x16B74, symBinAddr: 0x100019880, symSize: 0x34 }
  - { offsetInCU: 0x46740, offset: 0x46740, size: 0x8, addend: 0x0, symName: __ZNKSt3__117__compressed_pairIPNS_12basic_stringIcNS_11char_traitsIcEENS_9allocatorIcEEEEZN8nlohmann16json_abi_v3_11_310basic_jsonINS9_11ordered_mapENS_6vectorES6_bxydS4_NS9_14adl_serializerENSC_IhNS4_IhEEEEvE6createIS6_JRKPKcEEEPT_DpOT0_EUlS7_E_E5firstB8ue170006Ev, symObjAddr: 0x16BA8, symBinAddr: 0x1000198B4, symSize: 0x24 }
  - { offsetInCU: 0x46766, offset: 0x46766, size: 0x8, addend: 0x0, symName: __ZNKSt3__110unique_ptrINS_12basic_stringIcNS_11char_traitsIcEENS_9allocatorIcEEEEZN8nlohmann16json_abi_v3_11_310basic_jsonINS8_11ordered_mapENS_6vectorES6_bxydS4_NS8_14adl_serializerENSB_IhNS4_IhEEEEvE6createIS6_JRKPKcEEEPT_DpOT0_EUlPS6_E_EcvbB8ue170006Ev, symObjAddr: 0x16BCC, symBinAddr: 0x1000198D8, symSize: 0x34 }
  - { offsetInCU: 0x4678C, offset: 0x4678C, size: 0x8, addend: 0x0, symName: __ZNSt3__117__compressed_pairIPNS_12basic_stringIcNS_11char_traitsIcEENS_9allocatorIcEEEEZN8nlohmann16json_abi_v3_11_310basic_jsonINS9_11ordered_mapENS_6vectorES6_bxydS4_NS9_14adl_serializerENSC_IhNS4_IhEEEEvE6createIS6_JRKPKcEEEPT_DpOT0_EUlS7_E_E5firstB8ue170006Ev, symObjAddr: 0x16C00, symBinAddr: 0x10001990C, symSize: 0x24 }
  - { offsetInCU: 0x467B2, offset: 0x467B2, size: 0x8, addend: 0x0, symName: __ZNSt3__110unique_ptrINS_12basic_stringIcNS_11char_traitsIcEENS_9allocatorIcEEEEZN8nlohmann16json_abi_v3_11_310basic_jsonINS8_11ordered_mapENS_6vectorES6_bxydS4_NS8_14adl_serializerENSB_IhNS4_IhEEEEvE6createIS6_JRKPKcEEEPT_DpOT0_EUlPS6_E_ED2B8ue170006Ev, symObjAddr: 0x16C24, symBinAddr: 0x100019930, symSize: 0x30 }
  - { offsetInCU: 0x467DC, offset: 0x467DC, size: 0x8, addend: 0x0, symName: __ZNSt3__110unique_ptrINS_12basic_stringIcNS_11char_traitsIcEENS_9allocatorIcEEEEZN8nlohmann16json_abi_v3_11_310basic_jsonINS8_11ordered_mapENS_6vectorES6_bxydS4_NS8_14adl_serializerENSB_IhNS4_IhEEEEvE6createIS6_JRKPKcEEEPT_DpOT0_EUlPS6_E_E5resetB8ue170006ESQ_, symObjAddr: 0x16C54, symBinAddr: 0x100019960, symSize: 0x80 }
  - { offsetInCU: 0x46820, offset: 0x46820, size: 0x8, addend: 0x0, symName: __ZNSt3__117__compressed_pairIPNS_12basic_stringIcNS_11char_traitsIcEENS_9allocatorIcEEEEZN8nlohmann16json_abi_v3_11_310basic_jsonINS9_11ordered_mapENS_6vectorES6_bxydS4_NS9_14adl_serializerENSC_IhNS4_IhEEEEvE6createIS6_JRKPKcEEEPT_DpOT0_EUlS7_E_E6secondB8ue170006Ev, symObjAddr: 0x16CD4, symBinAddr: 0x1000199E0, symSize: 0x28 }
  - { offsetInCU: 0x4684B, offset: 0x4684B, size: 0x8, addend: 0x0, symName: __ZZN8nlohmann16json_abi_v3_11_310basic_jsonINS0_11ordered_mapENSt3__16vectorENS3_12basic_stringIcNS3_11char_traitsIcEENS3_9allocatorIcEEEEbxydS8_NS0_14adl_serializerENS4_IhNS8_IhEEEEvE6createISA_JRKPKcEEEPT_DpOT0_ENKUlPSA_E_clESP_, symObjAddr: 0x16CFC, symBinAddr: 0x100019A08, symSize: 0x34 }
  - { offsetInCU: 0x46884, offset: 0x46884, size: 0x8, addend: 0x0, symName: __ZNSt3__122__compressed_pair_elemIZN8nlohmann16json_abi_v3_11_310basic_jsonINS2_11ordered_mapENS_6vectorENS_12basic_stringIcNS_11char_traitsIcEENS_9allocatorIcEEEEbxydS9_NS2_14adl_serializerENS5_IhNS9_IhEEEEvE6createISB_JRKPKcEEEPT_DpOT0_EUlPSB_E_Li1ELb0EE5__getB8ue170006Ev, symObjAddr: 0x16D30, symBinAddr: 0x100019A3C, symSize: 0x14 }
  - { offsetInCU: 0x468AA, offset: 0x468AA, size: 0x8, addend: 0x0, symName: __ZN8nlohmann16json_abi_v3_11_310basic_jsonINS0_11ordered_mapENSt3__16vectorENS3_12basic_stringIcNS3_11char_traitsIcEENS3_9allocatorIcEEEEbxydS8_NS0_14adl_serializerENS4_IhNS8_IhEEEEvEC2IRiiLi0EEEOT_, symObjAddr: 0x16DBC, symBinAddr: 0x100019AC8, symSize: 0x5C }
  - { offsetInCU: 0x468FB, offset: 0x468FB, size: 0x8, addend: 0x0, symName: __ZN8nlohmann16json_abi_v3_11_314adl_serializerIivE7to_jsonINS0_10basic_jsonINS0_11ordered_mapENSt3__16vectorENS6_12basic_stringIcNS6_11char_traitsIcEENS6_9allocatorIcEEEEbxydSB_S1_NS7_IhNSB_IhEEEEvEERiEEDTcmclL_ZNS0_7to_jsonEEfp_clsr3stdE7forwardIT0_Efp0_EEcvv_EERT_OSI_, symObjAddr: 0x16E18, symBinAddr: 0x100019B24, symSize: 0x34 }
  - { offsetInCU: 0x46940, offset: 0x46940, size: 0x8, addend: 0x0, symName: __ZNK8nlohmann16json_abi_v3_11_36detail10to_json_fnclINS0_10basic_jsonINS0_11ordered_mapENSt3__16vectorENS6_12basic_stringIcNS6_11char_traitsIcEENS6_9allocatorIcEEEEbxydSB_NS0_14adl_serializerENS7_IhNSB_IhEEEEvEERiEEDTcmcl7to_jsonfp_clsr3stdE7forwardIT0_Efp0_EEcvv_EERT_OSJ_, symObjAddr: 0x16E4C, symBinAddr: 0x100019B58, symSize: 0x34 }
  - { offsetInCU: 0x46996, offset: 0x46996, size: 0x8, addend: 0x0, symName: __ZN8nlohmann16json_abi_v3_11_36detail20external_constructorILNS1_7value_tE5EE9constructINS0_10basic_jsonINS0_11ordered_mapENSt3__16vectorENS8_12basic_stringIcNS8_11char_traitsIcEENS8_9allocatorIcEEEEbxydSD_NS0_14adl_serializerENS9_IhNSD_IhEEEEvEEEEvRT_NSK_16number_integer_tE, symObjAddr: 0x16EAC, symBinAddr: 0x100019BB8, symSize: 0x70 }
  - { offsetInCU: 0x469D2, offset: 0x469D2, size: 0x8, addend: 0x0, symName: __ZN8nlohmann16json_abi_v3_11_310basic_jsonINS0_11ordered_mapENSt3__16vectorENS3_12basic_stringIcNS3_11char_traitsIcEENS3_9allocatorIcEEEEbxydS8_NS0_14adl_serializerENS4_IhNS8_IhEEEEvEC2IRddLi0EEEOT_, symObjAddr: 0x16F1C, symBinAddr: 0x100019C28, symSize: 0x5C }
  - { offsetInCU: 0x46A23, offset: 0x46A23, size: 0x8, addend: 0x0, symName: __ZN8nlohmann16json_abi_v3_11_314adl_serializerIdvE7to_jsonINS0_10basic_jsonINS0_11ordered_mapENSt3__16vectorENS6_12basic_stringIcNS6_11char_traitsIcEENS6_9allocatorIcEEEEbxydSB_S1_NS7_IhNSB_IhEEEEvEERdEEDTcmclL_ZNS0_7to_jsonEEfp_clsr3stdE7forwardIT0_Efp0_EEcvv_EERT_OSI_, symObjAddr: 0x16F78, symBinAddr: 0x100019C84, symSize: 0x34 }
  - { offsetInCU: 0x46A68, offset: 0x46A68, size: 0x8, addend: 0x0, symName: __ZNK8nlohmann16json_abi_v3_11_36detail10to_json_fnclINS0_10basic_jsonINS0_11ordered_mapENSt3__16vectorENS6_12basic_stringIcNS6_11char_traitsIcEENS6_9allocatorIcEEEEbxydSB_NS0_14adl_serializerENS7_IhNSB_IhEEEEvEERdEEDTcmcl7to_jsonfp_clsr3stdE7forwardIT0_Efp0_EEcvv_EERT_OSJ_, symObjAddr: 0x16FAC, symBinAddr: 0x100019CB8, symSize: 0x34 }
  - { offsetInCU: 0x46ABE, offset: 0x46ABE, size: 0x8, addend: 0x0, symName: __ZN8nlohmann16json_abi_v3_11_36detail20external_constructorILNS1_7value_tE7EE9constructINS0_10basic_jsonINS0_11ordered_mapENSt3__16vectorENS8_12basic_stringIcNS8_11char_traitsIcEENS8_9allocatorIcEEEEbxydSD_NS0_14adl_serializerENS9_IhNSD_IhEEEEvEEEEvRT_NSK_14number_float_tE, symObjAddr: 0x1700C, symBinAddr: 0x100019D18, symSize: 0x70 }
  - { offsetInCU: 0x46AFA, offset: 0x46AFA, size: 0x8, addend: 0x0, symName: __ZN8nlohmann16json_abi_v3_11_310basic_jsonINS0_11ordered_mapENSt3__16vectorENS3_12basic_stringIcNS3_11char_traitsIcEENS3_9allocatorIcEEEEbxydS8_NS0_14adl_serializerENS4_IhNS8_IhEEEEvEC2IddLi0EEEOT_, symObjAddr: 0x1707C, symBinAddr: 0x100019D88, symSize: 0x5C }
  - { offsetInCU: 0x46B4B, offset: 0x46B4B, size: 0x8, addend: 0x0, symName: __ZN8nlohmann16json_abi_v3_11_314adl_serializerIdvE7to_jsonINS0_10basic_jsonINS0_11ordered_mapENSt3__16vectorENS6_12basic_stringIcNS6_11char_traitsIcEENS6_9allocatorIcEEEEbxydSB_S1_NS7_IhNSB_IhEEEEvEEdEEDTcmclL_ZNS0_7to_jsonEEfp_clsr3stdE7forwardIT0_Efp0_EEcvv_EERT_OSH_, symObjAddr: 0x170D8, symBinAddr: 0x100019DE4, symSize: 0x34 }
  - { offsetInCU: 0x46B90, offset: 0x46B90, size: 0x8, addend: 0x0, symName: __ZNK8nlohmann16json_abi_v3_11_36detail10to_json_fnclINS0_10basic_jsonINS0_11ordered_mapENSt3__16vectorENS6_12basic_stringIcNS6_11char_traitsIcEENS6_9allocatorIcEEEEbxydSB_NS0_14adl_serializerENS7_IhNSB_IhEEEEvEEdEEDTcmcl7to_jsonfp_clsr3stdE7forwardIT0_Efp0_EEcvv_EERT_OSI_, symObjAddr: 0x1710C, symBinAddr: 0x100019E18, symSize: 0x34 }
  - { offsetInCU: 0x46BE6, offset: 0x46BE6, size: 0x8, addend: 0x0, symName: __ZN8nlohmann16json_abi_v3_11_310basic_jsonINS0_11ordered_mapENSt3__16vectorENS3_12basic_stringIcNS3_11char_traitsIcEENS3_9allocatorIcEEEEbxydS8_NS0_14adl_serializerENS4_IhNS8_IhEEEEvEC2IRPKcSH_Li0EEEOT_, symObjAddr: 0x17140, symBinAddr: 0x100019E4C, symSize: 0x84 }
  - { offsetInCU: 0x46C37, offset: 0x46C37, size: 0x8, addend: 0x0, symName: __ZN8nlohmann16json_abi_v3_11_314adl_serializerIPKcvE7to_jsonINS0_10basic_jsonINS0_11ordered_mapENSt3__16vectorENS8_12basic_stringIcNS8_11char_traitsIcEENS8_9allocatorIcEEEEbxydSD_S1_NS9_IhNSD_IhEEEEvEERS3_EEDTcmclL_ZNS0_7to_jsonEEfp_clsr3stdE7forwardIT0_Efp0_EEcvv_EERT_OSK_, symObjAddr: 0x171C4, symBinAddr: 0x100019ED0, symSize: 0x34 }
  - { offsetInCU: 0x46C7C, offset: 0x46C7C, size: 0x8, addend: 0x0, symName: __ZNK8nlohmann16json_abi_v3_11_36detail10to_json_fnclINS0_10basic_jsonINS0_11ordered_mapENSt3__16vectorENS6_12basic_stringIcNS6_11char_traitsIcEENS6_9allocatorIcEEEEbxydSB_NS0_14adl_serializerENS7_IhNSB_IhEEEEvEERPKcEEDTcmcl7to_jsonfp_clsr3stdE7forwardIT0_Efp0_EEcvv_EERT_OSL_, symObjAddr: 0x171F8, symBinAddr: 0x100019F04, symSize: 0x30 }
  - { offsetInCU: 0x46CD2, offset: 0x46CD2, size: 0x8, addend: 0x0, symName: __ZNSt3__16vectorIN8nlohmann16json_abi_v3_11_310basic_jsonINS2_11ordered_mapES0_NS_12basic_stringIcNS_11char_traitsIcEENS_9allocatorIcEEEEbxydS8_NS2_14adl_serializerENS0_IhNS8_IhEEEEvEENS8_ISE_EEE9push_backB8ue170006ERKSE_, symObjAddr: 0x172EC, symBinAddr: 0x100019FF8, symSize: 0x6C }
  - { offsetInCU: 0x46D09, offset: 0x46D09, size: 0x8, addend: 0x0, symName: __ZNSt3__16vectorIN8nlohmann16json_abi_v3_11_310basic_jsonINS2_11ordered_mapES0_NS_12basic_stringIcNS_11char_traitsIcEENS_9allocatorIcEEEEbxydS8_NS2_14adl_serializerENS0_IhNS8_IhEEEEvEENS8_ISE_EEE22__construct_one_at_endB8ue170006IJRKSE_EEEvDpOT_, symObjAddr: 0x17394, symBinAddr: 0x10001A0A0, symSize: 0x90 }
  - { offsetInCU: 0x46D58, offset: 0x46D58, size: 0x8, addend: 0x0, symName: __ZNSt3__16vectorIN8nlohmann16json_abi_v3_11_310basic_jsonINS2_11ordered_mapES0_NS_12basic_stringIcNS_11char_traitsIcEENS_9allocatorIcEEEEbxydS8_NS2_14adl_serializerENS0_IhNS8_IhEEEEvEENS8_ISE_EEE21__push_back_slow_pathIRKSE_EEvOT_, symObjAddr: 0x17424, symBinAddr: 0x10001A130, symSize: 0xD8 }
  - { offsetInCU: 0x46DB6, offset: 0x46DB6, size: 0x8, addend: 0x0, symName: __ZNSt3__116allocator_traitsINS_9allocatorIN8nlohmann16json_abi_v3_11_310basic_jsonINS3_11ordered_mapENS_6vectorENS_12basic_stringIcNS_11char_traitsIcEENS1_IcEEEEbxydS1_NS3_14adl_serializerENS6_IhNS1_IhEEEEvEEEEE9constructB8ue170006ISF_JRKSF_EvEEvRSG_PT_DpOT0_, symObjAddr: 0x174FC, symBinAddr: 0x10001A208, symSize: 0x34 }
  - { offsetInCU: 0x46E0D, offset: 0x46E0D, size: 0x8, addend: 0x0, symName: __ZNSt3__19allocatorIN8nlohmann16json_abi_v3_11_310basic_jsonINS2_11ordered_mapENS_6vectorENS_12basic_stringIcNS_11char_traitsIcEENS0_IcEEEEbxydS0_NS2_14adl_serializerENS5_IhNS0_IhEEEEvEEE9constructB8ue170006ISE_JRKSE_EEEvPT_DpOT0_, symObjAddr: 0x17530, symBinAddr: 0x10001A23C, symSize: 0x30 }
  - { offsetInCU: 0x46E63, offset: 0x46E63, size: 0x8, addend: 0x0, symName: __ZN8nlohmann16json_abi_v3_11_36detail14output_adapterIcNSt3__112basic_stringIcNS3_11char_traitsIcEENS3_9allocatorIcEEEEEC1ERS9_, symObjAddr: 0x17560, symBinAddr: 0x10001A26C, symSize: 0x34 }
  - { offsetInCU: 0x46E9C, offset: 0x46E9C, size: 0x8, addend: 0x0, symName: __ZN8nlohmann16json_abi_v3_11_36detail14output_adapterIcNSt3__112basic_stringIcNS3_11char_traitsIcEENS3_9allocatorIcEEEEEcvNS3_10shared_ptrINS1_23output_adapter_protocolIcEEEEEv, symObjAddr: 0x17594, symBinAddr: 0x10001A2A0, symSize: 0x38 }
  - { offsetInCU: 0x46EC2, offset: 0x46EC2, size: 0x8, addend: 0x0, symName: __ZN8nlohmann16json_abi_v3_11_36detail10serializerINS0_10basic_jsonINS0_11ordered_mapENSt3__16vectorENS5_12basic_stringIcNS5_11char_traitsIcEENS5_9allocatorIcEEEEbxydSA_NS0_14adl_serializerENS6_IhNSA_IhEEEEvEEEC1ENS5_10shared_ptrINS1_23output_adapter_protocolIcEEEEcNS1_15error_handler_tE, symObjAddr: 0x175CC, symBinAddr: 0x10001A2D8, symSize: 0x44 }
  - { offsetInCU: 0x46F1A, offset: 0x46F1A, size: 0x8, addend: 0x0, symName: __ZNSt3__110shared_ptrIN8nlohmann16json_abi_v3_11_36detail23output_adapter_protocolIcEEED1B8ue170006Ev, symObjAddr: 0x17610, symBinAddr: 0x10001A31C, symSize: 0x2C }
  - { offsetInCU: 0x46F44, offset: 0x46F44, size: 0x8, addend: 0x0, symName: __ZN8nlohmann16json_abi_v3_11_36detail14output_adapterIcNSt3__112basic_stringIcNS3_11char_traitsIcEENS3_9allocatorIcEEEEED1Ev, symObjAddr: 0x1763C, symBinAddr: 0x10001A348, symSize: 0x2C }
  - { offsetInCU: 0x46F71, offset: 0x46F71, size: 0x8, addend: 0x0, symName: __ZN8nlohmann16json_abi_v3_11_36detail10serializerINS0_10basic_jsonINS0_11ordered_mapENSt3__16vectorENS5_12basic_stringIcNS5_11char_traitsIcEENS5_9allocatorIcEEEEbxydSA_NS0_14adl_serializerENS6_IhNSA_IhEEEEvEEE4dumpERKSG_bbjj, symObjAddr: 0x17668, symBinAddr: 0x10001A374, symSize: 0x1068 }
  - { offsetInCU: 0x4711B, offset: 0x4711B, size: 0x8, addend: 0x0, symName: __ZN8nlohmann16json_abi_v3_11_36detail10serializerINS0_10basic_jsonINS0_11ordered_mapENSt3__16vectorENS5_12basic_stringIcNS5_11char_traitsIcEENS5_9allocatorIcEEEEbxydSA_NS0_14adl_serializerENS6_IhNSA_IhEEEEvEEED1Ev, symObjAddr: 0x186F8, symBinAddr: 0x10001B404, symSize: 0x2C }
  - { offsetInCU: 0x47145, offset: 0x47145, size: 0x8, addend: 0x0, symName: __ZN8nlohmann16json_abi_v3_11_36detail14output_adapterIcNSt3__112basic_stringIcNS3_11char_traitsIcEENS3_9allocatorIcEEEEEC2ERS9_, symObjAddr: 0x18724, symBinAddr: 0x10001B430, symSize: 0x50 }
  - { offsetInCU: 0x471A5, offset: 0x471A5, size: 0x8, addend: 0x0, symName: __ZNSt3__110shared_ptrIN8nlohmann16json_abi_v3_11_36detail23output_adapter_protocolIcEEEC1B8ue170006INS3_21output_string_adapterIcNS_12basic_stringIcNS_11char_traitsIcEENS_9allocatorIcEEEEEEvEEONS0_IT_EE, symObjAddr: 0x187B4, symBinAddr: 0x10001B4C0, symSize: 0x34 }
  - { offsetInCU: 0x471E8, offset: 0x471E8, size: 0x8, addend: 0x0, symName: __ZNSt3__110shared_ptrIN8nlohmann16json_abi_v3_11_36detail21output_string_adapterIcNS_12basic_stringIcNS_11char_traitsIcEENS_9allocatorIcEEEEEEED1B8ue170006Ev, symObjAddr: 0x187E8, symBinAddr: 0x10001B4F4, symSize: 0x2C }
  - { offsetInCU: 0x47212, offset: 0x47212, size: 0x8, addend: 0x0, symName: __ZNSt3__19allocatorIN8nlohmann16json_abi_v3_11_36detail21output_string_adapterIcNS_12basic_stringIcNS_11char_traitsIcEENS0_IcEEEEEEEC1B8ue170006Ev, symObjAddr: 0x188AC, symBinAddr: 0x10001B5B8, symSize: 0x2C }
  - { offsetInCU: 0x47290, offset: 0x47290, size: 0x8, addend: 0x0, symName: __ZNSt3__118__allocation_guardINS_9allocatorINS_20__shared_ptr_emplaceIN8nlohmann16json_abi_v3_11_36detail21output_string_adapterIcNS_12basic_stringIcNS_11char_traitsIcEENS1_IcEEEEEENS1_ISC_EEEEEEEC1B8ue170006ISD_EET_m, symObjAddr: 0x188D8, symBinAddr: 0x10001B5E4, symSize: 0x34 }
  - { offsetInCU: 0x472DF, offset: 0x472DF, size: 0x8, addend: 0x0, symName: __ZNKSt3__118__allocation_guardINS_9allocatorINS_20__shared_ptr_emplaceIN8nlohmann16json_abi_v3_11_36detail21output_string_adapterIcNS_12basic_stringIcNS_11char_traitsIcEENS1_IcEEEEEENS1_ISC_EEEEEEE5__getB8ue170006Ev, symObjAddr: 0x1890C, symBinAddr: 0x10001B618, symSize: 0x18 }
  - { offsetInCU: 0x47305, offset: 0x47305, size: 0x8, addend: 0x0, symName: __ZNSt3__120__shared_ptr_emplaceIN8nlohmann16json_abi_v3_11_36detail21output_string_adapterIcNS_12basic_stringIcNS_11char_traitsIcEENS_9allocatorIcEEEEEENS8_ISB_EEEC1B8ue170006IJRSA_EEESC_DpOT_, symObjAddr: 0x18924, symBinAddr: 0x10001B630, symSize: 0x34 }
  - { offsetInCU: 0x47358, offset: 0x47358, size: 0x8, addend: 0x0, symName: __ZNSt3__118__allocation_guardINS_9allocatorINS_20__shared_ptr_emplaceIN8nlohmann16json_abi_v3_11_36detail21output_string_adapterIcNS_12basic_stringIcNS_11char_traitsIcEENS1_IcEEEEEENS1_ISC_EEEEEEE13__release_ptrB8ue170006Ev, symObjAddr: 0x18958, symBinAddr: 0x10001B664, symSize: 0x24 }
  - { offsetInCU: 0x4738C, offset: 0x4738C, size: 0x8, addend: 0x0, symName: __ZNSt3__110shared_ptrIN8nlohmann16json_abi_v3_11_36detail21output_string_adapterIcNS_12basic_stringIcNS_11char_traitsIcEENS_9allocatorIcEEEEEEE27__create_with_control_blockB8ue170006ISB_NS_20__shared_ptr_emplaceISB_NS8_ISB_EEEEEESC_PT_PT0_, symObjAddr: 0x1897C, symBinAddr: 0x10001B688, symSize: 0xA4 }
  - { offsetInCU: 0x473E1, offset: 0x473E1, size: 0x8, addend: 0x0, symName: __ZNSt3__120__shared_ptr_emplaceIN8nlohmann16json_abi_v3_11_36detail21output_string_adapterIcNS_12basic_stringIcNS_11char_traitsIcEENS_9allocatorIcEEEEEENS8_ISB_EEE10__get_elemB8ue170006Ev, symObjAddr: 0x18A20, symBinAddr: 0x10001B72C, symSize: 0x28 }
  - { offsetInCU: 0x47407, offset: 0x47407, size: 0x8, addend: 0x0, symName: __ZNSt3__118__allocation_guardINS_9allocatorINS_20__shared_ptr_emplaceIN8nlohmann16json_abi_v3_11_36detail21output_string_adapterIcNS_12basic_stringIcNS_11char_traitsIcEENS1_IcEEEEEENS1_ISC_EEEEEEED1B8ue170006Ev, symObjAddr: 0x18A48, symBinAddr: 0x10001B754, symSize: 0x2C }
  - { offsetInCU: 0x47431, offset: 0x47431, size: 0x8, addend: 0x0, symName: __ZNSt3__118__allocation_guardINS_9allocatorINS_20__shared_ptr_emplaceIN8nlohmann16json_abi_v3_11_36detail21output_string_adapterIcNS_12basic_stringIcNS_11char_traitsIcEENS1_IcEEEEEENS1_ISC_EEEEEEEC2B8ue170006ISD_EET_m, symObjAddr: 0x18A74, symBinAddr: 0x10001B780, symSize: 0x50 }
  - { offsetInCU: 0x47480, offset: 0x47480, size: 0x8, addend: 0x0, symName: __ZNSt3__19allocatorINS_20__shared_ptr_emplaceIN8nlohmann16json_abi_v3_11_36detail21output_string_adapterIcNS_12basic_stringIcNS_11char_traitsIcEENS0_IcEEEEEENS0_ISB_EEEEEC1B8ue170006ISB_EERKNS0_IT_EE, symObjAddr: 0x18AC4, symBinAddr: 0x10001B7D0, symSize: 0x34 }
  - { offsetInCU: 0x474BE, offset: 0x474BE, size: 0x8, addend: 0x0, symName: __ZNSt3__116allocator_traitsINS_9allocatorINS_20__shared_ptr_emplaceIN8nlohmann16json_abi_v3_11_36detail21output_string_adapterIcNS_12basic_stringIcNS_11char_traitsIcEENS1_IcEEEEEENS1_ISC_EEEEEEE8allocateB8ue170006ERSF_m, symObjAddr: 0x18AF8, symBinAddr: 0x10001B804, symSize: 0x2C }
  - { offsetInCU: 0x474F1, offset: 0x474F1, size: 0x8, addend: 0x0, symName: __ZNSt3__19allocatorINS_20__shared_ptr_emplaceIN8nlohmann16json_abi_v3_11_36detail21output_string_adapterIcNS_12basic_stringIcNS_11char_traitsIcEENS0_IcEEEEEENS0_ISB_EEEEEC2B8ue170006ISB_EERKNS0_IT_EE, symObjAddr: 0x18B24, symBinAddr: 0x10001B830, symSize: 0x30 }
  - { offsetInCU: 0x4752F, offset: 0x4752F, size: 0x8, addend: 0x0, symName: __ZNSt3__116__non_trivial_ifILb1ENS_9allocatorINS_20__shared_ptr_emplaceIN8nlohmann16json_abi_v3_11_36detail21output_string_adapterIcNS_12basic_stringIcNS_11char_traitsIcEENS1_IcEEEEEENS1_ISC_EEEEEEEC2B8ue170006Ev, symObjAddr: 0x18B54, symBinAddr: 0x10001B860, symSize: 0x14 }
  - { offsetInCU: 0x47559, offset: 0x47559, size: 0x8, addend: 0x0, symName: __ZNSt3__19allocatorINS_20__shared_ptr_emplaceIN8nlohmann16json_abi_v3_11_36detail21output_string_adapterIcNS_12basic_stringIcNS_11char_traitsIcEENS0_IcEEEEEENS0_ISB_EEEEE8allocateB8ue170006Em, symObjAddr: 0x18B68, symBinAddr: 0x10001B874, symSize: 0x5C }
  - { offsetInCU: 0x47599, offset: 0x47599, size: 0x8, addend: 0x0, symName: __ZNSt3__116allocator_traitsINS_9allocatorINS_20__shared_ptr_emplaceIN8nlohmann16json_abi_v3_11_36detail21output_string_adapterIcNS_12basic_stringIcNS_11char_traitsIcEENS1_IcEEEEEENS1_ISC_EEEEEEE8max_sizeB8ue170006ISF_vEEmRKSF_, symObjAddr: 0x18BC4, symBinAddr: 0x10001B8D0, symSize: 0x24 }
  - { offsetInCU: 0x475C7, offset: 0x475C7, size: 0x8, addend: 0x0, symName: __ZNKSt3__19allocatorINS_20__shared_ptr_emplaceIN8nlohmann16json_abi_v3_11_36detail21output_string_adapterIcNS_12basic_stringIcNS_11char_traitsIcEENS0_IcEEEEEENS0_ISB_EEEEE8max_sizeB8ue170006Ev, symObjAddr: 0x18BE8, symBinAddr: 0x10001B8F4, symSize: 0x18 }
  - { offsetInCU: 0x475ED, offset: 0x475ED, size: 0x8, addend: 0x0, symName: __ZNSt3__120__shared_ptr_emplaceIN8nlohmann16json_abi_v3_11_36detail21output_string_adapterIcNS_12basic_stringIcNS_11char_traitsIcEENS_9allocatorIcEEEEEENS8_ISB_EEEC2B8ue170006IJRSA_EEESC_DpOT_, symObjAddr: 0x18C00, symBinAddr: 0x10001B90C, symSize: 0x94 }
  - { offsetInCU: 0x47640, offset: 0x47640, size: 0x8, addend: 0x0, symName: __ZNSt3__119__shared_weak_countC2B8ue170006El, symObjAddr: 0x18C94, symBinAddr: 0x10001B9A0, symSize: 0x54 }
  - { offsetInCU: 0x47678, offset: 0x47678, size: 0x8, addend: 0x0, symName: __ZNSt3__120__shared_ptr_emplaceIN8nlohmann16json_abi_v3_11_36detail21output_string_adapterIcNS_12basic_stringIcNS_11char_traitsIcEENS_9allocatorIcEEEEEENS8_ISB_EEE8_StorageC1B8ue170006EOSC_, symObjAddr: 0x18CE8, symBinAddr: 0x10001B9F4, symSize: 0x34 }
  - { offsetInCU: 0x476B1, offset: 0x476B1, size: 0x8, addend: 0x0, symName: __ZN8nlohmann16json_abi_v3_11_36detail21output_string_adapterIcNSt3__112basic_stringIcNS3_11char_traitsIcEENS3_9allocatorIcEEEEEC1ERS9_, symObjAddr: 0x18D1C, symBinAddr: 0x10001BA28, symSize: 0x34 }
  - { offsetInCU: 0x476EA, offset: 0x476EA, size: 0x8, addend: 0x0, symName: __ZNSt3__120__shared_ptr_emplaceIN8nlohmann16json_abi_v3_11_36detail21output_string_adapterIcNS_12basic_stringIcNS_11char_traitsIcEENS_9allocatorIcEEEEEENS8_ISB_EEED1Ev, symObjAddr: 0x18D50, symBinAddr: 0x10001BA5C, symSize: 0x2C }
  - { offsetInCU: 0x47717, offset: 0x47717, size: 0x8, addend: 0x0, symName: __ZNSt3__120__shared_ptr_emplaceIN8nlohmann16json_abi_v3_11_36detail21output_string_adapterIcNS_12basic_stringIcNS_11char_traitsIcEENS_9allocatorIcEEEEEENS8_ISB_EEED0Ev, symObjAddr: 0x18D7C, symBinAddr: 0x10001BA88, symSize: 0x30 }
  - { offsetInCU: 0x47744, offset: 0x47744, size: 0x8, addend: 0x0, symName: __ZNSt3__120__shared_ptr_emplaceIN8nlohmann16json_abi_v3_11_36detail21output_string_adapterIcNS_12basic_stringIcNS_11char_traitsIcEENS_9allocatorIcEEEEEENS8_ISB_EEE16__on_zero_sharedEv, symObjAddr: 0x18DAC, symBinAddr: 0x10001BAB8, symSize: 0x30 }
  - { offsetInCU: 0x4776A, offset: 0x4776A, size: 0x8, addend: 0x0, symName: __ZNSt3__120__shared_ptr_emplaceIN8nlohmann16json_abi_v3_11_36detail21output_string_adapterIcNS_12basic_stringIcNS_11char_traitsIcEENS_9allocatorIcEEEEEENS8_ISB_EEE21__on_zero_shared_weakEv, symObjAddr: 0x18DDC, symBinAddr: 0x10001BAE8, symSize: 0x5C }
  - { offsetInCU: 0x477AB, offset: 0x477AB, size: 0x8, addend: 0x0, symName: __ZNSt3__114__shared_countC2B8ue170006El, symObjAddr: 0x18E38, symBinAddr: 0x10001BB44, symSize: 0x30 }
  - { offsetInCU: 0x477E3, offset: 0x477E3, size: 0x8, addend: 0x0, symName: __ZNSt3__120__shared_ptr_emplaceIN8nlohmann16json_abi_v3_11_36detail21output_string_adapterIcNS_12basic_stringIcNS_11char_traitsIcEENS_9allocatorIcEEEEEENS8_ISB_EEE8_StorageC2B8ue170006EOSC_, symObjAddr: 0x18E68, symBinAddr: 0x10001BB74, symSize: 0x30 }
  - { offsetInCU: 0x4781C, offset: 0x4781C, size: 0x8, addend: 0x0, symName: __ZNSt3__120__shared_ptr_emplaceIN8nlohmann16json_abi_v3_11_36detail21output_string_adapterIcNS_12basic_stringIcNS_11char_traitsIcEENS_9allocatorIcEEEEEENS8_ISB_EEE8_Storage11__get_allocB8ue170006Ev, symObjAddr: 0x18E98, symBinAddr: 0x10001BBA4, symSize: 0x3C }
  - { offsetInCU: 0x4786F, offset: 0x4786F, size: 0x8, addend: 0x0, symName: __ZNSt3__117__compressed_pairINS_9allocatorIN8nlohmann16json_abi_v3_11_36detail21output_string_adapterIcNS_12basic_stringIcNS_11char_traitsIcEENS1_IcEEEEEEEESB_E16__get_first_baseB8ue170006EPSD_, symObjAddr: 0x18ED4, symBinAddr: 0x10001BBE0, symSize: 0x14 }
  - { offsetInCU: 0x47892, offset: 0x47892, size: 0x8, addend: 0x0, symName: __ZN8nlohmann16json_abi_v3_11_36detail21output_string_adapterIcNSt3__112basic_stringIcNS3_11char_traitsIcEENS3_9allocatorIcEEEEEC2ERS9_, symObjAddr: 0x18EE8, symBinAddr: 0x10001BBF4, symSize: 0x50 }
  - { offsetInCU: 0x478CB, offset: 0x478CB, size: 0x8, addend: 0x0, symName: __ZN8nlohmann16json_abi_v3_11_36detail23output_adapter_protocolIcEC2Ev, symObjAddr: 0x18F38, symBinAddr: 0x10001BC44, symSize: 0x24 }
  - { offsetInCU: 0x478F5, offset: 0x478F5, size: 0x8, addend: 0x0, symName: __ZN8nlohmann16json_abi_v3_11_36detail21output_string_adapterIcNSt3__112basic_stringIcNS3_11char_traitsIcEENS3_9allocatorIcEEEEE15write_characterEc, symObjAddr: 0x18F5C, symBinAddr: 0x10001BC68, symSize: 0x30 }
  - { offsetInCU: 0x4792A, offset: 0x4792A, size: 0x8, addend: 0x0, symName: __ZN8nlohmann16json_abi_v3_11_36detail21output_string_adapterIcNSt3__112basic_stringIcNS3_11char_traitsIcEENS3_9allocatorIcEEEEE16write_charactersEPKcm, symObjAddr: 0x18F8C, symBinAddr: 0x10001BC98, symSize: 0x38 }
  - { offsetInCU: 0x4796E, offset: 0x4796E, size: 0x8, addend: 0x0, symName: __ZN8nlohmann16json_abi_v3_11_36detail21output_string_adapterIcNSt3__112basic_stringIcNS3_11char_traitsIcEENS3_9allocatorIcEEEEED1Ev, symObjAddr: 0x18FC4, symBinAddr: 0x10001BCD0, symSize: 0x2C }
  - { offsetInCU: 0x4799B, offset: 0x4799B, size: 0x8, addend: 0x0, symName: __ZN8nlohmann16json_abi_v3_11_36detail21output_string_adapterIcNSt3__112basic_stringIcNS3_11char_traitsIcEENS3_9allocatorIcEEEEED0Ev, symObjAddr: 0x18FF0, symBinAddr: 0x10001BCFC, symSize: 0x30 }
  - { offsetInCU: 0x479C8, offset: 0x479C8, size: 0x8, addend: 0x0, symName: __ZN8nlohmann16json_abi_v3_11_36detail23output_adapter_protocolIcED1Ev, symObjAddr: 0x19020, symBinAddr: 0x10001BD2C, symSize: 0x14 }
  - { offsetInCU: 0x479F2, offset: 0x479F2, size: 0x8, addend: 0x0, symName: __ZN8nlohmann16json_abi_v3_11_36detail23output_adapter_protocolIcED0Ev, symObjAddr: 0x19034, symBinAddr: 0x10001BD40, symSize: 0xC }
  - { offsetInCU: 0x47A1C, offset: 0x47A1C, size: 0x8, addend: 0x0, symName: __ZN8nlohmann16json_abi_v3_11_36detail21output_string_adapterIcNSt3__112basic_stringIcNS3_11char_traitsIcEENS3_9allocatorIcEEEEED2Ev, symObjAddr: 0x19040, symBinAddr: 0x10001BD4C, symSize: 0x2C }
  - { offsetInCU: 0x47A49, offset: 0x47A49, size: 0x8, addend: 0x0, symName: __ZN8nlohmann16json_abi_v3_11_36detail23output_adapter_protocolIcED2Ev, symObjAddr: 0x1906C, symBinAddr: 0x10001BD78, symSize: 0x14 }
  - { offsetInCU: 0x47A73, offset: 0x47A73, size: 0x8, addend: 0x0, symName: __ZNSt3__120__shared_ptr_emplaceIN8nlohmann16json_abi_v3_11_36detail21output_string_adapterIcNS_12basic_stringIcNS_11char_traitsIcEENS_9allocatorIcEEEEEENS8_ISB_EEED2Ev, symObjAddr: 0x19080, symBinAddr: 0x10001BD8C, symSize: 0x48 }
  - { offsetInCU: 0x47AA0, offset: 0x47AA0, size: 0x8, addend: 0x0, symName: __ZNSt3__120__shared_ptr_emplaceIN8nlohmann16json_abi_v3_11_36detail21output_string_adapterIcNS_12basic_stringIcNS_11char_traitsIcEENS_9allocatorIcEEEEEENS8_ISB_EEE8_StorageD1B8ue170006Ev, symObjAddr: 0x190C8, symBinAddr: 0x10001BDD4, symSize: 0x2C }
  - { offsetInCU: 0x47ACA, offset: 0x47ACA, size: 0x8, addend: 0x0, symName: __ZNSt3__120__shared_ptr_emplaceIN8nlohmann16json_abi_v3_11_36detail21output_string_adapterIcNS_12basic_stringIcNS_11char_traitsIcEENS_9allocatorIcEEEEEENS8_ISB_EEE8_StorageD2B8ue170006Ev, symObjAddr: 0x190F4, symBinAddr: 0x10001BE00, symSize: 0x2C }
  - { offsetInCU: 0x47AF4, offset: 0x47AF4, size: 0x8, addend: 0x0, symName: __ZNSt3__120__shared_ptr_emplaceIN8nlohmann16json_abi_v3_11_36detail21output_string_adapterIcNS_12basic_stringIcNS_11char_traitsIcEENS_9allocatorIcEEEEEENS8_ISB_EEE11__get_allocB8ue170006Ev, symObjAddr: 0x19120, symBinAddr: 0x10001BE2C, symSize: 0x28 }
  - { offsetInCU: 0x47B1A, offset: 0x47B1A, size: 0x8, addend: 0x0, symName: __ZNSt3__116allocator_traitsINS_9allocatorINS_20__shared_ptr_emplaceIN8nlohmann16json_abi_v3_11_36detail21output_string_adapterIcNS_12basic_stringIcNS_11char_traitsIcEENS1_IcEEEEEENS1_ISC_EEEEEEE10deallocateB8ue170006ERSF_PSE_m, symObjAddr: 0x19148, symBinAddr: 0x10001BE54, symSize: 0x34 }
  - { offsetInCU: 0x47B5C, offset: 0x47B5C, size: 0x8, addend: 0x0, symName: __ZNSt3__114pointer_traitsIPNS_20__shared_ptr_emplaceIN8nlohmann16json_abi_v3_11_36detail21output_string_adapterIcNS_12basic_stringIcNS_11char_traitsIcEENS_9allocatorIcEEEEEENS9_ISC_EEEEE10pointer_toB8ue170006ERSE_, symObjAddr: 0x1917C, symBinAddr: 0x10001BE88, symSize: 0x14 }
  - { offsetInCU: 0x47B7F, offset: 0x47B7F, size: 0x8, addend: 0x0, symName: __ZNSt3__19allocatorINS_20__shared_ptr_emplaceIN8nlohmann16json_abi_v3_11_36detail21output_string_adapterIcNS_12basic_stringIcNS_11char_traitsIcEENS0_IcEEEEEENS0_ISB_EEEEE10deallocateB8ue170006EPSD_m, symObjAddr: 0x19190, symBinAddr: 0x10001BE9C, symSize: 0x44 }
  - { offsetInCU: 0x47BC1, offset: 0x47BC1, size: 0x8, addend: 0x0, symName: __ZNSt3__110shared_ptrIN8nlohmann16json_abi_v3_11_36detail21output_string_adapterIcNS_12basic_stringIcNS_11char_traitsIcEENS_9allocatorIcEEEEEEEC1B8ue170006Ev, symObjAddr: 0x191D4, symBinAddr: 0x10001BEE0, symSize: 0x2C }
  - { offsetInCU: 0x47BEB, offset: 0x47BEB, size: 0x8, addend: 0x0, symName: __ZNSt3__110shared_ptrIN8nlohmann16json_abi_v3_11_36detail21output_string_adapterIcNS_12basic_stringIcNS_11char_traitsIcEENS_9allocatorIcEEEEEEE18__enable_weak_thisB8ue170006Ez, symObjAddr: 0x19200, symBinAddr: 0x10001BF0C, symSize: 0x10 }
  - { offsetInCU: 0x47C12, offset: 0x47C12, size: 0x8, addend: 0x0, symName: __ZNSt3__110shared_ptrIN8nlohmann16json_abi_v3_11_36detail21output_string_adapterIcNS_12basic_stringIcNS_11char_traitsIcEENS_9allocatorIcEEEEEEEC2B8ue170006Ev, symObjAddr: 0x19210, symBinAddr: 0x10001BF1C, symSize: 0x1C }
  - { offsetInCU: 0x47C3C, offset: 0x47C3C, size: 0x8, addend: 0x0, symName: __ZNSt3__120__shared_ptr_emplaceIN8nlohmann16json_abi_v3_11_36detail21output_string_adapterIcNS_12basic_stringIcNS_11char_traitsIcEENS_9allocatorIcEEEEEENS8_ISB_EEE8_Storage10__get_elemB8ue170006Ev, symObjAddr: 0x1922C, symBinAddr: 0x10001BF38, symSize: 0x3C }
  - { offsetInCU: 0x47C8F, offset: 0x47C8F, size: 0x8, addend: 0x0, symName: __ZNSt3__117__compressed_pairINS_9allocatorIN8nlohmann16json_abi_v3_11_36detail21output_string_adapterIcNS_12basic_stringIcNS_11char_traitsIcEENS1_IcEEEEEEEESB_E17__get_second_baseB8ue170006EPSD_, symObjAddr: 0x19268, symBinAddr: 0x10001BF74, symSize: 0x14 }
  - { offsetInCU: 0x47CB2, offset: 0x47CB2, size: 0x8, addend: 0x0, symName: __ZNSt3__118__allocation_guardINS_9allocatorINS_20__shared_ptr_emplaceIN8nlohmann16json_abi_v3_11_36detail21output_string_adapterIcNS_12basic_stringIcNS_11char_traitsIcEENS1_IcEEEEEENS1_ISC_EEEEEEED2B8ue170006Ev, symObjAddr: 0x1927C, symBinAddr: 0x10001BF88, symSize: 0x2C }
  - { offsetInCU: 0x47CDC, offset: 0x47CDC, size: 0x8, addend: 0x0, symName: __ZNSt3__118__allocation_guardINS_9allocatorINS_20__shared_ptr_emplaceIN8nlohmann16json_abi_v3_11_36detail21output_string_adapterIcNS_12basic_stringIcNS_11char_traitsIcEENS1_IcEEEEEENS1_ISC_EEEEEEE9__destroyB8ue170006Ev, symObjAddr: 0x192A8, symBinAddr: 0x10001BFB4, symSize: 0x4C }
  - { offsetInCU: 0x47D02, offset: 0x47D02, size: 0x8, addend: 0x0, symName: __ZNSt3__19allocatorIN8nlohmann16json_abi_v3_11_36detail21output_string_adapterIcNS_12basic_stringIcNS_11char_traitsIcEENS0_IcEEEEEEEC2B8ue170006Ev, symObjAddr: 0x192F4, symBinAddr: 0x10001C000, symSize: 0x2C }
  - { offsetInCU: 0x47D2C, offset: 0x47D2C, size: 0x8, addend: 0x0, symName: __ZNSt3__116__non_trivial_ifILb1ENS_9allocatorIN8nlohmann16json_abi_v3_11_36detail21output_string_adapterIcNS_12basic_stringIcNS_11char_traitsIcEENS1_IcEEEEEEEEEC2B8ue170006Ev, symObjAddr: 0x19320, symBinAddr: 0x10001C02C, symSize: 0x14 }
  - { offsetInCU: 0x47D56, offset: 0x47D56, size: 0x8, addend: 0x0, symName: __ZNSt3__110shared_ptrIN8nlohmann16json_abi_v3_11_36detail23output_adapter_protocolIcEEEC2B8ue170006INS3_21output_string_adapterIcNS_12basic_stringIcNS_11char_traitsIcEENS_9allocatorIcEEEEEEvEEONS0_IT_EE, symObjAddr: 0x19334, symBinAddr: 0x10001C040, symSize: 0x40 }
  - { offsetInCU: 0x47D99, offset: 0x47D99, size: 0x8, addend: 0x0, symName: __ZNSt3__110shared_ptrIN8nlohmann16json_abi_v3_11_36detail21output_string_adapterIcNS_12basic_stringIcNS_11char_traitsIcEENS_9allocatorIcEEEEEEED2B8ue170006Ev, symObjAddr: 0x19374, symBinAddr: 0x10001C080, symSize: 0x54 }
  - { offsetInCU: 0x47DC3, offset: 0x47DC3, size: 0x8, addend: 0x0, symName: __ZNSt3__119__shared_weak_count16__release_sharedB8ue170006Ev, symObjAddr: 0x193C8, symBinAddr: 0x10001C0D4, symSize: 0x3C }
  - { offsetInCU: 0x47DE9, offset: 0x47DE9, size: 0x8, addend: 0x0, symName: __ZNSt3__114__shared_count16__release_sharedB8ue170006Ev, symObjAddr: 0x19404, symBinAddr: 0x10001C110, symSize: 0x7C }
  - { offsetInCU: 0x47E0F, offset: 0x47E0F, size: 0x8, addend: 0x0, symName: __ZNSt3__110shared_ptrIN8nlohmann16json_abi_v3_11_36detail23output_adapter_protocolIcEEEC1B8ue170006ERKS6_, symObjAddr: 0x194B0, symBinAddr: 0x10001C1BC, symSize: 0x34 }
  - { offsetInCU: 0x47E48, offset: 0x47E48, size: 0x8, addend: 0x0, symName: __ZNSt3__110shared_ptrIN8nlohmann16json_abi_v3_11_36detail23output_adapter_protocolIcEEEC2B8ue170006ERKS6_, symObjAddr: 0x194E4, symBinAddr: 0x10001C1F0, symSize: 0x70 }
  - { offsetInCU: 0x47E81, offset: 0x47E81, size: 0x8, addend: 0x0, symName: __ZNSt3__119__shared_weak_count12__add_sharedB8ue170006Ev, symObjAddr: 0x19554, symBinAddr: 0x10001C260, symSize: 0x24 }
  - { offsetInCU: 0x47EA7, offset: 0x47EA7, size: 0x8, addend: 0x0, symName: __ZNSt3__114__shared_count12__add_sharedB8ue170006Ev, symObjAddr: 0x19578, symBinAddr: 0x10001C284, symSize: 0x28 }
  - { offsetInCU: 0x47ECD, offset: 0x47ECD, size: 0x8, addend: 0x0, symName: __ZN8nlohmann16json_abi_v3_11_36detail10serializerINS0_10basic_jsonINS0_11ordered_mapENSt3__16vectorENS5_12basic_stringIcNS5_11char_traitsIcEENS5_9allocatorIcEEEEbxydSA_NS0_14adl_serializerENS6_IhNSA_IhEEEEvEEEC2ENS5_10shared_ptrINS1_23output_adapter_protocolIcEEEEcNS1_15error_handler_tE, symObjAddr: 0x195D0, symBinAddr: 0x10001C2DC, symSize: 0x168 }
  - { offsetInCU: 0x47F25, offset: 0x47F25, size: 0x8, addend: 0x0, symName: __ZNSt3__110shared_ptrIN8nlohmann16json_abi_v3_11_36detail23output_adapter_protocolIcEEEC1B8ue170006EOS6_, symObjAddr: 0x19738, symBinAddr: 0x10001C444, symSize: 0x34 }
  - { offsetInCU: 0x47F5E, offset: 0x47F5E, size: 0x8, addend: 0x0, symName: __ZNSt3__111char_traitsIcE12to_char_typeB8ue170006Ei, symObjAddr: 0x1976C, symBinAddr: 0x10001C478, symSize: 0x18 }
  - { offsetInCU: 0x47F81, offset: 0x47F81, size: 0x8, addend: 0x0, symName: __ZNSt3__110shared_ptrIN8nlohmann16json_abi_v3_11_36detail23output_adapter_protocolIcEEEC2B8ue170006EOS6_, symObjAddr: 0x19784, symBinAddr: 0x10001C490, symSize: 0x40 }
  - { offsetInCU: 0x47FBA, offset: 0x47FBA, size: 0x8, addend: 0x0, symName: __ZNSt3__110shared_ptrIN8nlohmann16json_abi_v3_11_36detail23output_adapter_protocolIcEEED2B8ue170006Ev, symObjAddr: 0x197C4, symBinAddr: 0x10001C4D0, symSize: 0x54 }
  - { offsetInCU: 0x47FE4, offset: 0x47FE4, size: 0x8, addend: 0x0, symName: __ZN8nlohmann16json_abi_v3_11_36detail14output_adapterIcNSt3__112basic_stringIcNS3_11char_traitsIcEENS3_9allocatorIcEEEEED2Ev, symObjAddr: 0x19818, symBinAddr: 0x10001C524, symSize: 0x2C }
  - { offsetInCU: 0x48011, offset: 0x48011, size: 0x8, addend: 0x0, symName: __ZNKSt3__16vectorINS_4pairIKNS_12basic_stringIcNS_11char_traitsIcEENS_9allocatorIcEEEEN8nlohmann16json_abi_v3_11_310basic_jsonINSA_11ordered_mapES0_S7_bxydS5_NSA_14adl_serializerENS0_IhNS5_IhEEEEvEEEENS5_ISH_EEE5emptyB8ue170006Ev, symObjAddr: 0x19844, symBinAddr: 0x10001C550, symSize: 0x28 }
  - { offsetInCU: 0x48037, offset: 0x48037, size: 0x8, addend: 0x0, symName: __ZNKSt3__110shared_ptrIN8nlohmann16json_abi_v3_11_36detail23output_adapter_protocolIcEEEptB8ue170006Ev, symObjAddr: 0x1986C, symBinAddr: 0x10001C578, symSize: 0x18 }
  - { offsetInCU: 0x4805D, offset: 0x4805D, size: 0x8, addend: 0x0, symName: __ZNKSt3__16vectorINS_4pairIKNS_12basic_stringIcNS_11char_traitsIcEENS_9allocatorIcEEEEN8nlohmann16json_abi_v3_11_310basic_jsonINSA_11ordered_mapES0_S7_bxydS5_NSA_14adl_serializerENS0_IhNS5_IhEEEEvEEEENS5_ISH_EEE6cbeginB8ue170006Ev, symObjAddr: 0x19884, symBinAddr: 0x10001C590, symSize: 0x2C }
  - { offsetInCU: 0x48083, offset: 0x48083, size: 0x8, addend: 0x0, symName: __ZN8nlohmann16json_abi_v3_11_36detail10serializerINS0_10basic_jsonINS0_11ordered_mapENSt3__16vectorENS5_12basic_stringIcNS5_11char_traitsIcEENS5_9allocatorIcEEEEbxydSA_NS0_14adl_serializerENS6_IhNSA_IhEEEEvEEE12dump_escapedERKSC_b, symObjAddr: 0x198B0, symBinAddr: 0x10001C5BC, symSize: 0xC68 }
  - { offsetInCU: 0x4813F, offset: 0x4813F, size: 0x8, addend: 0x0, symName: __ZNKSt3__111__wrap_iterIPKNS_4pairIKNS_12basic_stringIcNS_11char_traitsIcEENS_9allocatorIcEEEEN8nlohmann16json_abi_v3_11_310basic_jsonINSA_11ordered_mapENS_6vectorES7_bxydS5_NSA_14adl_serializerENSD_IhNS5_IhEEEEvEEEEEptB8ue170006Ev, symObjAddr: 0x1A518, symBinAddr: 0x10001D224, symSize: 0x28 }
  - { offsetInCU: 0x48165, offset: 0x48165, size: 0x8, addend: 0x0, symName: __ZNSt3__111__wrap_iterIPKNS_4pairIKNS_12basic_stringIcNS_11char_traitsIcEENS_9allocatorIcEEEEN8nlohmann16json_abi_v3_11_310basic_jsonINSA_11ordered_mapENS_6vectorES7_bxydS5_NSA_14adl_serializerENSD_IhNS5_IhEEEEvEEEEEppB8ue170006Ev, symObjAddr: 0x1A540, symBinAddr: 0x10001D24C, symSize: 0x20 }
  - { offsetInCU: 0x4818B, offset: 0x4818B, size: 0x8, addend: 0x0, symName: __ZNKSt3__16vectorINS_4pairIKNS_12basic_stringIcNS_11char_traitsIcEENS_9allocatorIcEEEEN8nlohmann16json_abi_v3_11_310basic_jsonINSA_11ordered_mapES0_S7_bxydS5_NSA_14adl_serializerENS0_IhNS5_IhEEEEvEEEENS5_ISH_EEE4cendB8ue170006Ev, symObjAddr: 0x1A594, symBinAddr: 0x10001D2A0, symSize: 0x2C }
  - { offsetInCU: 0x481B1, offset: 0x481B1, size: 0x8, addend: 0x0, symName: __ZNKSt3__16vectorIN8nlohmann16json_abi_v3_11_310basic_jsonINS2_11ordered_mapES0_NS_12basic_stringIcNS_11char_traitsIcEENS_9allocatorIcEEEEbxydS8_NS2_14adl_serializerENS0_IhNS8_IhEEEEvEENS8_ISE_EEE6cbeginB8ue170006Ev, symObjAddr: 0x1A644, symBinAddr: 0x10001D350, symSize: 0x2C }
  - { offsetInCU: 0x481D7, offset: 0x481D7, size: 0x8, addend: 0x0, symName: __ZNKSt3__16vectorIN8nlohmann16json_abi_v3_11_310basic_jsonINS2_11ordered_mapES0_NS_12basic_stringIcNS_11char_traitsIcEENS_9allocatorIcEEEEbxydS8_NS2_14adl_serializerENS0_IhNS8_IhEEEEvEENS8_ISE_EEE4cendB8ue170006Ev, symObjAddr: 0x1A6A4, symBinAddr: 0x10001D3B0, symSize: 0x2C }
  - { offsetInCU: 0x481FD, offset: 0x481FD, size: 0x8, addend: 0x0, symName: __ZNKSt3__111__wrap_iterIPKN8nlohmann16json_abi_v3_11_310basic_jsonINS2_11ordered_mapENS_6vectorENS_12basic_stringIcNS_11char_traitsIcEENS_9allocatorIcEEEEbxydS9_NS2_14adl_serializerENS5_IhNS9_IhEEEEvEEEmiB8ue170006El, symObjAddr: 0x1A6D0, symBinAddr: 0x10001D3DC, symSize: 0x3C }
  - { offsetInCU: 0x48231, offset: 0x48231, size: 0x8, addend: 0x0, symName: __ZNKSt3__111__wrap_iterIPKN8nlohmann16json_abi_v3_11_310basic_jsonINS2_11ordered_mapENS_6vectorENS_12basic_stringIcNS_11char_traitsIcEENS_9allocatorIcEEEEbxydS9_NS2_14adl_serializerENS5_IhNS9_IhEEEEvEEEdeB8ue170006Ev, symObjAddr: 0x1A70C, symBinAddr: 0x10001D418, symSize: 0x18 }
  - { offsetInCU: 0x48257, offset: 0x48257, size: 0x8, addend: 0x0, symName: __ZNSt3__111__wrap_iterIPKN8nlohmann16json_abi_v3_11_310basic_jsonINS2_11ordered_mapENS_6vectorENS_12basic_stringIcNS_11char_traitsIcEENS_9allocatorIcEEEEbxydS9_NS2_14adl_serializerENS5_IhNS9_IhEEEEvEEEppB8ue170006Ev, symObjAddr: 0x1A724, symBinAddr: 0x10001D430, symSize: 0x20 }
  - { offsetInCU: 0x4827D, offset: 0x4827D, size: 0x8, addend: 0x0, symName: __ZNKSt3__16vectorIhNS_9allocatorIhEEE5emptyB8ue170006Ev, symObjAddr: 0x1A744, symBinAddr: 0x10001D450, symSize: 0x28 }
  - { offsetInCU: 0x482A3, offset: 0x482A3, size: 0x8, addend: 0x0, symName: __ZNKSt3__16vectorIhNS_9allocatorIhEEE6cbeginB8ue170006Ev, symObjAddr: 0x1A76C, symBinAddr: 0x10001D478, symSize: 0x2C }
  - { offsetInCU: 0x482C9, offset: 0x482C9, size: 0x8, addend: 0x0, symName: __ZNKSt3__16vectorIhNS_9allocatorIhEEE4cendB8ue170006Ev, symObjAddr: 0x1A7CC, symBinAddr: 0x10001D4D8, symSize: 0x2C }
  - { offsetInCU: 0x482EF, offset: 0x482EF, size: 0x8, addend: 0x0, symName: __ZNKSt3__111__wrap_iterIPKhEmiB8ue170006El, symObjAddr: 0x1A7F8, symBinAddr: 0x10001D504, symSize: 0x3C }
  - { offsetInCU: 0x48323, offset: 0x48323, size: 0x8, addend: 0x0, symName: __ZNKSt3__111__wrap_iterIPKhEdeB8ue170006Ev, symObjAddr: 0x1AAFC, symBinAddr: 0x10001D808, symSize: 0x18 }
  - { offsetInCU: 0x48349, offset: 0x48349, size: 0x8, addend: 0x0, symName: __ZNSt3__111__wrap_iterIPKhEppB8ue170006Ev, symObjAddr: 0x1AB14, symBinAddr: 0x10001D820, symSize: 0x20 }
  - { offsetInCU: 0x4836F, offset: 0x4836F, size: 0x8, addend: 0x0, symName: __ZNSt3__16vectorIhNS_9allocatorIhEEE4backB8ue170006Ev, symObjAddr: 0x1AB34, symBinAddr: 0x10001D840, symSize: 0x1C }
  - { offsetInCU: 0x48395, offset: 0x48395, size: 0x8, addend: 0x0, symName: __ZNK8nlohmann16json_abi_v3_11_327byte_container_with_subtypeINSt3__16vectorIhNS2_9allocatorIhEEEEE11has_subtypeEv, symObjAddr: 0x1AB50, symBinAddr: 0x10001D85C, symSize: 0x1C }
  - { offsetInCU: 0x483BB, offset: 0x483BB, size: 0x8, addend: 0x0, symName: __ZNK8nlohmann16json_abi_v3_11_327byte_container_with_subtypeINSt3__16vectorIhNS2_9allocatorIhEEEEE7subtypeEv, symObjAddr: 0x1AE30, symBinAddr: 0x10001DB3C, symSize: 0x44 }
  - { offsetInCU: 0x483E1, offset: 0x483E1, size: 0x8, addend: 0x0, symName: __ZNKSt3__16vectorINS_4pairIKNS_12basic_stringIcNS_11char_traitsIcEENS_9allocatorIcEEEEN8nlohmann16json_abi_v3_11_310basic_jsonINSA_11ordered_mapES0_S7_bxydS5_NSA_14adl_serializerENS0_IhNS5_IhEEEEvEEEENS5_ISH_EEE5beginB8ue170006Ev, symObjAddr: 0x1B1A4, symBinAddr: 0x10001DEB0, symSize: 0x30 }
  - { offsetInCU: 0x48409, offset: 0x48409, size: 0x8, addend: 0x0, symName: __ZNKSt3__16vectorINS_4pairIKNS_12basic_stringIcNS_11char_traitsIcEENS_9allocatorIcEEEEN8nlohmann16json_abi_v3_11_310basic_jsonINSA_11ordered_mapES0_S7_bxydS5_NSA_14adl_serializerENS0_IhNS5_IhEEEEvEEEENS5_ISH_EEE11__make_iterB8ue170006EPKSH_, symObjAddr: 0x1B1D4, symBinAddr: 0x10001DEE0, symSize: 0x30 }
  - { offsetInCU: 0x4843E, offset: 0x4843E, size: 0x8, addend: 0x0, symName: __ZNSt3__111__wrap_iterIPKNS_4pairIKNS_12basic_stringIcNS_11char_traitsIcEENS_9allocatorIcEEEEN8nlohmann16json_abi_v3_11_310basic_jsonINSA_11ordered_mapENS_6vectorES7_bxydS5_NSA_14adl_serializerENSD_IhNS5_IhEEEEvEEEEEC1B8ue170006ESK_, symObjAddr: 0x1B204, symBinAddr: 0x10001DF10, symSize: 0x34 }
  - { offsetInCU: 0x48476, offset: 0x48476, size: 0x8, addend: 0x0, symName: __ZNSt3__111__wrap_iterIPKNS_4pairIKNS_12basic_stringIcNS_11char_traitsIcEENS_9allocatorIcEEEEN8nlohmann16json_abi_v3_11_310basic_jsonINSA_11ordered_mapENS_6vectorES7_bxydS5_NSA_14adl_serializerENSD_IhNS5_IhEEEEvEEEEEC2B8ue170006ESK_, symObjAddr: 0x1B238, symBinAddr: 0x10001DF44, symSize: 0x20 }
  - { offsetInCU: 0x484AE, offset: 0x484AE, size: 0x8, addend: 0x0, symName: __ZNKSt3__112basic_stringIcNS_11char_traitsIcEENS_9allocatorIcEEEixB8ue170006Em, symObjAddr: 0x1B258, symBinAddr: 0x10001DF64, symSize: 0x30 }
  - { offsetInCU: 0x484E3, offset: 0x484E3, size: 0x8, addend: 0x0, symName: __ZNSt3__15arrayIcLm512EEixB8ue170006Em, symObjAddr: 0x1B408, symBinAddr: 0x10001E114, symSize: 0x20 }
  - { offsetInCU: 0x48517, offset: 0x48517, size: 0x8, addend: 0x0, symName: __ZNSt3__15arrayIcLm512EE4dataB8ue170006Ev, symObjAddr: 0x1B428, symBinAddr: 0x10001E134, symSize: 0x14 }
  - { offsetInCU: 0x4853D, offset: 0x4853D, size: 0x8, addend: 0x0, symName: __ZNKSt3__15arrayIcLm512EE4sizeB8ue170006Ev, symObjAddr: 0x1B43C, symBinAddr: 0x10001E148, symSize: 0x14 }
  - { offsetInCU: 0x48563, offset: 0x48563, size: 0x8, addend: 0x0, symName: __ZN8nlohmann16json_abi_v3_11_36detail10type_error6createIDnLi0EEES2_iRKNSt3__112basic_stringIcNS4_11char_traitsIcEENS4_9allocatorIcEEEET_, symObjAddr: 0x1B450, symBinAddr: 0x10001E15C, symSize: 0x130 }
  - { offsetInCU: 0x485C3, offset: 0x485C3, size: 0x8, addend: 0x0, symName: __ZN8nlohmann16json_abi_v3_11_36detail10serializerINS0_10basic_jsonINS0_11ordered_mapENSt3__16vectorENS5_12basic_stringIcNS5_11char_traitsIcEENS5_9allocatorIcEEEEbxydSA_NS0_14adl_serializerENS6_IhNSA_IhEEEEvEEE9hex_bytesEh, symObjAddr: 0x1B664, symBinAddr: 0x10001E370, symSize: 0xFC }
  - { offsetInCU: 0x48646, offset: 0x48646, size: 0x8, addend: 0x0, symName: __ZN8nlohmann16json_abi_v3_11_36detail13binary_writerINS0_10basic_jsonINS0_11ordered_mapENSt3__16vectorENS5_12basic_stringIcNS5_11char_traitsIcEENS5_9allocatorIcEEEEbxydSA_NS0_14adl_serializerENS6_IhNSA_IhEEEEvEEcE12to_char_typeIccLPv0EEEcT_, symObjAddr: 0x1B760, symBinAddr: 0x10001E46C, symSize: 0x14 }
  - { offsetInCU: 0x48682, offset: 0x48682, size: 0x8, addend: 0x0, symName: __ZNKSt3__112basic_stringIcNS_11char_traitsIcEENS_9allocatorIcEEE4backB8ue170006Ev, symObjAddr: 0x1B840, symBinAddr: 0x10001E54C, symSize: 0x48 }
  - { offsetInCU: 0x486A8, offset: 0x486A8, size: 0x8, addend: 0x0, symName: __ZNKSt3__15arrayIhLm400EE4sizeB8ue170006Ev, symObjAddr: 0x1B888, symBinAddr: 0x10001E594, symSize: 0x14 }
  - { offsetInCU: 0x486CE, offset: 0x486CE, size: 0x8, addend: 0x0, symName: __ZNKSt3__15arrayIhLm400EEixB8ue170006Em, symObjAddr: 0x1B89C, symBinAddr: 0x10001E5A8, symSize: 0x20 }
  - { offsetInCU: 0x48702, offset: 0x48702, size: 0x8, addend: 0x0, symName: __ZNSt3__112basic_stringIcNS_11char_traitsIcEENS_9allocatorIcEEEixB8ue170006Em, symObjAddr: 0x1BA94, symBinAddr: 0x10001E7A0, symSize: 0x30 }
  - { offsetInCU: 0x48737, offset: 0x48737, size: 0x8, addend: 0x0, symName: __ZNKSt3__16vectorINS_4pairIKNS_12basic_stringIcNS_11char_traitsIcEENS_9allocatorIcEEEEN8nlohmann16json_abi_v3_11_310basic_jsonINSA_11ordered_mapES0_S7_bxydS5_NSA_14adl_serializerENS0_IhNS5_IhEEEEvEEEENS5_ISH_EEE3endB8ue170006Ev, symObjAddr: 0x1BB14, symBinAddr: 0x10001E820, symSize: 0x30 }
  - { offsetInCU: 0x4875F, offset: 0x4875F, size: 0x8, addend: 0x0, symName: __ZNKSt3__111__wrap_iterIPKNS_4pairIKNS_12basic_stringIcNS_11char_traitsIcEENS_9allocatorIcEEEEN8nlohmann16json_abi_v3_11_310basic_jsonINSA_11ordered_mapENS_6vectorES7_bxydS5_NSA_14adl_serializerENSD_IhNS5_IhEEEEvEEEEE4baseB8ue170006Ev, symObjAddr: 0x1BB44, symBinAddr: 0x10001E850, symSize: 0x18 }
  - { offsetInCU: 0x48785, offset: 0x48785, size: 0x8, addend: 0x0, symName: __ZNSt3__111__wrap_iterIPKNS_4pairIKNS_12basic_stringIcNS_11char_traitsIcEENS_9allocatorIcEEEEN8nlohmann16json_abi_v3_11_310basic_jsonINSA_11ordered_mapENS_6vectorES7_bxydS5_NSA_14adl_serializerENSD_IhNS5_IhEEEEvEEEEEpLB8ue170006El, symObjAddr: 0x1BBC0, symBinAddr: 0x10001E8CC, symSize: 0x30 }
  - { offsetInCU: 0x487B9, offset: 0x487B9, size: 0x8, addend: 0x0, symName: __ZNKSt3__16vectorIN8nlohmann16json_abi_v3_11_310basic_jsonINS2_11ordered_mapES0_NS_12basic_stringIcNS_11char_traitsIcEENS_9allocatorIcEEEEbxydS8_NS2_14adl_serializerENS0_IhNS8_IhEEEEvEENS8_ISE_EEE5beginB8ue170006Ev, symObjAddr: 0x1BBF0, symBinAddr: 0x10001E8FC, symSize: 0x30 }
  - { offsetInCU: 0x487E1, offset: 0x487E1, size: 0x8, addend: 0x0, symName: __ZNKSt3__16vectorIN8nlohmann16json_abi_v3_11_310basic_jsonINS2_11ordered_mapES0_NS_12basic_stringIcNS_11char_traitsIcEENS_9allocatorIcEEEEbxydS8_NS2_14adl_serializerENS0_IhNS8_IhEEEEvEENS8_ISE_EEE11__make_iterB8ue170006EPKSE_, symObjAddr: 0x1BC20, symBinAddr: 0x10001E92C, symSize: 0x30 }
  - { offsetInCU: 0x48816, offset: 0x48816, size: 0x8, addend: 0x0, symName: __ZNSt3__111__wrap_iterIPKN8nlohmann16json_abi_v3_11_310basic_jsonINS2_11ordered_mapENS_6vectorENS_12basic_stringIcNS_11char_traitsIcEENS_9allocatorIcEEEEbxydS9_NS2_14adl_serializerENS5_IhNS9_IhEEEEvEEEC1B8ue170006ESH_, symObjAddr: 0x1BC50, symBinAddr: 0x10001E95C, symSize: 0x34 }
  - { offsetInCU: 0x4884E, offset: 0x4884E, size: 0x8, addend: 0x0, symName: __ZNSt3__111__wrap_iterIPKN8nlohmann16json_abi_v3_11_310basic_jsonINS2_11ordered_mapENS_6vectorENS_12basic_stringIcNS_11char_traitsIcEENS_9allocatorIcEEEEbxydS9_NS2_14adl_serializerENS5_IhNS9_IhEEEEvEEEC2B8ue170006ESH_, symObjAddr: 0x1BC84, symBinAddr: 0x10001E990, symSize: 0x20 }
  - { offsetInCU: 0x48886, offset: 0x48886, size: 0x8, addend: 0x0, symName: __ZNKSt3__111__wrap_iterIPKN8nlohmann16json_abi_v3_11_310basic_jsonINS2_11ordered_mapENS_6vectorENS_12basic_stringIcNS_11char_traitsIcEENS_9allocatorIcEEEEbxydS9_NS2_14adl_serializerENS5_IhNS9_IhEEEEvEEE4baseB8ue170006Ev, symObjAddr: 0x1BCEC, symBinAddr: 0x10001E9F8, symSize: 0x18 }
  - { offsetInCU: 0x488AC, offset: 0x488AC, size: 0x8, addend: 0x0, symName: __ZNKSt3__16vectorIN8nlohmann16json_abi_v3_11_310basic_jsonINS2_11ordered_mapES0_NS_12basic_stringIcNS_11char_traitsIcEENS_9allocatorIcEEEEbxydS8_NS2_14adl_serializerENS0_IhNS8_IhEEEEvEENS8_ISE_EEE3endB8ue170006Ev, symObjAddr: 0x1BD04, symBinAddr: 0x10001EA10, symSize: 0x30 }
  - { offsetInCU: 0x488D4, offset: 0x488D4, size: 0x8, addend: 0x0, symName: __ZNKSt3__111__wrap_iterIPKN8nlohmann16json_abi_v3_11_310basic_jsonINS2_11ordered_mapENS_6vectorENS_12basic_stringIcNS_11char_traitsIcEENS_9allocatorIcEEEEbxydS9_NS2_14adl_serializerENS5_IhNS9_IhEEEEvEEEplB8ue170006El, symObjAddr: 0x1BD34, symBinAddr: 0x10001EA40, symSize: 0x3C }
  - { offsetInCU: 0x48916, offset: 0x48916, size: 0x8, addend: 0x0, symName: __ZNSt3__111__wrap_iterIPKN8nlohmann16json_abi_v3_11_310basic_jsonINS2_11ordered_mapENS_6vectorENS_12basic_stringIcNS_11char_traitsIcEENS_9allocatorIcEEEEbxydS9_NS2_14adl_serializerENS5_IhNS9_IhEEEEvEEEpLB8ue170006El, symObjAddr: 0x1BD70, symBinAddr: 0x10001EA7C, symSize: 0x28 }
  - { offsetInCU: 0x4894A, offset: 0x4894A, size: 0x8, addend: 0x0, symName: __ZNKSt3__16vectorIhNS_9allocatorIhEEE5beginB8ue170006Ev, symObjAddr: 0x1BD98, symBinAddr: 0x10001EAA4, symSize: 0x30 }
  - { offsetInCU: 0x48972, offset: 0x48972, size: 0x8, addend: 0x0, symName: __ZNKSt3__16vectorIhNS_9allocatorIhEEE11__make_iterB8ue170006EPKh, symObjAddr: 0x1BDC8, symBinAddr: 0x10001EAD4, symSize: 0x30 }
  - { offsetInCU: 0x489A7, offset: 0x489A7, size: 0x8, addend: 0x0, symName: __ZNSt3__111__wrap_iterIPKhEC1B8ue170006ES2_, symObjAddr: 0x1BDF8, symBinAddr: 0x10001EB04, symSize: 0x34 }
  - { offsetInCU: 0x489DF, offset: 0x489DF, size: 0x8, addend: 0x0, symName: __ZNSt3__111__wrap_iterIPKhEC2B8ue170006ES2_, symObjAddr: 0x1BE2C, symBinAddr: 0x10001EB38, symSize: 0x20 }
  - { offsetInCU: 0x48A17, offset: 0x48A17, size: 0x8, addend: 0x0, symName: __ZNKSt3__111__wrap_iterIPKhE4baseB8ue170006Ev, symObjAddr: 0x1BE94, symBinAddr: 0x10001EBA0, symSize: 0x18 }
  - { offsetInCU: 0x48A3D, offset: 0x48A3D, size: 0x8, addend: 0x0, symName: __ZNKSt3__16vectorIhNS_9allocatorIhEEE3endB8ue170006Ev, symObjAddr: 0x1BEAC, symBinAddr: 0x10001EBB8, symSize: 0x30 }
  - { offsetInCU: 0x48A65, offset: 0x48A65, size: 0x8, addend: 0x0, symName: __ZNKSt3__111__wrap_iterIPKhEplB8ue170006El, symObjAddr: 0x1BEDC, symBinAddr: 0x10001EBE8, symSize: 0x3C }
  - { offsetInCU: 0x48AA7, offset: 0x48AA7, size: 0x8, addend: 0x0, symName: __ZNSt3__111__wrap_iterIPKhEpLB8ue170006El, symObjAddr: 0x1BF18, symBinAddr: 0x10001EC24, symSize: 0x28 }
  - { offsetInCU: 0x48ADB, offset: 0x48ADB, size: 0x8, addend: 0x0, symName: __ZNSt3__15arrayIcLm64EE5beginB8ue170006Ev, symObjAddr: 0x1BF40, symBinAddr: 0x10001EC4C, symSize: 0x24 }
  - { offsetInCU: 0x48B01, offset: 0x48B01, size: 0x8, addend: 0x0, symName: __ZN8nlohmann16json_abi_v3_11_36detail10serializerINS0_10basic_jsonINS0_11ordered_mapENSt3__16vectorENS5_12basic_stringIcNS5_11char_traitsIcEENS5_9allocatorIcEEEEbxydSA_NS0_14adl_serializerENS6_IhNSA_IhEEEEvEEE18is_negative_numberIhLi0EEEbT_, symObjAddr: 0x1BF64, symBinAddr: 0x10001EC70, symSize: 0x1C }
  - { offsetInCU: 0x48B42, offset: 0x48B42, size: 0x8, addend: 0x0, symName: __ZN8nlohmann16json_abi_v3_11_36detail10serializerINS0_10basic_jsonINS0_11ordered_mapENSt3__16vectorENS5_12basic_stringIcNS5_11char_traitsIcEENS5_9allocatorIcEEEEbxydSA_NS0_14adl_serializerENS6_IhNSA_IhEEEEvEEE11remove_signEx, symObjAddr: 0x1BF80, symBinAddr: 0x10001EC8C, symSize: 0xAC }
  - { offsetInCU: 0x48B77, offset: 0x48B77, size: 0x8, addend: 0x0, symName: __ZN8nlohmann16json_abi_v3_11_36detail10serializerINS0_10basic_jsonINS0_11ordered_mapENSt3__16vectorENS5_12basic_stringIcNS5_11char_traitsIcEENS5_9allocatorIcEEEEbxydSA_NS0_14adl_serializerENS6_IhNSA_IhEEEEvEEE12count_digitsEy, symObjAddr: 0x1C02C, symBinAddr: 0x10001ED38, symSize: 0xD4 }
  - { offsetInCU: 0x48BBB, offset: 0x48BBB, size: 0x8, addend: 0x0, symName: __ZNKSt3__15arrayIcLm64EE4sizeB8ue170006Ev, symObjAddr: 0x1C100, symBinAddr: 0x10001EE0C, symSize: 0x14 }
  - { offsetInCU: 0x48BE1, offset: 0x48BE1, size: 0x8, addend: 0x0, symName: __ZNKSt3__15arrayINS0_IcLm2EEELm100EEixB8ue170006Em, symObjAddr: 0x1C114, symBinAddr: 0x10001EE20, symSize: 0x20 }
  - { offsetInCU: 0x48C15, offset: 0x48C15, size: 0x8, addend: 0x0, symName: __ZNKSt3__15arrayIcLm2EEixB8ue170006Em, symObjAddr: 0x1C134, symBinAddr: 0x10001EE40, symSize: 0x20 }
  - { offsetInCU: 0x48C49, offset: 0x48C49, size: 0x8, addend: 0x0, symName: __ZNSt3__15arrayIcLm64EE4dataB8ue170006Ev, symObjAddr: 0x1C154, symBinAddr: 0x10001EE60, symSize: 0x14 }
  - { offsetInCU: 0x48C6F, offset: 0x48C6F, size: 0x8, addend: 0x0, symName: __ZNSt3__114numeric_limitsIxE3maxB8ue170006Ev, symObjAddr: 0x1C168, symBinAddr: 0x10001EE74, symSize: 0x14 }
  - { offsetInCU: 0x48C83, offset: 0x48C83, size: 0x8, addend: 0x0, symName: __ZNSt3__123__libcpp_numeric_limitsIxLb1EE3maxB8ue170006Ev, symObjAddr: 0x1C17C, symBinAddr: 0x10001EE88, symSize: 0x8 }
  - { offsetInCU: 0x48C97, offset: 0x48C97, size: 0x8, addend: 0x0, symName: __ZN8nlohmann16json_abi_v3_11_36detail10serializerINS0_10basic_jsonINS0_11ordered_mapENSt3__16vectorENS5_12basic_stringIcNS5_11char_traitsIcEENS5_9allocatorIcEEEEbxydSA_NS0_14adl_serializerENS6_IhNSA_IhEEEEvEEE18is_negative_numberIyLi0EEEbT_, symObjAddr: 0x1C184, symBinAddr: 0x10001EE90, symSize: 0x1C }
  - { offsetInCU: 0x48CD8, offset: 0x48CD8, size: 0x8, addend: 0x0, symName: __ZN8nlohmann16json_abi_v3_11_36detail10serializerINS0_10basic_jsonINS0_11ordered_mapENSt3__16vectorENS5_12basic_stringIcNS5_11char_traitsIcEENS5_9allocatorIcEEEEbxydSA_NS0_14adl_serializerENS6_IhNSA_IhEEEEvEEE18is_negative_numberIxLi0EEEbT_, symObjAddr: 0x1C1A0, symBinAddr: 0x10001EEAC, symSize: 0x24 }
  - { offsetInCU: 0x48D1B, offset: 0x48D1B, size: 0x8, addend: 0x0, symName: __Z8isfiniteB8ue170006IdLi0EEbT_, symObjAddr: 0x1C1C4, symBinAddr: 0x10001EED0, symSize: 0x34 }
  - { offsetInCU: 0x48D59, offset: 0x48D59, size: 0x8, addend: 0x0, symName: __ZN8nlohmann16json_abi_v3_11_36detail10serializerINS0_10basic_jsonINS0_11ordered_mapENSt3__16vectorENS5_12basic_stringIcNS5_11char_traitsIcEENS5_9allocatorIcEEEEbxydSA_NS0_14adl_serializerENS6_IhNSA_IhEEEEvEEE10dump_floatEdNS5_17integral_constantIbLb1EEE, symObjAddr: 0x1C1F8, symBinAddr: 0x10001EF04, symSize: 0x94 }
  - { offsetInCU: 0x48DB7, offset: 0x48DB7, size: 0x8, addend: 0x0, symName: __Z7signbitB8ue170006IdLi0EEbT_, symObjAddr: 0x1C4F8, symBinAddr: 0x10001F204, symSize: 0x24 }
  - { offsetInCU: 0x48E06, offset: 0x48E06, size: 0x8, addend: 0x0, symName: __ZN8nlohmann16json_abi_v3_11_36detail9dtoa_impl5diyfpC1Eyi, symObjAddr: 0x1CD9C, symBinAddr: 0x10001FAA8, symSize: 0x3C }
  - { offsetInCU: 0x48E4E, offset: 0x48E4E, size: 0x8, addend: 0x0, symName: __ZN8nlohmann16json_abi_v3_11_36detail9dtoa_impl5diyfp9normalizeES3_, symObjAddr: 0x1CDD8, symBinAddr: 0x10001FAE4, symSize: 0xAC }
  - { offsetInCU: 0x48E72, offset: 0x48E72, size: 0x8, addend: 0x0, symName: __ZN8nlohmann16json_abi_v3_11_36detail9dtoa_impl5diyfp12normalize_toERKS3_i, symObjAddr: 0x1CE84, symBinAddr: 0x10001FB90, symSize: 0xF8 }
  - { offsetInCU: 0x48EB4, offset: 0x48EB4, size: 0x8, addend: 0x0, symName: __ZN8nlohmann16json_abi_v3_11_36detail9dtoa_impl5diyfpC2Eyi, symObjAddr: 0x1CF7C, symBinAddr: 0x10001FC88, symSize: 0x2C }
  - { offsetInCU: 0x48EFC, offset: 0x48EFC, size: 0x8, addend: 0x0, symName: __ZN8nlohmann16json_abi_v3_11_36detail9dtoa_impl5diyfp3mulERKS3_S5_, symObjAddr: 0x1D1D4, symBinAddr: 0x10001FEE0, symSize: 0x140 }
  - { offsetInCU: 0x49014, offset: 0x49014, size: 0x8, addend: 0x0, symName: __ZNKSt3__15arrayIN8nlohmann16json_abi_v3_11_36detail9dtoa_impl12cached_powerELm79EE4sizeB8ue170006Ev, symObjAddr: 0x1D7B8, symBinAddr: 0x1000204C4, symSize: 0x14 }
  - { offsetInCU: 0x4903A, offset: 0x4903A, size: 0x8, addend: 0x0, symName: __ZNKSt3__15arrayIN8nlohmann16json_abi_v3_11_36detail9dtoa_impl12cached_powerELm79EEixB8ue170006Em, symObjAddr: 0x1D7CC, symBinAddr: 0x1000204D8, symSize: 0x20 }
  - { offsetInCU: 0x4906E, offset: 0x4906E, size: 0x8, addend: 0x0, symName: __ZN8nlohmann16json_abi_v3_11_36detail9dtoa_impl5diyfp3subERKS3_S5_, symObjAddr: 0x1D7EC, symBinAddr: 0x1000204F8, symSize: 0xE8 }
  - { offsetInCU: 0x490A1, offset: 0x490A1, size: 0x8, addend: 0x0, symName: __ZNSt3__114numeric_limitsIyE3maxB8ue170006Ev, symObjAddr: 0x1DD18, symBinAddr: 0x100020A24, symSize: 0x14 }
  - { offsetInCU: 0x490B5, offset: 0x490B5, size: 0x8, addend: 0x0, symName: __ZNSt3__123__libcpp_numeric_limitsIyLb1EE3maxB8ue170006Ev, symObjAddr: 0x1DD2C, symBinAddr: 0x100020A38, symSize: 0x8 }
  - { offsetInCU: 0x490C9, offset: 0x490C9, size: 0x8, addend: 0x0, symName: __ZN8nlohmann16json_abi_v3_11_36detail10serializerINS0_10basic_jsonINS0_11ordered_mapENSt3__16vectorENS5_12basic_stringIcNS5_11char_traitsIcEENS5_9allocatorIcEEEEbxydSA_NS0_14adl_serializerENS6_IhNSA_IhEEEEvEEED2Ev, symObjAddr: 0x1DF54, symBinAddr: 0x100020C60, symSize: 0x38 }
  - { offsetInCU: 0x490F3, offset: 0x490F3, size: 0x8, addend: 0x0, symName: __ZNSt3__16vectorI15TimeRecordStartNS_9allocatorIS1_EEEC2ERKS4_, symObjAddr: 0x1DF8C, symBinAddr: 0x100020C98, symSize: 0x94 }
  - { offsetInCU: 0x4912E, offset: 0x4912E, size: 0x8, addend: 0x0, symName: __ZNSt3__116allocator_traitsINS_9allocatorI15TimeRecordStartEEE37select_on_container_copy_constructionB8ue170006IS3_vvEES3_RKS3_, symObjAddr: 0x1E020, symBinAddr: 0x100020D2C, symSize: 0x10 }
  - { offsetInCU: 0x49163, offset: 0x49163, size: 0x8, addend: 0x0, symName: __ZNSt3__117__compressed_pairIP15TimeRecordStartNS_9allocatorIS1_EEEC1B8ue170006IDnS4_EEOT_OT0_, symObjAddr: 0x1E030, symBinAddr: 0x100020D3C, symSize: 0x3C }
  - { offsetInCU: 0x491BB, offset: 0x491BB, size: 0x8, addend: 0x0, symName: __ZNSt3__16vectorI15TimeRecordStartNS_9allocatorIS1_EEE16__init_with_sizeB8ue170006IPS1_S6_EEvT_T0_m, symObjAddr: 0x1E06C, symBinAddr: 0x100020D78, symSize: 0xB8 }
  - { offsetInCU: 0x4922F, offset: 0x4922F, size: 0x8, addend: 0x0, symName: __ZNSt3__117__compressed_pairIP15TimeRecordStartNS_9allocatorIS1_EEEC2B8ue170006IDnS4_EEOT_OT0_, symObjAddr: 0x1E124, symBinAddr: 0x100020E30, symSize: 0x44 }
  - { offsetInCU: 0x49287, offset: 0x49287, size: 0x8, addend: 0x0, symName: __ZNSt3__122__compressed_pair_elemINS_9allocatorI15TimeRecordStartEELi1ELb1EEC2B8ue170006IS3_vEEOT_, symObjAddr: 0x1E168, symBinAddr: 0x100020E74, symSize: 0x18 }
  - { offsetInCU: 0x492C9, offset: 0x492C9, size: 0x8, addend: 0x0, symName: __ZNSt3__16vectorI15TimeRecordStartNS_9allocatorIS1_EEE11__vallocateB8ue170006Em, symObjAddr: 0x1E1C0, symBinAddr: 0x100020ECC, symSize: 0xAC }
  - { offsetInCU: 0x4930D, offset: 0x4930D, size: 0x8, addend: 0x0, symName: __ZNSt3__16vectorI15TimeRecordStartNS_9allocatorIS1_EEE18__construct_at_endIPS1_S6_EEvT_T0_m, symObjAddr: 0x1E26C, symBinAddr: 0x100020F78, symSize: 0x8C }
  - { offsetInCU: 0x49383, offset: 0x49383, size: 0x8, addend: 0x0, symName: __ZNSt3__128__exception_guard_exceptionsINS_6vectorI15TimeRecordStartNS_9allocatorIS2_EEE16__destroy_vectorEE10__completeB8ue170006Ev, symObjAddr: 0x1E2F8, symBinAddr: 0x100021004, symSize: 0x1C }
  - { offsetInCU: 0x493A9, offset: 0x493A9, size: 0x8, addend: 0x0, symName: __ZNSt3__128__exception_guard_exceptionsINS_6vectorI15TimeRecordStartNS_9allocatorIS2_EEE16__destroy_vectorEED1B8ue170006Ev, symObjAddr: 0x1E314, symBinAddr: 0x100021020, symSize: 0x2C }
  - { offsetInCU: 0x493D3, offset: 0x493D3, size: 0x8, addend: 0x0, symName: __ZNSt3__128__exception_guard_exceptionsINS_6vectorI15TimeRecordStartNS_9allocatorIS2_EEE16__destroy_vectorEEC1B8ue170006ES6_, symObjAddr: 0x1E340, symBinAddr: 0x10002104C, symSize: 0x34 }
  - { offsetInCU: 0x4940B, offset: 0x4940B, size: 0x8, addend: 0x0, symName: __ZNSt3__128__exception_guard_exceptionsINS_6vectorI15TimeRecordStartNS_9allocatorIS2_EEE16__destroy_vectorEEC2B8ue170006ES6_, symObjAddr: 0x1E374, symBinAddr: 0x100021080, symSize: 0x24 }
  - { offsetInCU: 0x49443, offset: 0x49443, size: 0x8, addend: 0x0, symName: __ZNSt3__129_AllocatorDestroyRangeReverseINS_9allocatorI15TimeRecordStartEEPS2_EC1B8ue170006ERS3_RS4_S7_, symObjAddr: 0x1E558, symBinAddr: 0x100021264, symSize: 0x44 }
  - { offsetInCU: 0x4949A, offset: 0x4949A, size: 0x8, addend: 0x0, symName: __ZNSt3__116allocator_traitsINS_9allocatorI15TimeRecordStartEEE9constructB8ue170006IS2_JRS2_EvEEvRS3_PT_DpOT0_, symObjAddr: 0x1E59C, symBinAddr: 0x1000212A8, symSize: 0x34 }
  - { offsetInCU: 0x494F1, offset: 0x494F1, size: 0x8, addend: 0x0, symName: __ZNSt3__128__exception_guard_exceptionsINS_29_AllocatorDestroyRangeReverseINS_9allocatorI15TimeRecordStartEEPS3_EEE10__completeB8ue170006Ev, symObjAddr: 0x1E5D0, symBinAddr: 0x1000212DC, symSize: 0x1C }
  - { offsetInCU: 0x49517, offset: 0x49517, size: 0x8, addend: 0x0, symName: __ZNSt3__128__exception_guard_exceptionsINS_29_AllocatorDestroyRangeReverseINS_9allocatorI15TimeRecordStartEEPS3_EEED1B8ue170006Ev, symObjAddr: 0x1E5EC, symBinAddr: 0x1000212F8, symSize: 0x2C }
  - { offsetInCU: 0x49541, offset: 0x49541, size: 0x8, addend: 0x0, symName: __ZNSt3__128__exception_guard_exceptionsINS_29_AllocatorDestroyRangeReverseINS_9allocatorI15TimeRecordStartEEPS3_EEEC1B8ue170006ES6_, symObjAddr: 0x1E618, symBinAddr: 0x100021324, symSize: 0x34 }
  - { offsetInCU: 0x4957A, offset: 0x4957A, size: 0x8, addend: 0x0, symName: __ZNSt3__128__exception_guard_exceptionsINS_29_AllocatorDestroyRangeReverseINS_9allocatorI15TimeRecordStartEEPS3_EEEC2B8ue170006ES6_, symObjAddr: 0x1E64C, symBinAddr: 0x100021358, symSize: 0x30 }
  - { offsetInCU: 0x495B3, offset: 0x495B3, size: 0x8, addend: 0x0, symName: __ZNSt3__129_AllocatorDestroyRangeReverseINS_9allocatorI15TimeRecordStartEEPS2_EC2B8ue170006ERS3_RS4_S7_, symObjAddr: 0x1E67C, symBinAddr: 0x100021388, symSize: 0x38 }
  - { offsetInCU: 0x4960A, offset: 0x4960A, size: 0x8, addend: 0x0, symName: __ZNSt3__19allocatorI15TimeRecordStartE9constructB8ue170006IS1_JRS1_EEEvPT_DpOT0_, symObjAddr: 0x1E6B4, symBinAddr: 0x1000213C0, symSize: 0x28 }
  - { offsetInCU: 0x49660, offset: 0x49660, size: 0x8, addend: 0x0, symName: __ZNSt3__128__exception_guard_exceptionsINS_29_AllocatorDestroyRangeReverseINS_9allocatorI15TimeRecordStartEEPS3_EEED2B8ue170006Ev, symObjAddr: 0x1E6DC, symBinAddr: 0x1000213E8, symSize: 0x50 }
  - { offsetInCU: 0x4968A, offset: 0x4968A, size: 0x8, addend: 0x0, symName: __ZNKSt3__129_AllocatorDestroyRangeReverseINS_9allocatorI15TimeRecordStartEEPS2_EclB8ue170006Ev, symObjAddr: 0x1E72C, symBinAddr: 0x100021438, symSize: 0x68 }
  - { offsetInCU: 0x496B0, offset: 0x496B0, size: 0x8, addend: 0x0, symName: __ZNSt3__128__exception_guard_exceptionsINS_6vectorI15TimeRecordStartNS_9allocatorIS2_EEE16__destroy_vectorEED2B8ue170006Ev, symObjAddr: 0x1E804, symBinAddr: 0x100021510, symSize: 0x48 }
  - { offsetInCU: 0x496DA, offset: 0x496DA, size: 0x8, addend: 0x0, symName: __ZNSt3__16vectorI14TimeRecordStopNS_9allocatorIS1_EEEC2ERKS4_, symObjAddr: 0x1E84C, symBinAddr: 0x100021558, symSize: 0x94 }
  - { offsetInCU: 0x49715, offset: 0x49715, size: 0x8, addend: 0x0, symName: __ZNSt3__116allocator_traitsINS_9allocatorI14TimeRecordStopEEE37select_on_container_copy_constructionB8ue170006IS3_vvEES3_RKS3_, symObjAddr: 0x1E8E0, symBinAddr: 0x1000215EC, symSize: 0x10 }
  - { offsetInCU: 0x4974A, offset: 0x4974A, size: 0x8, addend: 0x0, symName: __ZNSt3__117__compressed_pairIP14TimeRecordStopNS_9allocatorIS1_EEEC1B8ue170006IDnS4_EEOT_OT0_, symObjAddr: 0x1E8F0, symBinAddr: 0x1000215FC, symSize: 0x3C }
  - { offsetInCU: 0x497A2, offset: 0x497A2, size: 0x8, addend: 0x0, symName: __ZNSt3__16vectorI14TimeRecordStopNS_9allocatorIS1_EEE16__init_with_sizeB8ue170006IPS1_S6_EEvT_T0_m, symObjAddr: 0x1E92C, symBinAddr: 0x100021638, symSize: 0xB8 }
  - { offsetInCU: 0x49816, offset: 0x49816, size: 0x8, addend: 0x0, symName: __ZNSt3__117__compressed_pairIP14TimeRecordStopNS_9allocatorIS1_EEEC2B8ue170006IDnS4_EEOT_OT0_, symObjAddr: 0x1E9E4, symBinAddr: 0x1000216F0, symSize: 0x44 }
  - { offsetInCU: 0x4986E, offset: 0x4986E, size: 0x8, addend: 0x0, symName: __ZNSt3__122__compressed_pair_elemINS_9allocatorI14TimeRecordStopEELi1ELb1EEC2B8ue170006IS3_vEEOT_, symObjAddr: 0x1EA28, symBinAddr: 0x100021734, symSize: 0x18 }
  - { offsetInCU: 0x498B0, offset: 0x498B0, size: 0x8, addend: 0x0, symName: __ZNSt3__16vectorI14TimeRecordStopNS_9allocatorIS1_EEE11__vallocateB8ue170006Em, symObjAddr: 0x1EA80, symBinAddr: 0x10002178C, symSize: 0xB4 }
  - { offsetInCU: 0x498F4, offset: 0x498F4, size: 0x8, addend: 0x0, symName: __ZNSt3__16vectorI14TimeRecordStopNS_9allocatorIS1_EEE18__construct_at_endIPS1_S6_EEvT_T0_m, symObjAddr: 0x1EB34, symBinAddr: 0x100021840, symSize: 0x8C }
  - { offsetInCU: 0x4996A, offset: 0x4996A, size: 0x8, addend: 0x0, symName: __ZNSt3__128__exception_guard_exceptionsINS_6vectorI14TimeRecordStopNS_9allocatorIS2_EEE16__destroy_vectorEE10__completeB8ue170006Ev, symObjAddr: 0x1EBC0, symBinAddr: 0x1000218CC, symSize: 0x1C }
  - { offsetInCU: 0x49990, offset: 0x49990, size: 0x8, addend: 0x0, symName: __ZNSt3__128__exception_guard_exceptionsINS_6vectorI14TimeRecordStopNS_9allocatorIS2_EEE16__destroy_vectorEED1B8ue170006Ev, symObjAddr: 0x1EBDC, symBinAddr: 0x1000218E8, symSize: 0x2C }
  - { offsetInCU: 0x499BA, offset: 0x499BA, size: 0x8, addend: 0x0, symName: __ZNSt3__128__exception_guard_exceptionsINS_6vectorI14TimeRecordStopNS_9allocatorIS2_EEE16__destroy_vectorEEC1B8ue170006ES6_, symObjAddr: 0x1EC08, symBinAddr: 0x100021914, symSize: 0x34 }
  - { offsetInCU: 0x499F2, offset: 0x499F2, size: 0x8, addend: 0x0, symName: __ZNSt3__128__exception_guard_exceptionsINS_6vectorI14TimeRecordStopNS_9allocatorIS2_EEE16__destroy_vectorEEC2B8ue170006ES6_, symObjAddr: 0x1EC3C, symBinAddr: 0x100021948, symSize: 0x24 }
  - { offsetInCU: 0x49A4D, offset: 0x49A4D, size: 0x8, addend: 0x0, symName: __ZNSt3__14pairIP14TimeRecordStopS2_EC1B8ue170006IS2_S2_LPv0EEEOT_OT0_, symObjAddr: 0x1EECC, symBinAddr: 0x100021BD8, symSize: 0x3C }
  - { offsetInCU: 0x49AAB, offset: 0x49AAB, size: 0x8, addend: 0x0, symName: __ZNSt3__14pairIP14TimeRecordStopS2_EC2B8ue170006IS2_S2_LPv0EEEOT_OT0_, symObjAddr: 0x1EF08, symBinAddr: 0x100021C14, symSize: 0x34 }
  - { offsetInCU: 0x49B09, offset: 0x49B09, size: 0x8, addend: 0x0, symName: __ZNSt3__129_AllocatorDestroyRangeReverseINS_9allocatorI14TimeRecordStopEEPS2_EC1B8ue170006ERS3_RS4_S7_, symObjAddr: 0x1EF88, symBinAddr: 0x100021C94, symSize: 0x44 }
  - { offsetInCU: 0x49B60, offset: 0x49B60, size: 0x8, addend: 0x0, symName: __ZNSt3__116allocator_traitsINS_9allocatorI14TimeRecordStopEEE9constructB8ue170006IS2_JRS2_EvEEvRS3_PT_DpOT0_, symObjAddr: 0x1EFCC, symBinAddr: 0x100021CD8, symSize: 0x34 }
  - { offsetInCU: 0x49BB7, offset: 0x49BB7, size: 0x8, addend: 0x0, symName: __ZNSt3__128__exception_guard_exceptionsINS_29_AllocatorDestroyRangeReverseINS_9allocatorI14TimeRecordStopEEPS3_EEE10__completeB8ue170006Ev, symObjAddr: 0x1F000, symBinAddr: 0x100021D0C, symSize: 0x1C }
  - { offsetInCU: 0x49BDD, offset: 0x49BDD, size: 0x8, addend: 0x0, symName: __ZNSt3__128__exception_guard_exceptionsINS_29_AllocatorDestroyRangeReverseINS_9allocatorI14TimeRecordStopEEPS3_EEED1B8ue170006Ev, symObjAddr: 0x1F01C, symBinAddr: 0x100021D28, symSize: 0x2C }
  - { offsetInCU: 0x49C07, offset: 0x49C07, size: 0x8, addend: 0x0, symName: __ZNSt3__128__exception_guard_exceptionsINS_29_AllocatorDestroyRangeReverseINS_9allocatorI14TimeRecordStopEEPS3_EEEC1B8ue170006ES6_, symObjAddr: 0x1F048, symBinAddr: 0x100021D54, symSize: 0x34 }
  - { offsetInCU: 0x49C40, offset: 0x49C40, size: 0x8, addend: 0x0, symName: __ZNSt3__128__exception_guard_exceptionsINS_29_AllocatorDestroyRangeReverseINS_9allocatorI14TimeRecordStopEEPS3_EEEC2B8ue170006ES6_, symObjAddr: 0x1F07C, symBinAddr: 0x100021D88, symSize: 0x30 }
  - { offsetInCU: 0x49C79, offset: 0x49C79, size: 0x8, addend: 0x0, symName: __ZNSt3__129_AllocatorDestroyRangeReverseINS_9allocatorI14TimeRecordStopEEPS2_EC2B8ue170006ERS3_RS4_S7_, symObjAddr: 0x1F0AC, symBinAddr: 0x100021DB8, symSize: 0x38 }
  - { offsetInCU: 0x49CD0, offset: 0x49CD0, size: 0x8, addend: 0x0, symName: __ZNSt3__19allocatorI14TimeRecordStopE9constructB8ue170006IS1_JRS1_EEEvPT_DpOT0_, symObjAddr: 0x1F0E4, symBinAddr: 0x100021DF0, symSize: 0x34 }
  - { offsetInCU: 0x49D26, offset: 0x49D26, size: 0x8, addend: 0x0, symName: __ZNSt3__128__exception_guard_exceptionsINS_29_AllocatorDestroyRangeReverseINS_9allocatorI14TimeRecordStopEEPS3_EEED2B8ue170006Ev, symObjAddr: 0x1F118, symBinAddr: 0x100021E24, symSize: 0x50 }
  - { offsetInCU: 0x49D50, offset: 0x49D50, size: 0x8, addend: 0x0, symName: __ZNKSt3__129_AllocatorDestroyRangeReverseINS_9allocatorI14TimeRecordStopEEPS2_EclB8ue170006Ev, symObjAddr: 0x1F168, symBinAddr: 0x100021E74, symSize: 0x68 }
  - { offsetInCU: 0x49D76, offset: 0x49D76, size: 0x8, addend: 0x0, symName: __ZNSt3__118__unwrap_iter_implIP14TimeRecordStopLb1EE8__unwrapB8ue170006ES2_, symObjAddr: 0x1F240, symBinAddr: 0x100021F4C, symSize: 0x24 }
  - { offsetInCU: 0x49D99, offset: 0x49D99, size: 0x8, addend: 0x0, symName: __ZNSt3__118__unwrap_iter_implIP14TimeRecordStopLb1EE8__rewrapB8ue170006ES2_S2_, symObjAddr: 0x1F264, symBinAddr: 0x100021F70, symSize: 0x58 }
  - { offsetInCU: 0x49DCA, offset: 0x49DCA, size: 0x8, addend: 0x0, symName: __ZNSt3__128__exception_guard_exceptionsINS_6vectorI14TimeRecordStopNS_9allocatorIS2_EEE16__destroy_vectorEED2B8ue170006Ev, symObjAddr: 0x1F2BC, symBinAddr: 0x100021FC8, symSize: 0x48 }
  - { offsetInCU: 0x49DF4, offset: 0x49DF4, size: 0x8, addend: 0x0, symName: __ZNSt3__13mapIPKcP13ProfilerStatsNS_4lessIS2_EENS_9allocatorINS_4pairIKS2_S4_EEEEEC2B8ue170006ERKSC_, symObjAddr: 0x1F304, symBinAddr: 0x100022010, symSize: 0x88 }
  - { offsetInCU: 0x49E2D, offset: 0x49E2D, size: 0x8, addend: 0x0, symName: __ZNSt3__16__treeINS_12__value_typeIPKcP13ProfilerStatsEENS_19__map_value_compareIS3_S6_NS_4lessIS3_EELb1EEENS_9allocatorIS6_EEEC1ERKSD_, symObjAddr: 0x1F38C, symBinAddr: 0x100022098, symSize: 0x34 }
  - { offsetInCU: 0x49E68, offset: 0x49E68, size: 0x8, addend: 0x0, symName: __ZNSt3__13mapIPKcP13ProfilerStatsNS_4lessIS2_EENS_9allocatorINS_4pairIKS2_S4_EEEEE6insertB8ue170006INS_20__map_const_iteratorINS_21__tree_const_iteratorINS_12__value_typeIS2_S4_EEPNS_11__tree_nodeISH_PvEElEEEEEEvT_SO_, symObjAddr: 0x1F3C0, symBinAddr: 0x1000220CC, symSize: 0x8C }
  - { offsetInCU: 0x49ED2, offset: 0x49ED2, size: 0x8, addend: 0x0, symName: __ZNKSt3__13mapIPKcP13ProfilerStatsNS_4lessIS2_EENS_9allocatorINS_4pairIKS2_S4_EEEEE5beginB8ue170006Ev, symObjAddr: 0x1F44C, symBinAddr: 0x100022158, symSize: 0x38 }
